
========================================================================

** ELF Header Information

    File Name: .\Objects\SabanWi_Master.axf

    Machine class: ELFCLASS32 (32-bit)
    Data encoding: ELFDATA2LSB (Little endian)
    Header version: EV_CURRENT (Current version)
    Operating System ABI: none
    ABI Version: 0
    File Type: ET_EXEC (Executable) (2)
    Machine: EM_ARM (ARM)

    Image Entry point: 0x000000d5
    Flags: EF_ARM_HASENTRY + EF_ARM_ABI_FLOAT_SOFT (0x05000202)

    ARM ELF revision: 5 (ABI version 2)

    Conforms to Soft float procedure-call standard

    Built with
    Component: Arm Compiler for Embedded 6.22 Tool: armasm [5ee90e00]
    Component: Arm Compiler for Embedded 6.22 Tool: armlink [5ee90200]

    Header size: 52 bytes (0x34)
    Program header entry size: 32 bytes (0x20)
    Section header entry size: 40 bytes (0x28)

    Program header entries: 1
    Section header entries: 16

    Program header offset: 71460 (0x00011724)
    Section header offset: 71492 (0x00011744)

    Section header string table index: 15

========================================================================

** Program header #0 (PT_LOAD) [PF_X + PF_W + PF_R + PF_ARM_ENTRY]
    Size : 7016 bytes (5892 bytes in file)
    Virtual address: 0x00000000 (Alignment 8)


========================================================================

** Section #1 'ER_RO' (SHT_PROGBITS) [SHF_ALLOC + SHF_EXECINSTR]
    Size   : 5844 bytes (alignment 4)
    Address: 0x00000000

    $d.realdata
    RESET
    __Vectors
        0x00000000:    20000490    ...     DCD    536872080
        0x00000004:    000000d5    ....    DCD    213
        0x00000008:    000000f5    ....    DCD    245
        0x0000000c:    000006c1    ....    DCD    1729
        0x00000010:    00000000    ....    DCD    0
        0x00000014:    00000000    ....    DCD    0
        0x00000018:    00000000    ....    DCD    0
        0x0000001c:    00000000    ....    DCD    0
        0x00000020:    00000000    ....    DCD    0
        0x00000024:    00000000    ....    DCD    0
        0x00000028:    00000000    ....    DCD    0
        0x0000002c:    000000f9    ....    DCD    249
        0x00000030:    00000000    ....    DCD    0
        0x00000034:    00000000    ....    DCD    0
        0x00000038:    000000fb    ....    DCD    251
        0x0000003c:    000000fd    ....    DCD    253
        0x00000040:    000000ff    ....    DCD    255
        0x00000044:    000010b5    ....    DCD    4277
        0x00000048:    000000ff    ....    DCD    255
        0x0000004c:    000000ff    ....    DCD    255
        0x00000050:    000000ff    ....    DCD    255
        0x00000054:    000000ff    ....    DCD    255
        0x00000058:    000000ff    ....    DCD    255
        0x0000005c:    000000ff    ....    DCD    255
        0x00000060:    00000a89    ....    DCD    2697
        0x00000064:    00000aa9    ....    DCD    2729
        0x00000068:    00000ac9    ....    DCD    2761
        0x0000006c:    00000ad9    ....    DCD    2777
        0x00000070:    000000ff    ....    DCD    255
        0x00000074:    000000ff    ....    DCD    255
        0x00000078:    000000ff    ....    DCD    255
        0x0000007c:    000000ff    ....    DCD    255
        0x00000080:    000000ff    ....    DCD    255
        0x00000084:    000000ff    ....    DCD    255
        0x00000088:    000000ff    ....    DCD    255
        0x0000008c:    000000ff    ....    DCD    255
        0x00000090:    000000ff    ....    DCD    255
        0x00000094:    000000ff    ....    DCD    255
        0x00000098:    000000ff    ....    DCD    255
        0x0000009c:    00000cb5    ....    DCD    3253
        0x000000a0:    000000ff    ....    DCD    255
        0x000000a4:    000000ff    ....    DCD    255
        0x000000a8:    000000ff    ....    DCD    255
        0x000000ac:    000000ff    ....    DCD    255
        0x000000b0:    000000ff    ....    DCD    255
        0x000000b4:    000000ff    ....    DCD    255
        0x000000b8:    000000ff    ....    DCD    255
        0x000000bc:    000000ff    ....    DCD    255
    $t
    .ARM.Collect$$$$00000000
    .ARM.Collect$$$$00000001
    __main
    _main_stk
        0x000000c0:    4803        .H      LDR      r0,__lit__00000000 ; [0xd0] = 0x20000490
        0x000000c2:    4685        .F      MOV      sp,r0
    .ARM.Collect$$$$00000004
    _main_scatterload
        0x000000c4:    f000f89c    ....    BL       __scatterload ; 0x200
    .ARM.Collect$$$$00000008
    .ARM.Collect$$$$0000000A
    .ARM.Collect$$$$0000000B
    __main_after_scatterload
    _main_clock
    _main_cpp_init
    _main_init
        0x000000c8:    4800        .H      LDR      r0,[pc,#0] ; [0xcc] = 0x112d
        0x000000ca:    4700        .G      BX       r0
    $d
        0x000000cc:    0000112d    -...    DCD    4397
    .ARM.Collect$$$$00002712
    __lit__00000000
    .ARM.Collect$$$$0000000D
    .ARM.Collect$$$$0000000F
    __rt_final_cpp
    __rt_final_exit
        0x000000d0:    20000490    ...     DCD    536872080
    $t
    .text
    Reset_Handler
        0x000000d4:    480a        .H      LDR      r0,[pc,#40] ; [0x100] = 0x50000100
        0x000000d6:    490b        .I      LDR      r1,[pc,#44] ; [0x104] = 0x59
        0x000000d8:    6001        .`      STR      r1,[r0,#0]
        0x000000da:    490b        .I      LDR      r1,[pc,#44] ; [0x108] = 0x16
        0x000000dc:    6001        .`      STR      r1,[r0,#0]
        0x000000de:    490b        .I      LDR      r1,[pc,#44] ; [0x10c] = 0x88
        0x000000e0:    6001        .`      STR      r1,[r0,#0]
        0x000000e2:    4a0b        .J      LDR      r2,[pc,#44] ; [0x110] = 0x50000024
        0x000000e4:    490b        .I      LDR      r1,[pc,#44] ; [0x114] = 0x5aa5
        0x000000e6:    6011        .`      STR      r1,[r2,#0]
        0x000000e8:    2100        .!      MOVS     r1,#0
        0x000000ea:    6001        .`      STR      r1,[r0,#0]
        0x000000ec:    480a        .H      LDR      r0,[pc,#40] ; [0x118] = 0xa85
        0x000000ee:    4780        .G      BLX      r0
        0x000000f0:    480a        .H      LDR      r0,[pc,#40] ; [0x11c] = 0xc1
        0x000000f2:    4700        .G      BX       r0
    NMI_Handler
        0x000000f4:    e7fe        ..      B        NMI_Handler ; 0xf4
        0x000000f6:    e7fe        ..      B        0xf6 ; NMI_Handler + 2
    SVC_Handler
        0x000000f8:    e7fe        ..      B        SVC_Handler ; 0xf8
    PendSV_Handler
        0x000000fa:    e7fe        ..      B        PendSV_Handler ; 0xfa
    SysTick_Handler
        0x000000fc:    e7fe        ..      B        SysTick_Handler ; 0xfc
    Default_Handler
    ACMP_IRQHandler
    ADC_IRQHandler
    BOD_IRQHandler
    CAN0_IRQHandler
    CAN1_IRQHandler
    EINT0_IRQHandler
    EINT1_IRQHandler
    GPAB_IRQHandler
    GPCDEF_IRQHandler
    I2C0_IRQHandler
    I2C1_IRQHandler
    I2S_IRQHandler
    PDMA_IRQHandler
    PS2_IRQHandler
    PWMA_IRQHandler
    PWMB_IRQHandler
    PWRWU_IRQHandler
    RTC_IRQHandler
    SC012_IRQHandler
    SPI0_IRQHandler
    SPI1_IRQHandler
    SPI2_IRQHandler
    SPI3_IRQHandler
    UART02_IRQHandler
    UART1_IRQHandler
        0x000000fe:    e7fe        ..      B        Default_Handler ; 0xfe
    $d
        0x00000100:    50000100    ...P    DCD    1342177536
        0x00000104:    00000059    Y...    DCD    89
        0x00000108:    00000016    ....    DCD    22
        0x0000010c:    00000088    ....    DCD    136
        0x00000110:    50000024    $..P    DCD    1342177316
        0x00000114:    00005aa5    .Z..    DCD    23205
        0x00000118:    00000a85    ....    DCD    2693
        0x0000011c:    000000c1    ....    DCD    193
    $t
    .text
    __aeabi_uidiv
    __aeabi_uidivmod
        0x00000120:    b570        p.      PUSH     {r4-r6,lr}
        0x00000122:    4604        .F      MOV      r4,r0
        0x00000124:    2900        .)      CMP      r1,#0
        0x00000126:    d003        ..      BEQ      0x130 ; __aeabi_uidiv + 16
        0x00000128:    2000        .       MOVS     r0,#0
        0x0000012a:    2220         "      MOVS     r2,#0x20
        0x0000012c:    2301        .#      MOVS     r3,#1
        0x0000012e:    e010        ..      B        0x152 ; __aeabi_uidiv + 50
        0x00000130:    2800        .(      CMP      r0,#0
        0x00000132:    d001        ..      BEQ      0x138 ; __aeabi_uidiv + 24
        0x00000134:    2000        .       MOVS     r0,#0
        0x00000136:    43c0        .C      MVNS     r0,r0
        0x00000138:    46c0        .F      MOV      r8,r8
        0x0000013a:    46c0        .F      MOV      r8,r8
        0x0000013c:    e00d        ..      B        0x15a ; __aeabi_uidiv + 58
        0x0000013e:    4625        %F      MOV      r5,r4
        0x00000140:    40d5        .@      LSRS     r5,r5,r2
        0x00000142:    428d        .B      CMP      r5,r1
        0x00000144:    d305        ..      BCC      0x152 ; __aeabi_uidiv + 50
        0x00000146:    460d        .F      MOV      r5,r1
        0x00000148:    4095        .@      LSLS     r5,r5,r2
        0x0000014a:    1b64        d.      SUBS     r4,r4,r5
        0x0000014c:    461d        .F      MOV      r5,r3
        0x0000014e:    4095        .@      LSLS     r5,r5,r2
        0x00000150:    1940        @.      ADDS     r0,r0,r5
        0x00000152:    4615        .F      MOV      r5,r2
        0x00000154:    1e52        R.      SUBS     r2,r2,#1
        0x00000156:    2d00        .-      CMP      r5,#0
        0x00000158:    dcf1        ..      BGT      0x13e ; __aeabi_uidiv + 30
        0x0000015a:    4621        !F      MOV      r1,r4
        0x0000015c:    bd70        p.      POP      {r4-r6,pc}
    .text
    __aeabi_uldivmod
        0x0000015e:    b5f0        ..      PUSH     {r4-r7,lr}
        0x00000160:    b41f        ..      PUSH     {r0-r4}
        0x00000162:    4606        .F      MOV      r6,r0
        0x00000164:    2000        .       MOVS     r0,#0
        0x00000166:    b082        ..      SUB      sp,sp,#8
        0x00000168:    4605        .F      MOV      r5,r0
        0x0000016a:    2440        @$      MOVS     r4,#0x40
        0x0000016c:    9101        ..      STR      r1,[sp,#4]
        0x0000016e:    9000        ..      STR      r0,[sp,#0]
        0x00000170:    e01b        ..      B        0x1aa ; __aeabi_uldivmod + 76
        0x00000172:    9901        ..      LDR      r1,[sp,#4]
        0x00000174:    4622        "F      MOV      r2,r4
        0x00000176:    460f        .F      MOV      r7,r1
        0x00000178:    4630        0F      MOV      r0,r6
        0x0000017a:    f000f830    ..0.    BL       __aeabi_llsr ; 0x1de
        0x0000017e:    9a04        ..      LDR      r2,[sp,#0x10]
        0x00000180:    9b05        ..      LDR      r3,[sp,#0x14]
        0x00000182:    1a80        ..      SUBS     r0,r0,r2
        0x00000184:    4199        .A      SBCS     r1,r1,r3
        0x00000186:    d310        ..      BCC      0x1aa ; __aeabi_uldivmod + 76
        0x00000188:    4610        .F      MOV      r0,r2
        0x0000018a:    4619        .F      MOV      r1,r3
        0x0000018c:    4622        "F      MOV      r2,r4
        0x0000018e:    f000f816    ....    BL       __aeabi_llsl ; 0x1be
        0x00000192:    1a36        6.      SUBS     r6,r6,r0
        0x00000194:    418f        .A      SBCS     r7,r7,r1
        0x00000196:    9701        ..      STR      r7,[sp,#4]
        0x00000198:    4622        "F      MOV      r2,r4
        0x0000019a:    2001        .       MOVS     r0,#1
        0x0000019c:    2100        .!      MOVS     r1,#0
        0x0000019e:    9f00        ..      LDR      r7,[sp,#0]
        0x000001a0:    f000f80d    ....    BL       __aeabi_llsl ; 0x1be
        0x000001a4:    1838        8.      ADDS     r0,r7,r0
        0x000001a6:    414d        MA      ADCS     r5,r5,r1
        0x000001a8:    9000        ..      STR      r0,[sp,#0]
        0x000001aa:    4620         F      MOV      r0,r4
        0x000001ac:    1e64        d.      SUBS     r4,r4,#1
        0x000001ae:    2800        .(      CMP      r0,#0
        0x000001b0:    dcdf        ..      BGT      0x172 ; __aeabi_uldivmod + 20
        0x000001b2:    9b01        ..      LDR      r3,[sp,#4]
        0x000001b4:    9800        ..      LDR      r0,[sp,#0]
        0x000001b6:    4629        )F      MOV      r1,r5
        0x000001b8:    4632        2F      MOV      r2,r6
        0x000001ba:    b007        ..      ADD      sp,sp,#0x1c
        0x000001bc:    bdf0        ..      POP      {r4-r7,pc}
    .text
    __aeabi_llsl
    _ll_shift_l
        0x000001be:    b510        ..      PUSH     {r4,lr}
        0x000001c0:    2a20         *      CMP      r2,#0x20
        0x000001c2:    db04        ..      BLT      0x1ce ; __aeabi_llsl + 16
        0x000001c4:    4601        .F      MOV      r1,r0
        0x000001c6:    3a20         :      SUBS     r2,r2,#0x20
        0x000001c8:    4091        .@      LSLS     r1,r1,r2
        0x000001ca:    2000        .       MOVS     r0,#0
        0x000001cc:    bd10        ..      POP      {r4,pc}
        0x000001ce:    4091        .@      LSLS     r1,r1,r2
        0x000001d0:    2320         #      MOVS     r3,#0x20
        0x000001d2:    1a9c        ..      SUBS     r4,r3,r2
        0x000001d4:    4603        .F      MOV      r3,r0
        0x000001d6:    40e3        .@      LSRS     r3,r3,r4
        0x000001d8:    4319        .C      ORRS     r1,r1,r3
        0x000001da:    4090        .@      LSLS     r0,r0,r2
        0x000001dc:    bd10        ..      POP      {r4,pc}
    .text
    __aeabi_llsr
    _ll_ushift_r
        0x000001de:    b510        ..      PUSH     {r4,lr}
        0x000001e0:    2a20         *      CMP      r2,#0x20
        0x000001e2:    db04        ..      BLT      0x1ee ; __aeabi_llsr + 16
        0x000001e4:    4608        .F      MOV      r0,r1
        0x000001e6:    3a20         :      SUBS     r2,r2,#0x20
        0x000001e8:    40d0        .@      LSRS     r0,r0,r2
        0x000001ea:    2100        .!      MOVS     r1,#0
        0x000001ec:    bd10        ..      POP      {r4,pc}
        0x000001ee:    460b        .F      MOV      r3,r1
        0x000001f0:    40d3        .@      LSRS     r3,r3,r2
        0x000001f2:    40d0        .@      LSRS     r0,r0,r2
        0x000001f4:    2420         $      MOVS     r4,#0x20
        0x000001f6:    1aa2        ..      SUBS     r2,r4,r2
        0x000001f8:    4091        .@      LSLS     r1,r1,r2
        0x000001fa:    4308        .C      ORRS     r0,r0,r1
        0x000001fc:    4619        .F      MOV      r1,r3
        0x000001fe:    bd10        ..      POP      {r4,pc}
    .text
    __scatterload
    __scatterload_rt2
        0x00000200:    b51c        ..      PUSH     {r2-r4,lr}
        0x00000202:    4809        .H      LDR      r0,[pc,#36] ; [0x228] = 0x16b4
        0x00000204:    9000        ..      STR      r0,[sp,#0]
        0x00000206:    4809        .H      LDR      r0,[pc,#36] ; [0x22c] = 0x16d4
        0x00000208:    9001        ..      STR      r0,[sp,#4]
        0x0000020a:    4605        .F      MOV      r5,r0
        0x0000020c:    2601        .&      MOVS     r6,#1
        0x0000020e:    9c00        ..      LDR      r4,[sp,#0]
        0x00000210:    e005        ..      B        0x21e ; __scatterload + 30
        0x00000212:    68e3        .h      LDR      r3,[r4,#0xc]
        0x00000214:    cc07        ..      LDM      r4!,{r0-r2}
        0x00000216:    4333        3C      ORRS     r3,r3,r6
        0x00000218:    3c0c        .<      SUBS     r4,r4,#0xc
        0x0000021a:    4798        .G      BLX      r3
        0x0000021c:    3410        .4      ADDS     r4,r4,#0x10
        0x0000021e:    42ac        .B      CMP      r4,r5
        0x00000220:    d3f7        ..      BCC      0x212 ; __scatterload + 18
        0x00000222:    f7ffff51    ..Q.    BL       __main_after_scatterload ; 0xc8
    $d
        0x00000226:    0000        ..      DCW    0
        0x00000228:    000016b4    ....    DCD    5812
        0x0000022c:    000016d4    ....    DCD    5844
    $t.38
    CLK_DisablePLL
        0x00000230:    2001        .       MOVS     r0,#1
        0x00000232:    0400        ..      LSLS     r0,r0,#16
        0x00000234:    4902        .I      LDR      r1,[pc,#8] ; [0x240] = 0x50000220
        0x00000236:    680a        .h      LDR      r2,[r1,#0]
        0x00000238:    4302        .C      ORRS     r2,r2,r0
        0x0000023a:    600a        .`      STR      r2,[r1,#0]
        0x0000023c:    4770        pG      BX       lr
        0x0000023e:    46c0        .F      MOV      r8,r8
    $d.39
    __arm_cp.19_0
        0x00000240:    50000220     ..P    DCD    1342177824
    $t.4
    CLK_EnableCKO
        0x00000244:    2210        ."      MOVS     r2,#0x10
        0x00000246:    430a        .C      ORRS     r2,r2,r1
        0x00000248:    4905        .I      LDR      r1,[pc,#20] ; [0x260] = 0x50000208
        0x0000024a:    61ca        .a      STR      r2,[r1,#0x1c]
        0x0000024c:    680a        .h      LDR      r2,[r1,#0]
        0x0000024e:    2340        @#      MOVS     r3,#0x40
        0x00000250:    4313        .C      ORRS     r3,r3,r2
        0x00000252:    600b        .`      STR      r3,[r1,#0]
        0x00000254:    694a        Ji      LDR      r2,[r1,#0x14]
        0x00000256:    230c        .#      MOVS     r3,#0xc
        0x00000258:    439a        .C      BICS     r2,r2,r3
        0x0000025a:    4302        .C      ORRS     r2,r2,r0
        0x0000025c:    614a        Ja      STR      r2,[r1,#0x14]
        0x0000025e:    4770        pG      BX       lr
    $d.5
    __arm_cp.2_0
        0x00000260:    50000208    ...P    DCD    1342177800
    $t.6
    CLK_EnableModuleClock
        0x00000264:    211f        .!      MOVS     r1,#0x1f
        0x00000266:    4001        .@      ANDS     r1,r1,r0
        0x00000268:    2201        ."      MOVS     r2,#1
        0x0000026a:    408a        .@      LSLS     r2,r2,r1
        0x0000026c:    0f80        ..      LSRS     r0,r0,#30
        0x0000026e:    0080        ..      LSLS     r0,r0,#2
        0x00000270:    4903        .I      LDR      r1,[pc,#12] ; [0x280] = 0x16a4
        0x00000272:    5808        .X      LDR      r0,[r1,r0]
        0x00000274:    4903        .I      LDR      r1,[pc,#12] ; [0x284] = 0x50000204
        0x00000276:    5843        CX      LDR      r3,[r0,r1]
        0x00000278:    4313        .C      ORRS     r3,r3,r2
        0x0000027a:    5043        CP      STR      r3,[r0,r1]
        0x0000027c:    4770        pG      BX       lr
        0x0000027e:    46c0        .F      MOV      r8,r8
    $d.7
    __arm_cp.3_0
        0x00000280:    000016a4    ....    DCD    5796
    __arm_cp.3_1
        0x00000284:    50000204    ...P    DCD    1342177796
    $t.26
    CLK_EnablePLL
        0x00000288:    b5f0        ..      PUSH     {r4-r7,lr}
        0x0000028a:    b087        ..      SUB      sp,sp,#0x1c
        0x0000028c:    4607        .F      MOV      r7,r0
        0x0000028e:    2501        .%      MOVS     r5,#1
        0x00000290:    0428        (.      LSLS     r0,r5,#16
        0x00000292:    4a5a        ZJ      LDR      r2,[pc,#360] ; [0x3fc] = 0x50000200
        0x00000294:    6210        .b      STR      r0,[r2,#0x20]
        0x00000296:    2404        .$      MOVS     r4,#4
        0x00000298:    2f00        ./      CMP      r7,#0
        0x0000029a:    4628        (F      MOV      r0,r5
        0x0000029c:    d000        ..      BEQ      0x2a0 ; CLK_EnablePLL + 24
        0x0000029e:    4620         F      MOV      r0,r4
        0x000002a0:    9106        ..      STR      r1,[sp,#0x18]
        0x000002a2:    6811        .h      LDR      r1,[r2,#0]
        0x000002a4:    4301        .C      ORRS     r1,r1,r0
        0x000002a6:    6011        .`      STR      r1,[r2,#0]
        0x000002a8:    2f00        ./      CMP      r7,#0
        0x000002aa:    4628        (F      MOV      r0,r5
        0x000002ac:    d000        ..      BEQ      0x2b0 ; CLK_EnablePLL + 40
        0x000002ae:    2010        .       MOVS     r0,#0x10
        0x000002b0:    f000f994    ....    BL       CLK_WaitClockReady ; 0x5dc
        0x000002b4:    4852        RH      LDR      r0,[pc,#328] ; [0x400] = 0xb71b00
        0x000002b6:    4953        SI      LDR      r1,[pc,#332] ; [0x404] = 0x1518000
        0x000002b8:    2f00        ./      CMP      r7,#0
        0x000002ba:    9002        ..      STR      r0,[sp,#8]
        0x000002bc:    d000        ..      BEQ      0x2c0 ; CLK_EnablePLL + 56
        0x000002be:    9102        ..      STR      r1,[sp,#8]
        0x000002c0:    2f00        ./      CMP      r7,#0
        0x000002c2:    d100        ..      BNE      0x2c6 ; CLK_EnablePLL + 62
        0x000002c4:    2402        .$      MOVS     r4,#2
        0x000002c6:    1e79        y.      SUBS     r1,r7,#1
        0x000002c8:    463e        >F      MOV      r6,r7
        0x000002ca:    4638        8F      MOV      r0,r7
        0x000002cc:    4188        .A      SBCS     r0,r0,r1
        0x000002ce:    494e        NI      LDR      r1,[pc,#312] ; [0x408] = 0xfa0a1eff
        0x000002d0:    9b06        ..      LDR      r3,[sp,#0x18]
        0x000002d2:    1859        Y.      ADDS     r1,r3,r1
        0x000002d4:    2700        .'      MOVS     r7,#0
        0x000002d6:    4a4d        MJ      LDR      r2,[pc,#308] ; [0x40c] = 0x5f5e100
        0x000002d8:    4291        .B      CMP      r1,r2
        0x000002da:    d201        ..      BCS      0x2e0 ; CLK_EnablePLL + 88
        0x000002dc:    9701        ..      STR      r7,[sp,#4]
        0x000002de:    e011        ..      B        0x304 ; CLK_EnablePLL + 124
        0x000002e0:    494b        KI      LDR      r1,[pc,#300] ; [0x410] = 0xfd050f7f
        0x000002e2:    1859        Y.      ADDS     r1,r3,r1
        0x000002e4:    4a4b        KJ      LDR      r2,[pc,#300] ; [0x414] = 0x2faf07f
        0x000002e6:    4291        .B      CMP      r1,r2
        0x000002e8:    d803        ..      BHI      0x2f2 ; CLK_EnablePLL + 106
        0x000002ea:    005b        [.      LSLS     r3,r3,#1
        0x000002ec:    9306        ..      STR      r3,[sp,#0x18]
        0x000002ee:    2101        .!      MOVS     r1,#1
        0x000002f0:    e007        ..      B        0x302 ; CLK_EnablePLL + 122
        0x000002f2:    4949        II      LDR      r1,[pc,#292] ; [0x418] = 0xfe8287c0
        0x000002f4:    1859        Y.      ADDS     r1,r3,r1
        0x000002f6:    4a49        IJ      LDR      r2,[pc,#292] ; [0x41c] = 0x17d7840
        0x000002f8:    4291        .B      CMP      r1,r2
        0x000002fa:    d856        V.      BHI      0x3aa ; CLK_EnablePLL + 290
        0x000002fc:    009b        ..      LSLS     r3,r3,#2
        0x000002fe:    9306        ..      STR      r3,[sp,#0x18]
        0x00000300:    2103        .!      MOVS     r1,#3
        0x00000302:    9101        ..      STR      r1,[sp,#4]
        0x00000304:    04c0        ..      LSLS     r0,r0,#19
        0x00000306:    9000        ..      STR      r0,[sp,#0]
        0x00000308:    43fe        .C      MVNS     r6,r7
        0x0000030a:    4847        GH      LDR      r0,[pc,#284] ; [0x428] = 0x1ff
        0x0000030c:    1c45        E.      ADDS     r5,r0,#1
        0x0000030e:    9704        ..      STR      r7,[sp,#0x10]
        0x00000310:    9703        ..      STR      r7,[sp,#0xc]
        0x00000312:    2c21        !,      CMP      r4,#0x21
        0x00000314:    d830        0.      BHI      0x378 ; CLK_EnablePLL + 240
        0x00000316:    9802        ..      LDR      r0,[sp,#8]
        0x00000318:    9405        ..      STR      r4,[sp,#0x14]
        0x0000031a:    4621        !F      MOV      r1,r4
        0x0000031c:    f7ffff00    ....    BL       __aeabi_uidiv ; 0x120
        0x00000320:    4607        .F      MOV      r7,r0
        0x00000322:    4844        DH      LDR      r0,[pc,#272] ; [0x434] = 0xffe795ff
        0x00000324:    1838        8.      ADDS     r0,r7,r0
        0x00000326:    4944        DI      LDR      r1,[pc,#272] ; [0x438] = 0xcc77be
        0x00000328:    4288        .B      CMP      r0,r1
        0x0000032a:    d81c        ..      BHI      0x366 ; CLK_EnablePLL + 222
        0x0000032c:    2202        ."      MOVS     r2,#2
        0x0000032e:    2100        .!      MOVS     r1,#0
        0x00000330:    428d        .B      CMP      r5,r1
        0x00000332:    d018        ..      BEQ      0x366 ; CLK_EnablePLL + 222
        0x00000334:    4638        8F      MOV      r0,r7
        0x00000336:    4350        PC      MULS     r0,r2,r0
        0x00000338:    4b33        3K      LDR      r3,[pc,#204] ; [0x408] = 0xfa0a1eff
        0x0000033a:    181b        ..      ADDS     r3,r3,r0
        0x0000033c:    1c5b        [.      ADDS     r3,r3,#1
        0x0000033e:    4c33        3L      LDR      r4,[pc,#204] ; [0x40c] = 0x5f5e100
        0x00000340:    1c64        d.      ADDS     r4,r4,#1
        0x00000342:    42a3        .B      CMP      r3,r4
        0x00000344:    d20c        ..      BCS      0x360 ; CLK_EnablePLL + 216
        0x00000346:    9c06        ..      LDR      r4,[sp,#0x18]
        0x00000348:    1a23        #.      SUBS     r3,r4,r0
        0x0000034a:    d200        ..      BCS      0x34e ; CLK_EnablePLL + 198
        0x0000034c:    1b03        ..      SUBS     r3,r0,r4
        0x0000034e:    42b3        .B      CMP      r3,r6
        0x00000350:    d206        ..      BCS      0x360 ; CLK_EnablePLL + 216
        0x00000352:    2b00        .+      CMP      r3,#0
        0x00000354:    d00a        ..      BEQ      0x36c ; CLK_EnablePLL + 228
        0x00000356:    1c88        ..      ADDS     r0,r1,#2
        0x00000358:    9004        ..      STR      r0,[sp,#0x10]
        0x0000035a:    461e        .F      MOV      r6,r3
        0x0000035c:    9805        ..      LDR      r0,[sp,#0x14]
        0x0000035e:    9003        ..      STR      r0,[sp,#0xc]
        0x00000360:    1c49        I.      ADDS     r1,r1,#1
        0x00000362:    1c52        R.      ADDS     r2,r2,#1
        0x00000364:    e7e4        ..      B        0x330 ; CLK_EnablePLL + 168
        0x00000366:    9c05        ..      LDR      r4,[sp,#0x14]
        0x00000368:    1c64        d.      ADDS     r4,r4,#1
        0x0000036a:    e7d2        ..      B        0x312 ; CLK_EnablePLL + 138
        0x0000036c:    1c88        ..      ADDS     r0,r1,#2
        0x0000036e:    9004        ..      STR      r0,[sp,#0x10]
        0x00000370:    2600        .&      MOVS     r6,#0
        0x00000372:    9c05        ..      LDR      r4,[sp,#0x14]
        0x00000374:    9403        ..      STR      r4,[sp,#0xc]
        0x00000376:    e7f7        ..      B        0x368 ; CLK_EnablePLL + 224
        0x00000378:    9e03        ..      LDR      r6,[sp,#0xc]
        0x0000037a:    0270        p.      LSLS     r0,r6,#9
        0x0000037c:    492c        ,I      LDR      r1,[pc,#176] ; [0x430] = 0xfffffc00
        0x0000037e:    1840        @.      ADDS     r0,r0,r1
        0x00000380:    9d01        ..      LDR      r5,[sp,#4]
        0x00000382:    03a9        ..      LSLS     r1,r5,#14
        0x00000384:    9a00        ..      LDR      r2,[sp,#0]
        0x00000386:    4311        .C      ORRS     r1,r1,r2
        0x00000388:    9c04        ..      LDR      r4,[sp,#0x10]
        0x0000038a:    1ea2        ..      SUBS     r2,r4,#2
        0x0000038c:    430a        .C      ORRS     r2,r2,r1
        0x0000038e:    4302        .C      ORRS     r2,r2,r0
        0x00000390:    481a        .H      LDR      r0,[pc,#104] ; [0x3fc] = 0x50000200
        0x00000392:    6202        .b      STR      r2,[r0,#0x20]
        0x00000394:    2004        .       MOVS     r0,#4
        0x00000396:    f000f921    ..!.    BL       CLK_WaitClockReady ; 0x5dc
        0x0000039a:    1c69        i.      ADDS     r1,r5,#1
        0x0000039c:    4371        qC      MULS     r1,r6,r1
        0x0000039e:    9802        ..      LDR      r0,[sp,#8]
        0x000003a0:    f7fffebe    ....    BL       __aeabi_uidiv ; 0x120
        0x000003a4:    4360        `C      MULS     r0,r4,r0
        0x000003a6:    b007        ..      ADD      sp,sp,#0x1c
        0x000003a8:    bdf0        ..      POP      {r4-r7,pc}
        0x000003aa:    2e00        ..      CMP      r6,#0
        0x000003ac:    d001        ..      BEQ      0x3b2 ; CLK_EnablePLL + 298
        0x000003ae:    481d        .H      LDR      r0,[pc,#116] ; [0x424] = 0x8d66f
        0x000003b0:    e000        ..      B        0x3b4 ; CLK_EnablePLL + 300
        0x000003b2:    481b        .H      LDR      r0,[pc,#108] ; [0x420] = 0xc22e
        0x000003b4:    4c11        .L      LDR      r4,[pc,#68] ; [0x3fc] = 0x50000200
        0x000003b6:    6220         b      STR      r0,[r4,#0x20]
        0x000003b8:    2004        .       MOVS     r0,#4
        0x000003ba:    f000f90f    ....    BL       CLK_WaitClockReady ; 0x5dc
        0x000003be:    6a21        !j      LDR      r1,[r4,#0x20]
        0x000003c0:    2005        .       MOVS     r0,#5
        0x000003c2:    0400        ..      LSLS     r0,r0,#16
        0x000003c4:    4201        .B      TST      r1,r0
        0x000003c6:    d001        ..      BEQ      0x3cc ; CLK_EnablePLL + 324
        0x000003c8:    2000        .       MOVS     r0,#0
        0x000003ca:    e7ec        ..      B        0x3a6 ; CLK_EnablePLL + 286
        0x000003cc:    04e8        ..      LSLS     r0,r5,#19
        0x000003ce:    4201        .B      TST      r1,r0
        0x000003d0:    480b        .H      LDR      r0,[pc,#44] ; [0x400] = 0xb71b00
        0x000003d2:    d000        ..      BEQ      0x3d6 ; CLK_EnablePLL + 334
        0x000003d4:    480b        .H      LDR      r0,[pc,#44] ; [0x404] = 0x1518000
        0x000003d6:    038a        ..      LSLS     r2,r1,#14
        0x000003d8:    d4e5        ..      BMI      0x3a6 ; CLK_EnablePLL + 286
        0x000003da:    4a13        .J      LDR      r2,[pc,#76] ; [0x428] = 0x1ff
        0x000003dc:    400a        .@      ANDS     r2,r2,r1
        0x000003de:    1c92        ..      ADDS     r2,r2,#2
        0x000003e0:    0880        ..      LSRS     r0,r0,#2
        0x000003e2:    4350        PC      MULS     r0,r2,r0
        0x000003e4:    040a        ..      LSLS     r2,r1,#16
        0x000003e6:    0f92        ..      LSRS     r2,r2,#30
        0x000003e8:    a310        ..      ADR      r3,{pc}+0x44 ; 0x42c
        0x000003ea:    5c9a        .\      LDRB     r2,[r3,r2]
        0x000003ec:    0489        ..      LSLS     r1,r1,#18
        0x000003ee:    0ec9        ..      LSRS     r1,r1,#27
        0x000003f0:    1c89        ..      ADDS     r1,r1,#2
        0x000003f2:    4351        QC      MULS     r1,r2,r1
        0x000003f4:    f7fffe94    ....    BL       __aeabi_uidiv ; 0x120
        0x000003f8:    0080        ..      LSLS     r0,r0,#2
        0x000003fa:    e7d4        ..      B        0x3a6 ; CLK_EnablePLL + 286
    $d.27
    __arm_cp.13_0
        0x000003fc:    50000200    ...P    DCD    1342177792
    __arm_cp.13_1
        0x00000400:    00b71b00    ....    DCD    12000000
    __arm_cp.13_2
        0x00000404:    01518000    ..Q.    DCD    22118400
    __arm_cp.13_3
        0x00000408:    fa0a1eff    ....    DCD    4194967295
    __arm_cp.13_4
        0x0000040c:    05f5e100    ....    DCD    100000000
    __arm_cp.13_5
        0x00000410:    fd050f7f    ....    DCD    4244967295
    __arm_cp.13_6
        0x00000414:    02faf07f    ....    DCD    49999999
    __arm_cp.13_7
        0x00000418:    fe8287c0    ....    DCD    4269967296
    __arm_cp.13_8
        0x0000041c:    017d7840    @x}.    DCD    25000000
    __arm_cp.13_9
        0x00000420:    0000c22e    ....    DCD    49710
    __arm_cp.13_10
        0x00000424:    0008d66f    o...    DCD    579183
    __arm_cp.13_11
        0x00000428:    000001ff    ....    DCD    511
        0x0000042c:    04020201    ....    DCD    67240449
    __arm_cp.13_13
        0x00000430:    fffffc00    ....    DCD    4294966272
    __arm_cp.13_14
        0x00000434:    ffe795ff    ....    DCD    4293367295
    __arm_cp.13_15
        0x00000438:    00cc77be    .w..    DCD    13399998
    $t.40
    CLK_EnableSysTick
        0x0000043c:    b570        p.      PUSH     {r4-r6,lr}
        0x0000043e:    4a0b        .J      LDR      r2,[pc,#44] ; [0x46c] = 0xe000e010
        0x00000440:    2300        .#      MOVS     r3,#0
        0x00000442:    6013        .`      STR      r3,[r2,#0]
        0x00000444:    2804        .(      CMP      r0,#4
        0x00000446:    d104        ..      BNE      0x452 ; CLK_EnableSysTick + 22
        0x00000448:    6810        .h      LDR      r0,[r2,#0]
        0x0000044a:    2404        .$      MOVS     r4,#4
        0x0000044c:    4304        .C      ORRS     r4,r4,r0
        0x0000044e:    6014        .`      STR      r4,[r2,#0]
        0x00000450:    e005        ..      B        0x45e ; CLK_EnableSysTick + 34
        0x00000452:    4c5b        [L      LDR      r4,[pc,#364] ; [0x5c0] = 0x50000210
        0x00000454:    6825        %h      LDR      r5,[r4,#0]
        0x00000456:    2638        8&      MOVS     r6,#0x38
        0x00000458:    43b5        .C      BICS     r5,r5,r6
        0x0000045a:    4305        .C      ORRS     r5,r5,r0
        0x0000045c:    6025        %`      STR      r5,[r4,#0]
        0x0000045e:    6051        Q`      STR      r1,[r2,#4]
        0x00000460:    6093        .`      STR      r3,[r2,#8]
        0x00000462:    6810        .h      LDR      r0,[r2,#0]
        0x00000464:    2103        .!      MOVS     r1,#3
        0x00000466:    4301        .C      ORRS     r1,r1,r0
        0x00000468:    6011        .`      STR      r1,[r2,#0]
        0x0000046a:    bd70        p.      POP      {r4-r6,pc}
    $d.41
    __arm_cp.20_0
        0x0000046c:    e000e010    ....    DCD    3758153744
    $t.32
    CLK_EnableXtalRC
        0x00000470:    492d        -I      LDR      r1,[pc,#180] ; [0x528] = 0x50000200
        0x00000472:    680a        .h      LDR      r2,[r1,#0]
        0x00000474:    4302        .C      ORRS     r2,r2,r0
        0x00000476:    600a        .`      STR      r2,[r1,#0]
        0x00000478:    4770        pG      BX       lr
        0x0000047a:    46c0        .F      MOV      r8,r8
    CLK_SetCoreClock
        0x0000047c:    b5f8        ..      PUSH     {r3-r7,lr}
        0x0000047e:    4601        .F      MOV      r1,r0
        0x00000480:    4d29        )M      LDR      r5,[pc,#164] ; [0x528] = 0x50000200
        0x00000482:    68ef        .h      LDR      r7,[r5,#0xc]
        0x00000484:    6828        (h      LDR      r0,[r5,#0]
        0x00000486:    2604        .&      MOVS     r6,#4
        0x00000488:    4330        0C      ORRS     r0,r0,r6
        0x0000048a:    6028        (`      STR      r0,[r5,#0]
        0x0000048c:    48e2        .H      LDR      r0,[pc,#904] ; [0x818] = 0x2faf080
        0x0000048e:    4281        .B      CMP      r1,r0
        0x00000490:    d300        ..      BCC      0x494 ; CLK_SetCoreClock + 24
        0x00000492:    4601        .F      MOV      r1,r0
        0x00000494:    68e8        .h      LDR      r0,[r5,#0xc]
        0x00000496:    06c0        ..      LSLS     r0,r0,#27
        0x00000498:    d5fc        ..      BPL      0x494 ; CLK_SetCoreClock + 24
        0x0000049a:    6928        (i      LDR      r0,[r5,#0x10]
        0x0000049c:    2207        ."      MOVS     r2,#7
        0x0000049e:    4302        .C      ORRS     r2,r2,r0
        0x000004a0:    612a        *a      STR      r2,[r5,#0x10]
        0x000004a2:    2001        .       MOVS     r0,#1
        0x000004a4:    0402        ..      LSLS     r2,r0,#16
        0x000004a6:    6a2b        +j      LDR      r3,[r5,#0x20]
        0x000004a8:    4313        .C      ORRS     r3,r3,r2
        0x000004aa:    622b        +b      STR      r3,[r5,#0x20]
        0x000004ac:    4a0d        .J      LDR      r2,[pc,#52] ; [0x4e4] = 0x17d7840
        0x000004ae:    4291        .B      CMP      r1,r2
        0x000004b0:    d800        ..      BHI      0x4b4 ; CLK_SetCoreClock + 56
        0x000004b2:    4611        .F      MOV      r1,r2
        0x000004b4:    68ea        .h      LDR      r2,[r5,#0xc]
        0x000004b6:    07d2        ..      LSLS     r2,r2,#31
        0x000004b8:    d105        ..      BNE      0x4c6 ; CLK_SetCoreClock + 74
        0x000004ba:    04c0        ..      LSLS     r0,r0,#19
        0x000004bc:    f7fffee4    ....    BL       CLK_EnablePLL ; 0x288
        0x000004c0:    4604        .F      MOV      r4,r0
        0x000004c2:    68ef        .h      LDR      r7,[r5,#0xc]
        0x000004c4:    e003        ..      B        0x4ce ; CLK_SetCoreClock + 82
        0x000004c6:    2000        .       MOVS     r0,#0
        0x000004c8:    f7fffede    ....    BL       CLK_EnablePLL ; 0x288
        0x000004cc:    4604        .F      MOV      r4,r0
        0x000004ce:    2002        .       MOVS     r0,#2
        0x000004d0:    2100        .!      MOVS     r1,#0
        0x000004d2:    f000f809    ....    BL       CLK_SetHCLK ; 0x4e8
        0x000004d6:    06f8        ..      LSLS     r0,r7,#27
        0x000004d8:    d402        ..      BMI      0x4e0 ; CLK_SetCoreClock + 100
        0x000004da:    6828        (h      LDR      r0,[r5,#0]
        0x000004dc:    43b0        .C      BICS     r0,r0,r6
        0x000004de:    6028        (`      STR      r0,[r5,#0]
        0x000004e0:    4620         F      MOV      r0,r4
        0x000004e2:    bdf8        ..      POP      {r3-r7,pc}
    $d.25
    __arm_cp.12_2
        0x000004e4:    017d7840    @x}.    DCD    25000000
    $t.28
    CLK_SetHCLK
        0x000004e8:    b5f8        ..      PUSH     {r3-r7,lr}
        0x000004ea:    4c0f        .L      LDR      r4,[pc,#60] ; [0x528] = 0x50000200
        0x000004ec:    68e6        .h      LDR      r6,[r4,#0xc]
        0x000004ee:    6822        "h      LDR      r2,[r4,#0]
        0x000004f0:    2504        .%      MOVS     r5,#4
        0x000004f2:    432a        *C      ORRS     r2,r2,r5
        0x000004f4:    6022        "`      STR      r2,[r4,#0]
        0x000004f6:    68e2        .h      LDR      r2,[r4,#0xc]
        0x000004f8:    06d2        ..      LSLS     r2,r2,#27
        0x000004fa:    d5fc        ..      BPL      0x4f6 ; CLK_SetHCLK + 14
        0x000004fc:    6922        "i      LDR      r2,[r4,#0x10]
        0x000004fe:    2307        .#      MOVS     r3,#7
        0x00000500:    431a        .C      ORRS     r2,r2,r3
        0x00000502:    6122        "a      STR      r2,[r4,#0x10]
        0x00000504:    69a2        .i      LDR      r2,[r4,#0x18]
        0x00000506:    270f        .'      MOVS     r7,#0xf
        0x00000508:    43ba        .C      BICS     r2,r2,r7
        0x0000050a:    430a        .C      ORRS     r2,r2,r1
        0x0000050c:    61a2        .a      STR      r2,[r4,#0x18]
        0x0000050e:    6921        !i      LDR      r1,[r4,#0x10]
        0x00000510:    4399        .C      BICS     r1,r1,r3
        0x00000512:    4301        .C      ORRS     r1,r1,r0
        0x00000514:    6121        !a      STR      r1,[r4,#0x10]
        0x00000516:    f000fa69    ..i.    BL       SystemCoreClockUpdate ; 0x9ec
        0x0000051a:    06f0        ..      LSLS     r0,r6,#27
        0x0000051c:    d402        ..      BMI      0x524 ; CLK_SetHCLK + 60
        0x0000051e:    6820         h      LDR      r0,[r4,#0]
        0x00000520:    43a8        .C      BICS     r0,r0,r5
        0x00000522:    6020         `      STR      r0,[r4,#0]
        0x00000524:    bdf8        ..      POP      {r3-r7,pc}
        0x00000526:    46c0        .F      MOV      r8,r8
    $d.29
    __arm_cp.14_0
        0x00000528:    50000200    ...P    DCD    1342177792
    $t.8
    CLK_SetModuleClock
        0x0000052c:    b570        p.      PUSH     {r4-r6,lr}
        0x0000052e:    0103        ..      LSLS     r3,r0,#4
        0x00000530:    0f5c        \.      LSRS     r4,r3,#29
        0x00000532:    d01b        ..      BEQ      0x56c ; CLK_SetModuleClock + 64
        0x00000534:    01c3        ..      LSLS     r3,r0,#7
        0x00000536:    0edb        ..      LSRS     r3,r3,#27
        0x00000538:    409c        .@      LSLS     r4,r4,r3
        0x0000053a:    0e83        ..      LSRS     r3,r0,#26
        0x0000053c:    250c        .%      MOVS     r5,#0xc
        0x0000053e:    401d        .@      ANDS     r5,r5,r3
        0x00000540:    a31b        ..      ADR      r3,{pc}+0x70 ; 0x5b0
        0x00000542:    595d        ]Y      LDR      r5,[r3,r5]
        0x00000544:    4b1e        .K      LDR      r3,[pc,#120] ; [0x5c0] = 0x50000210
        0x00000546:    58ee        .X      LDR      r6,[r5,r3]
        0x00000548:    43a6        .C      BICS     r6,r6,r4
        0x0000054a:    430e        .C      ORRS     r6,r6,r1
        0x0000054c:    50ee        .P      STR      r6,[r5,r3]
        0x0000054e:    4c1d        .L      LDR      r4,[pc,#116] ; [0x5c4] = 0x66600017
        0x00000550:    42a0        .B      CMP      r0,r4
        0x00000552:    d024        $.      BEQ      0x59e ; CLK_SetModuleClock + 114
        0x00000554:    4c1c        .L      LDR      r4,[pc,#112] ; [0x5c8] = 0x57e00015
        0x00000556:    42a0        .B      CMP      r0,r4
        0x00000558:    d01b        ..      BEQ      0x592 ; CLK_SetModuleClock + 102
        0x0000055a:    4c1c        .L      LDR      r4,[pc,#112] ; [0x5cc] = 0x66400016
        0x0000055c:    42a0        .B      CMP      r0,r4
        0x0000055e:    d01b        ..      BEQ      0x598 ; CLK_SetModuleClock + 108
        0x00000560:    4c1b        .L      LDR      r4,[pc,#108] ; [0x5d0] = 0x57c00014
        0x00000562:    42a0        .B      CMP      r0,r4
        0x00000564:    d102        ..      BNE      0x56c ; CLK_SetModuleClock + 64
        0x00000566:    2001        .       MOVS     r0,#1
        0x00000568:    0200        ..      LSLS     r0,r0,#8
        0x0000056a:    e01a        ..      B        0x5a2 ; CLK_SetModuleClock + 118
        0x0000056c:    0a81        ..      LSRS     r1,r0,#10
        0x0000056e:    b2c9        ..      UXTB     r1,r1
        0x00000570:    2900        .)      CMP      r1,#0
        0x00000572:    d00d        ..      BEQ      0x590 ; CLK_SetModuleClock + 100
        0x00000574:    0583        ..      LSLS     r3,r0,#22
        0x00000576:    0edb        ..      LSRS     r3,r3,#27
        0x00000578:    4099        .@      LSLS     r1,r1,r3
        0x0000057a:    0c00        ..      LSRS     r0,r0,#16
        0x0000057c:    230c        .#      MOVS     r3,#0xc
        0x0000057e:    4003        .@      ANDS     r3,r3,r0
        0x00000580:    a014        ..      ADR      r0,{pc}+0x54 ; 0x5d4
        0x00000582:    58c0        .X      LDR      r0,[r0,r3]
        0x00000584:    4b0e        .K      LDR      r3,[pc,#56] ; [0x5c0] = 0x50000210
        0x00000586:    18c0        ..      ADDS     r0,r0,r3
        0x00000588:    6883        .h      LDR      r3,[r0,#8]
        0x0000058a:    438b        .C      BICS     r3,r3,r1
        0x0000058c:    4313        .C      ORRS     r3,r3,r2
        0x0000058e:    6083        .`      STR      r3,[r0,#8]
        0x00000590:    bd70        p.      POP      {r4-r6,pc}
        0x00000592:    2001        .       MOVS     r0,#1
        0x00000594:    0240        @.      LSLS     r0,r0,#9
        0x00000596:    e004        ..      B        0x5a2 ; CLK_SetModuleClock + 118
        0x00000598:    2001        .       MOVS     r0,#1
        0x0000059a:    0280        ..      LSLS     r0,r0,#10
        0x0000059c:    e001        ..      B        0x5a2 ; CLK_SetModuleClock + 118
        0x0000059e:    2001        .       MOVS     r0,#1
        0x000005a0:    02c0        ..      LSLS     r0,r0,#11
        0x000005a2:    4001        .@      ANDS     r1,r1,r0
        0x000005a4:    68da        .h      LDR      r2,[r3,#0xc]
        0x000005a6:    4382        .C      BICS     r2,r2,r0
        0x000005a8:    1850        P.      ADDS     r0,r2,r1
        0x000005aa:    60d8        .`      STR      r0,[r3,#0xc]
        0x000005ac:    bd70        p.      POP      {r4-r6,pc}
        0x000005ae:    46c0        .F      MOV      r8,r8
    $d.9
        0x000005b0:    00000000    ....    DCD    0
        0x000005b4:    00000004    ....    DCD    4
        0x000005b8:    0000000c    ....    DCD    12
        0x000005bc:    00000024    $...    DCD    36
    __arm_cp.4_1
        0x000005c0:    50000210    ...P    DCD    1342177808
    __arm_cp.4_2
        0x000005c4:    66600017    ..`f    DCD    1717567511
    __arm_cp.4_3
        0x000005c8:    57e00015    ...W    DCD    1474297877
    __arm_cp.4_4
        0x000005cc:    66400016    ..@f    DCD    1715470358
    __arm_cp.4_5
        0x000005d0:    57c00014    ...W    DCD    1472200724
        0x000005d4:    00000000    ....    DCD    0
        0x000005d8:    00000020     ...    DCD    32
    $t.36
    CLK_WaitClockReady
        0x000005dc:    4905        .I      LDR      r1,[pc,#20] ; [0x5f4] = 0xffedb07f
        0x000005de:    4a06        .J      LDR      r2,[pc,#24] ; [0x5f8] = 0x5000020c
        0x000005e0:    6813        .h      LDR      r3,[r2,#0]
        0x000005e2:    4003        .@      ANDS     r3,r3,r0
        0x000005e4:    4283        .B      CMP      r3,r0
        0x000005e6:    d003        ..      BEQ      0x5f0 ; CLK_WaitClockReady + 20
        0x000005e8:    1c49        I.      ADDS     r1,r1,#1
        0x000005ea:    d3f9        ..      BCC      0x5e0 ; CLK_WaitClockReady + 4
        0x000005ec:    2000        .       MOVS     r0,#0
        0x000005ee:    4770        pG      BX       lr
        0x000005f0:    2001        .       MOVS     r0,#1
        0x000005f2:    4770        pG      BX       lr
    $d.37
    __arm_cp.18_0
        0x000005f4:    ffedb07f    ....    DCD    4293767295
    __arm_cp.18_1
        0x000005f8:    5000020c    ...P    DCD    1342177804
    $t.3
    EP3_Handler
        0x000005fc:    b510        ..      PUSH     {r4,lr}
        0x000005fe:    4c05        .L      LDR      r4,[pc,#20] ; [0x614] = 0x40060050
        0x00000600:    6820         h      LDR      r0,[r4,#0]
        0x00000602:    1900        ..      ADDS     r0,r0,r4
        0x00000604:    30b0        .0      ADDS     r0,r0,#0xb0
        0x00000606:    6861        ah      LDR      r1,[r4,#4]
        0x00000608:    f000f858    ..X.    BL       HID_GetOutReport ; 0x6bc
        0x0000060c:    2040        @       MOVS     r0,#0x40
        0x0000060e:    6060        ``      STR      r0,[r4,#4]
        0x00000610:    bd10        ..      POP      {r4,pc}
        0x00000612:    46c0        .F      MOV      r8,r8
    $d.4
    __arm_cp.2_0
        0x00000614:    40060050    P..@    DCD    1074135120
    $t.18
    FMC_Open
        0x00000618:    48eb        .H      LDR      r0,[pc,#940] ; [0x9c8] = 0x5000c000
        0x0000061a:    6801        .h      LDR      r1,[r0,#0]
        0x0000061c:    2201        ."      MOVS     r2,#1
        0x0000061e:    430a        .C      ORRS     r2,r2,r1
        0x00000620:    6002        .`      STR      r2,[r0,#0]
        0x00000622:    4770        pG      BX       lr
    FMC_Read
        0x00000624:    4924        $I      LDR      r1,[pc,#144] ; [0x6b8] = 0x5000c004
        0x00000626:    2200        ."      MOVS     r2,#0
        0x00000628:    608a        .`      STR      r2,[r1,#8]
        0x0000062a:    6008        .`      STR      r0,[r1,#0]
        0x0000062c:    2001        .       MOVS     r0,#1
        0x0000062e:    60c8        .`      STR      r0,[r1,#0xc]
        0x00000630:    f3bf8f6f    ..o.    ISB      
        0x00000634:    68c8        .h      LDR      r0,[r1,#0xc]
        0x00000636:    2800        .(      CMP      r0,#0
        0x00000638:    d1fc        ..      BNE      0x634 ; FMC_Read + 16
        0x0000063a:    6848        Hh      LDR      r0,[r1,#4]
        0x0000063c:    4770        pG      BX       lr
        0x0000063e:    46c0        .F      MOV      r8,r8
    FMC_ReadConfig
        0x00000640:    b570        p.      PUSH     {r4-r6,lr}
        0x00000642:    460c        .F      MOV      r4,r1
        0x00000644:    4605        .F      MOV      r5,r0
        0x00000646:    2003        .       MOVS     r0,#3
        0x00000648:    0506        ..      LSLS     r6,r0,#20
        0x0000064a:    2c00        .,      CMP      r4,#0
        0x0000064c:    d006        ..      BEQ      0x65c ; FMC_ReadConfig + 28
        0x0000064e:    4630        0F      MOV      r0,r6
        0x00000650:    f7ffffe8    ....    BL       FMC_Read ; 0x624
        0x00000654:    c501        ..      STM      r5!,{r0}
        0x00000656:    1d36        6.      ADDS     r6,r6,#4
        0x00000658:    1e64        d.      SUBS     r4,r4,#1
        0x0000065a:    e7f6        ..      B        0x64a ; FMC_ReadConfig + 10
        0x0000065c:    2000        .       MOVS     r0,#0
        0x0000065e:    bd70        p.      POP      {r4-r6,pc}
    FMC_ReadDataFlashBaseAddr
        0x00000660:    4801        .H      LDR      r0,[pc,#4] ; [0x668] = 0x5000c014
        0x00000662:    6800        .h      LDR      r0,[r0,#0]
        0x00000664:    4770        pG      BX       lr
        0x00000666:    46c0        .F      MOV      r8,r8
    $d.21
    __arm_cp.10_0
        0x00000668:    5000c014    ...P    DCD    1342226452
    $t.25
    FMC_WriteConfig
        0x0000066c:    b5fe        ..      PUSH     {r1-r7,lr}
        0x0000066e:    9102        ..      STR      r1,[sp,#8]
        0x00000670:    4606        .F      MOV      r6,r0
        0x00000672:    2400        .$      MOVS     r4,#0
        0x00000674:    4f10        .O      LDR      r7,[pc,#64] ; [0x6b8] = 0x5000c004
        0x00000676:    9401        ..      STR      r4,[sp,#4]
        0x00000678:    9802        ..      LDR      r0,[sp,#8]
        0x0000067a:    4284        .B      CMP      r4,r0
        0x0000067c:    d019        ..      BEQ      0x6b2 ; FMC_WriteConfig + 70
        0x0000067e:    00a1        ..      LSLS     r1,r4,#2
        0x00000680:    5872        rX      LDR      r2,[r6,r1]
        0x00000682:    2021        !       MOVS     r0,#0x21
        0x00000684:    60b8        .`      STR      r0,[r7,#8]
        0x00000686:    2003        .       MOVS     r0,#3
        0x00000688:    0500        ..      LSLS     r0,r0,#20
        0x0000068a:    1808        ..      ADDS     r0,r1,r0
        0x0000068c:    6038        8`      STR      r0,[r7,#0]
        0x0000068e:    607a        z`      STR      r2,[r7,#4]
        0x00000690:    2201        ."      MOVS     r2,#1
        0x00000692:    60fa        .`      STR      r2,[r7,#0xc]
        0x00000694:    1875        u.      ADDS     r5,r6,r1
        0x00000696:    f3bf8f6f    ..o.    ISB      
        0x0000069a:    68f9        .h      LDR      r1,[r7,#0xc]
        0x0000069c:    2900        .)      CMP      r1,#0
        0x0000069e:    d1fc        ..      BNE      0x69a ; FMC_WriteConfig + 46
        0x000006a0:    f7ffffc0    ....    BL       FMC_Read ; 0x624
        0x000006a4:    1c64        d.      ADDS     r4,r4,#1
        0x000006a6:    6829        )h      LDR      r1,[r5,#0]
        0x000006a8:    4288        .B      CMP      r0,r1
        0x000006aa:    d0e5        ..      BEQ      0x678 ; FMC_WriteConfig + 12
        0x000006ac:    2000        .       MOVS     r0,#0
        0x000006ae:    43c0        .C      MVNS     r0,r0
        0x000006b0:    bdfe        ..      POP      {r1-r7,pc}
        0x000006b2:    9801        ..      LDR      r0,[sp,#4]
        0x000006b4:    bdfe        ..      POP      {r1-r7,pc}
        0x000006b6:    46c0        .F      MOV      r8,r8
    $d.26
    __arm_cp.13_0
        0x000006b8:    5000c004    ...P    DCD    1342226436
    $t.1
    HID_GetOutReport
        0x000006bc:    4770        pG      BX       lr
    HID_SetInReport
        0x000006be:    4770        pG      BX       lr
    HardFault_Handler
        0x000006c0:    4806        .H      LDR      r0,[pc,#24] ; [0x6dc] = 0x6e1
        0x000006c2:    2004        .       MOVS     r0,#4
        0x000006c4:    4671        qF      MOV      r1,lr
        0x000006c6:    4208        .B      TST      r0,r1
        0x000006c8:    d003        ..      BEQ      0x6d2 ; HardFault_Handler + 18
        0x000006ca:    f3ef8009    ....    MRS      r0,PSP
        0x000006ce:    4671        qF      MOV      r1,lr
        0x000006d0:    e006        ..      B        Hard_Fault_Handler ; 0x6e0
        0x000006d2:    f3ef8008    ....    MRS      r0,MSP
        0x000006d6:    e003        ..      B        Hard_Fault_Handler ; 0x6e0
        0x000006d8:    e7fe        ..      B        0x6d8 ; HardFault_Handler + 24
        0x000006da:    46c0        .F      MOV      r8,r8
    $d.3
    __arm_cp.1_0
        0x000006dc:    000006e1    ....    DCD    1761
    $t.0
    Hard_Fault_Handler
        0x000006e0:    b5b0        ..      PUSH     {r4,r5,r7,lr}
        0x000006e2:    4604        .F      MOV      r4,r0
        0x000006e4:    a00f        ..      ADR      r0,{pc}+0x40 ; 0x724
        0x000006e6:    f000ffcd    ....    BL       puts ; 0x1684
        0x000006ea:    6821        !h      LDR      r1,[r4,#0]
        0x000006ec:    a013        ..      ADR      r0,{pc}+0x50 ; 0x73c
        0x000006ee:    4d16        .M      LDR      r5,[pc,#88] ; [0x748] = 0x11d1
        0x000006f0:    47a8        .G      BLX      r5
        0x000006f2:    6861        ah      LDR      r1,[r4,#4]
        0x000006f4:    a015        ..      ADR      r0,{pc}+0x58 ; 0x74c
        0x000006f6:    47a8        .G      BLX      r5
        0x000006f8:    68a1        .h      LDR      r1,[r4,#8]
        0x000006fa:    a017        ..      ADR      r0,{pc}+0x5e ; 0x758
        0x000006fc:    47a8        .G      BLX      r5
        0x000006fe:    68e1        .h      LDR      r1,[r4,#0xc]
        0x00000700:    a018        ..      ADR      r0,{pc}+0x64 ; 0x764
        0x00000702:    47a8        .G      BLX      r5
        0x00000704:    6921        !i      LDR      r1,[r4,#0x10]
        0x00000706:    a01a        ..      ADR      r0,{pc}+0x6a ; 0x770
        0x00000708:    47a8        .G      BLX      r5
        0x0000070a:    6961        ai      LDR      r1,[r4,#0x14]
        0x0000070c:    a01b        ..      ADR      r0,{pc}+0x70 ; 0x77c
        0x0000070e:    47a8        .G      BLX      r5
        0x00000710:    69a1        .i      LDR      r1,[r4,#0x18]
        0x00000712:    a01d        ..      ADR      r0,{pc}+0x76 ; 0x788
        0x00000714:    47a8        .G      BLX      r5
        0x00000716:    69e1        .i      LDR      r1,[r4,#0x1c]
        0x00000718:    a01e        ..      ADR      r0,{pc}+0x7c ; 0x794
        0x0000071a:    47a8        .G      BLX      r5
        0x0000071c:    48ab        .H      LDR      r0,[pc,#684] ; [0x9cc] = 0x50000008
        0x0000071e:    2101        .!      MOVS     r1,#1
        0x00000720:    6001        .`      STR      r1,[r0,#0]
        0x00000722:    bdb0        ..      POP      {r4,r5,r7,pc}
    $d.1
        0x00000724:    48206e49    In H    DCD    1210084937
        0x00000728:    20647261    ard     DCD    543453793
        0x0000072c:    6c756146    Faul    DCD    1819631942
        0x00000730:    61482074    t Ha    DCD    1632116852
        0x00000734:    656c646e    ndle    DCD    1701602414
        0x00000738:    00000072    r...    DCD    114
        0x0000073c:    20203072    r0      DCD    538980466
        0x00000740:    7830203d    = 0x    DCD    2016419901
        0x00000744:    000a7825    %x..    DCD    686117
    __arm_cp.0_2
        0x00000748:    000011d1    ....    DCD    4561
        0x0000074c:    20203172    r1      DCD    538980722
        0x00000750:    7830203d    = 0x    DCD    2016419901
        0x00000754:    000a7825    %x..    DCD    686117
        0x00000758:    20203272    r2      DCD    538980978
        0x0000075c:    7830203d    = 0x    DCD    2016419901
        0x00000760:    000a7825    %x..    DCD    686117
        0x00000764:    20203372    r3      DCD    538981234
        0x00000768:    7830203d    = 0x    DCD    2016419901
        0x0000076c:    000a7825    %x..    DCD    686117
        0x00000770:    20323172    r12     DCD    540160370
        0x00000774:    7830203d    = 0x    DCD    2016419901
        0x00000778:    000a7825    %x..    DCD    686117
        0x0000077c:    2020726c    lr      DCD    538997356
        0x00000780:    7830203d    = 0x    DCD    2016419901
        0x00000784:    000a7825    %x..    DCD    686117
        0x00000788:    20206370    pc      DCD    538993520
        0x0000078c:    7830203d    = 0x    DCD    2016419901
        0x00000790:    000a7825    %x..    DCD    686117
        0x00000794:    20727370    psr     DCD    544371568
        0x00000798:    7830203d    = 0x    DCD    2016419901
        0x0000079c:    000a7825    %x..    DCD    686117
    $t.0
    SB_SYS_Init
        0x000007a0:    b510        ..      PUSH     {r4,lr}
        0x000007a2:    4819        .H      LDR      r0,[pc,#100] ; [0x808] = 0x50000100
        0x000007a4:    6801        .h      LDR      r1,[r0,#0]
        0x000007a6:    2901        .)      CMP      r1,#1
        0x000007a8:    d006        ..      BEQ      0x7b8 ; SB_SYS_Init + 24
        0x000007aa:    2159        Y!      MOVS     r1,#0x59
        0x000007ac:    6001        .`      STR      r1,[r0,#0]
        0x000007ae:    2116        .!      MOVS     r1,#0x16
        0x000007b0:    6001        .`      STR      r1,[r0,#0]
        0x000007b2:    2188        .!      MOVS     r1,#0x88
        0x000007b4:    6001        .`      STR      r1,[r0,#0]
        0x000007b6:    e7f5        ..      B        0x7a4 ; SB_SYS_Init + 4
        0x000007b8:    200d        .       MOVS     r0,#0xd
        0x000007ba:    f7fffe59    ..Y.    BL       CLK_EnableXtalRC ; 0x470
        0x000007be:    2019        .       MOVS     r0,#0x19
        0x000007c0:    f7ffff0c    ....    BL       CLK_WaitClockReady ; 0x5dc
        0x000007c4:    f7fffd34    ..4.    BL       CLK_DisablePLL ; 0x230
        0x000007c8:    4810        .H      LDR      r0,[pc,#64] ; [0x80c] = 0x50000220
        0x000007ca:    6801        .h      LDR      r1,[r0,#0]
        0x000007cc:    4a10        .J      LDR      r2,[pc,#64] ; [0x810] = 0xfff00000
        0x000007ce:    400a        .@      ANDS     r2,r2,r1
        0x000007d0:    4910        .I      LDR      r1,[pc,#64] ; [0x814] = 0xc22e
        0x000007d2:    1851        Q.      ADDS     r1,r2,r1
        0x000007d4:    6001        .`      STR      r1,[r0,#0]
        0x000007d6:    2004        .       MOVS     r0,#4
        0x000007d8:    f7ffff00    ....    BL       CLK_WaitClockReady ; 0x5dc
        0x000007dc:    2007        .       MOVS     r0,#7
        0x000007de:    2400        .$      MOVS     r4,#0
        0x000007e0:    4621        !F      MOV      r1,r4
        0x000007e2:    f7fffe81    ....    BL       CLK_SetHCLK ; 0x4e8
        0x000007e6:    480c        .H      LDR      r0,[pc,#48] ; [0x818] = 0x2faf080
        0x000007e8:    f7fffe48    ..H.    BL       CLK_SetCoreClock ; 0x47c
        0x000007ec:    200c        .       MOVS     r0,#0xc
        0x000007ee:    4621        !F      MOV      r1,r4
        0x000007f0:    4622        "F      MOV      r2,r4
        0x000007f2:    f7fffd27    ..'.    BL       CLK_EnableCKO ; 0x244
        0x000007f6:    2002        .       MOVS     r0,#2
        0x000007f8:    f7fffd34    ..4.    BL       CLK_EnableModuleClock ; 0x264
        0x000007fc:    2038        8       MOVS     r0,#0x38
        0x000007fe:    4621        !F      MOV      r1,r4
        0x00000800:    f7fffe1c    ....    BL       CLK_EnableSysTick ; 0x43c
        0x00000804:    bd10        ..      POP      {r4,pc}
        0x00000806:    46c0        .F      MOV      r8,r8
    $d.1
    __arm_cp.0_0
        0x00000808:    50000100    ...P    DCD    1342177536
    __arm_cp.0_1
        0x0000080c:    50000220     ..P    DCD    1342177824
    __arm_cp.0_2
        0x00000810:    fff00000    ....    DCD    4293918720
    __arm_cp.0_3
        0x00000814:    0000c22e    ....    DCD    49710
    __arm_cp.0_4
        0x00000818:    02faf080    ....    DCD    50000000
    $t.0
    SB_Uart_Driver_Init
        0x0000081c:    b5f8        ..      PUSH     {r3-r7,lr}
        0x0000081e:    461f        .F      MOV      r7,r3
        0x00000820:    460d        .F      MOV      r5,r1
        0x00000822:    4604        .F      MOV      r4,r0
        0x00000824:    483c        <H      LDR      r0,[pc,#240] ; [0x918] = 0x40050000
        0x00000826:    4284        .B      CMP      r4,r0
        0x00000828:    d018        ..      BEQ      0x85c ; SB_Uart_Driver_Init + 64
        0x0000082a:    484f        OH      LDR      r0,[pc,#316] ; [0x968] = 0x40150000
        0x0000082c:    4284        .B      CMP      r4,r0
        0x0000082e:    d12a        *.      BNE      0x886 ; SB_Uart_Driver_Init + 106
        0x00000830:    9200        ..      STR      r2,[sp,#0]
        0x00000832:    483a        :H      LDR      r0,[pc,#232] ; [0x91c] = 0x50000034
        0x00000834:    6801        .h      LDR      r1,[r0,#0]
        0x00000836:    2230        0"      MOVS     r2,#0x30
        0x00000838:    4391        .C      BICS     r1,r1,r2
        0x0000083a:    6001        .`      STR      r1,[r0,#0]
        0x0000083c:    6801        .h      LDR      r1,[r0,#0]
        0x0000083e:    4311        .C      ORRS     r1,r1,r2
        0x00000840:    6001        .`      STR      r1,[r0,#0]
        0x00000842:    4837        7H      LDR      r0,[pc,#220] ; [0x920] = 0x57803d10
        0x00000844:    1c46        F.      ADDS     r6,r0,#1
        0x00000846:    4630        0F      MOV      r0,r6
        0x00000848:    f7fffd0c    ....    BL       CLK_EnableModuleClock ; 0x264
        0x0000084c:    2100        .!      MOVS     r1,#0
        0x0000084e:    4630        0F      MOV      r0,r6
        0x00000850:    460a        .F      MOV      r2,r1
        0x00000852:    f7fffe6b    ..k.    BL       CLK_SetModuleClock ; 0x52c
        0x00000856:    4833        3H      LDR      r0,[pc,#204] ; [0x924] = 0x4000010
        0x00000858:    1c40        @.      ADDS     r0,r0,#1
        0x0000085a:    e011        ..      B        0x880 ; SB_Uart_Driver_Init + 100
        0x0000085c:    9200        ..      STR      r2,[sp,#0]
        0x0000085e:    482f        /H      LDR      r0,[pc,#188] ; [0x91c] = 0x50000034
        0x00000860:    6801        .h      LDR      r1,[r0,#0]
        0x00000862:    2603        .&      MOVS     r6,#3
        0x00000864:    43b1        .C      BICS     r1,r1,r6
        0x00000866:    6001        .`      STR      r1,[r0,#0]
        0x00000868:    6801        .h      LDR      r1,[r0,#0]
        0x0000086a:    4331        1C      ORRS     r1,r1,r6
        0x0000086c:    6001        .`      STR      r1,[r0,#0]
        0x0000086e:    482c        ,H      LDR      r0,[pc,#176] ; [0x920] = 0x57803d10
        0x00000870:    f7fffcf8    ....    BL       CLK_EnableModuleClock ; 0x264
        0x00000874:    0631        1.      LSLS     r1,r6,#24
        0x00000876:    2200        ."      MOVS     r2,#0
        0x00000878:    4829        )H      LDR      r0,[pc,#164] ; [0x920] = 0x57803d10
        0x0000087a:    f7fffe57    ..W.    BL       CLK_SetModuleClock ; 0x52c
        0x0000087e:    4829        )H      LDR      r0,[pc,#164] ; [0x924] = 0x4000010
        0x00000880:    f000f852    ..R.    BL       SYS_ResetModule ; 0x928
        0x00000884:    9a00        ..      LDR      r2,[sp,#0]
        0x00000886:    68a0        .h      LDR      r0,[r4,#8]
        0x00000888:    2104        .!      MOVS     r1,#4
        0x0000088a:    4301        .C      ORRS     r1,r1,r0
        0x0000088c:    60a1        .`      STR      r1,[r4,#8]
        0x0000088e:    68a1        .h      LDR      r1,[r4,#8]
        0x00000890:    2002        .       MOVS     r0,#2
        0x00000892:    4301        .C      ORRS     r1,r1,r0
        0x00000894:    60a1        .`      STR      r1,[r4,#8]
        0x00000896:    2f02        ./      CMP      r7,#2
        0x00000898:    d00d        ..      BEQ      0x8b6 ; SB_Uart_Driver_Init + 154
        0x0000089a:    2f01        ./      CMP      r7,#1
        0x0000089c:    d003        ..      BEQ      0x8a6 ; SB_Uart_Driver_Init + 138
        0x0000089e:    2f00        ./      CMP      r7,#0
        0x000008a0:    d111        ..      BNE      0x8c6 ; SB_Uart_Driver_Init + 170
        0x000008a2:    68e1        .h      LDR      r1,[r4,#0xc]
        0x000008a4:    e005        ..      B        0x8b2 ; SB_Uart_Driver_Init + 150
        0x000008a6:    68e1        .h      LDR      r1,[r4,#0xc]
        0x000008a8:    2318        .#      MOVS     r3,#0x18
        0x000008aa:    4399        .C      BICS     r1,r1,r3
        0x000008ac:    60e1        .`      STR      r1,[r4,#0xc]
        0x000008ae:    68e1        .h      LDR      r1,[r4,#0xc]
        0x000008b0:    4319        .C      ORRS     r1,r1,r3
        0x000008b2:    60e1        .`      STR      r1,[r4,#0xc]
        0x000008b4:    e007        ..      B        0x8c6 ; SB_Uart_Driver_Init + 170
        0x000008b6:    68e1        .h      LDR      r1,[r4,#0xc]
        0x000008b8:    2318        .#      MOVS     r3,#0x18
        0x000008ba:    4399        .C      BICS     r1,r1,r3
        0x000008bc:    60e1        .`      STR      r1,[r4,#0xc]
        0x000008be:    68e1        .h      LDR      r1,[r4,#0xc]
        0x000008c0:    2308        .#      MOVS     r3,#8
        0x000008c2:    430b        .C      ORRS     r3,r3,r1
        0x000008c4:    60e3        .`      STR      r3,[r4,#0xc]
        0x000008c6:    1f51        Q.      SUBS     r1,r2,#5
        0x000008c8:    2903        .)      CMP      r1,#3
        0x000008ca:    d817        ..      BHI      0x8fc ; SB_Uart_Driver_Init + 224
        0x000008cc:    0089        ..      LSLS     r1,r1,#2
        0x000008ce:    a201        ..      ADR      r2,{pc}+6 ; 0x8d4
        0x000008d0:    5851        QX      LDR      r1,[r2,r1]
        0x000008d2:    468f        .F      MOV      pc,r1
    $d.1
        0x000008d4:    000008e5    ....    DCD    2277
        0x000008d8:    000008f5    ....    DCD    2293
        0x000008dc:    000008eb    ....    DCD    2283
        0x000008e0:    000008ef    ....    DCD    2287
    $t.2
        0x000008e4:    68e0        .h      LDR      r0,[r4,#0xc]
        0x000008e6:    60e0        .`      STR      r0,[r4,#0xc]
        0x000008e8:    e008        ..      B        0x8fc ; SB_Uart_Driver_Init + 224
        0x000008ea:    68e1        .h      LDR      r1,[r4,#0xc]
        0x000008ec:    e004        ..      B        0x8f8 ; SB_Uart_Driver_Init + 220
        0x000008ee:    68e0        .h      LDR      r0,[r4,#0xc]
        0x000008f0:    2103        .!      MOVS     r1,#3
        0x000008f2:    e001        ..      B        0x8f8 ; SB_Uart_Driver_Init + 220
        0x000008f4:    68e0        .h      LDR      r0,[r4,#0xc]
        0x000008f6:    2101        .!      MOVS     r1,#1
        0x000008f8:    4301        .C      ORRS     r1,r1,r0
        0x000008fa:    60e1        .`      STR      r1,[r4,#0xc]
        0x000008fc:    68e0        .h      LDR      r0,[r4,#0xc]
        0x000008fe:    60e0        .`      STR      r0,[r4,#0xc]
        0x00000900:    0868        h.      LSRS     r0,r5,#1
        0x00000902:    4959        YI      LDR      r1,[pc,#356] ; [0xa68] = 0xb71b00
        0x00000904:    1840        @.      ADDS     r0,r0,r1
        0x00000906:    4629        )F      MOV      r1,r5
        0x00000908:    f7fffc0a    ....    BL       __aeabi_uidiv ; 0x120
        0x0000090c:    1e80        ..      SUBS     r0,r0,#2
        0x0000090e:    2103        .!      MOVS     r1,#3
        0x00000910:    0709        ..      LSLS     r1,r1,#28
        0x00000912:    4301        .C      ORRS     r1,r1,r0
        0x00000914:    6261        ab      STR      r1,[r4,#0x24]
        0x00000916:    bdf8        ..      POP      {r3-r7,pc}
    $d.3
    __arm_cp.0_0
        0x00000918:    40050000    ...@    DCD    1074069504
    __arm_cp.0_2
        0x0000091c:    50000034    4..P    DCD    1342177332
    __arm_cp.0_3
        0x00000920:    57803d10    .=.W    DCD    1468022032
    __arm_cp.0_4
        0x00000924:    04000010    ....    DCD    67108880
    $t.13
    SYS_ResetModule
        0x00000928:    b510        ..      PUSH     {r4,lr}
        0x0000092a:    0e01        ..      LSRS     r1,r0,#24
        0x0000092c:    4a27        'J      LDR      r2,[pc,#156] ; [0x9cc] = 0x50000008
        0x0000092e:    588b        .X      LDR      r3,[r1,r2]
        0x00000930:    24ff        .$      MOVS     r4,#0xff
        0x00000932:    0624        $.      LSLS     r4,r4,#24
        0x00000934:    43a0        .C      BICS     r0,r0,r4
        0x00000936:    2401        .$      MOVS     r4,#1
        0x00000938:    4084        .@      LSLS     r4,r4,r0
        0x0000093a:    4323        #C      ORRS     r3,r3,r4
        0x0000093c:    508b        .P      STR      r3,[r1,r2]
        0x0000093e:    5888        .X      LDR      r0,[r1,r2]
        0x00000940:    43a0        .C      BICS     r0,r0,r4
        0x00000942:    5088        .P      STR      r0,[r1,r2]
        0x00000944:    bd10        ..      POP      {r4,pc}
        0x00000946:    46c0        .F      MOV      r8,r8
    SendChar_ToUART
        0x00000948:    2101        .!      MOVS     r1,#1
        0x0000094a:    05ca        ..      LSLS     r2,r1,#23
        0x0000094c:    4906        .I      LDR      r1,[pc,#24] ; [0x968] = 0x40150000
        0x0000094e:    698b        .i      LDR      r3,[r1,#0x18]
        0x00000950:    4213        .B      TST      r3,r2
        0x00000952:    d1fc        ..      BNE      0x94e ; SendChar_ToUART + 6
        0x00000954:    280a        .(      CMP      r0,#0xa
        0x00000956:    d104        ..      BNE      0x962 ; SendChar_ToUART + 26
        0x00000958:    230d        .#      MOVS     r3,#0xd
        0x0000095a:    600b        .`      STR      r3,[r1,#0]
        0x0000095c:    698b        .i      LDR      r3,[r1,#0x18]
        0x0000095e:    4213        .B      TST      r3,r2
        0x00000960:    d1fc        ..      BNE      0x95c ; SendChar_ToUART + 20
        0x00000962:    6008        .`      STR      r0,[r1,#0]
        0x00000964:    4770        pG      BX       lr
        0x00000966:    46c0        .F      MOV      r8,r8
    $d.5
    __arm_cp.2_0
        0x00000968:    40150000    ...@    DCD    1075118080
    $t.7
    SetDataFlashBase
        0x0000096c:    b51c        ..      PUSH     {r2-r4,lr}
        0x0000096e:    4604        .F      MOV      r4,r0
        0x00000970:    4668        hF      MOV      r0,sp
        0x00000972:    2102        .!      MOVS     r1,#2
        0x00000974:    f7fffe64    ..d.    BL       FMC_ReadConfig ; 0x640
        0x00000978:    2800        .(      CMP      r0,#0
        0x0000097a:    d408        ..      BMI      0x98e ; SetDataFlashBase + 34
        0x0000097c:    4668        hF      MOV      r0,sp
        0x0000097e:    7800        .x      LDRB     r0,[r0,#0]
        0x00000980:    07c0        ..      LSLS     r0,r0,#31
        0x00000982:    d109        ..      BNE      0x998 ; SetDataFlashBase + 44
        0x00000984:    9801        ..      LDR      r0,[sp,#4]
        0x00000986:    42a0        .B      CMP      r0,r4
        0x00000988:    d106        ..      BNE      0x998 ; SetDataFlashBase + 44
        0x0000098a:    2000        .       MOVS     r0,#0
        0x0000098c:    bd1c        ..      POP      {r2-r4,pc}
        0x0000098e:    a010        ..      ADR      r0,{pc}+0x42 ; 0x9d0
        0x00000990:    f000fe78    ..x.    BL       puts ; 0x1684
        0x00000994:    2000        .       MOVS     r0,#0
        0x00000996:    e014        ..      B        0x9c2 ; SetDataFlashBase + 86
        0x00000998:    480b        .H      LDR      r0,[pc,#44] ; [0x9c8] = 0x5000c000
        0x0000099a:    6801        .h      LDR      r1,[r0,#0]
        0x0000099c:    2210        ."      MOVS     r2,#0x10
        0x0000099e:    430a        .C      ORRS     r2,r2,r1
        0x000009a0:    6002        .`      STR      r2,[r0,#0]
        0x000009a2:    9401        ..      STR      r4,[sp,#4]
        0x000009a4:    2401        .$      MOVS     r4,#1
        0x000009a6:    9800        ..      LDR      r0,[sp,#0]
        0x000009a8:    43a0        .C      BICS     r0,r0,r4
        0x000009aa:    9000        ..      STR      r0,[sp,#0]
        0x000009ac:    4668        hF      MOV      r0,sp
        0x000009ae:    2102        .!      MOVS     r1,#2
        0x000009b0:    f7fffe5c    ..\.    BL       FMC_WriteConfig ; 0x66c
        0x000009b4:    4601        .F      MOV      r1,r0
        0x000009b6:    2000        .       MOVS     r0,#0
        0x000009b8:    2900        .)      CMP      r1,#0
        0x000009ba:    d402        ..      BMI      0x9c2 ; SetDataFlashBase + 86
        0x000009bc:    4903        .I      LDR      r1,[pc,#12] ; [0x9cc] = 0x50000008
        0x000009be:    600c        .`      STR      r4,[r1,#0]
        0x000009c0:    bd1c        ..      POP      {r2-r4,pc}
        0x000009c2:    43c0        .C      MVNS     r0,r0
        0x000009c4:    bd1c        ..      POP      {r2-r4,pc}
        0x000009c6:    46c0        .F      MOV      r8,r8
    $d.8
    __arm_cp.4_0
        0x000009c8:    5000c000    ...P    DCD    1342226432
    __arm_cp.4_1
        0x000009cc:    50000008    ...P    DCD    1342177288
        0x000009d0:    6165520a    .Rea    DCD    1634030090
        0x000009d4:    73552064    d Us    DCD    1934958692
        0x000009d8:    43207265    er C    DCD    1126199909
        0x000009dc:    69666e6f    onfi    DCD    1768320623
        0x000009e0:    61662067    g fa    DCD    1634082919
        0x000009e4:    64656c69    iled    DCD    1684368489
        0x000009e8:    00000021    !...    DCD    33
    $t.0
    SystemCoreClockUpdate
        0x000009ec:    b5b0        ..      PUSH     {r4,r5,r7,lr}
        0x000009ee:    4c1d        .L      LDR      r4,[pc,#116] ; [0xa64] = 0x50000210
        0x000009f0:    6921        !i      LDR      r1,[r4,#0x10]
        0x000009f2:    2005        .       MOVS     r0,#5
        0x000009f4:    0400        ..      LSLS     r0,r0,#16
        0x000009f6:    4201        .B      TST      r1,r0
        0x000009f8:    d001        ..      BEQ      0x9fe ; SystemCoreClockUpdate + 18
        0x000009fa:    2000        .       MOVS     r0,#0
        0x000009fc:    e016        ..      B        0xa2c ; SystemCoreClockUpdate + 64
        0x000009fe:    0308        ..      LSLS     r0,r1,#12
        0x00000a00:    d501        ..      BPL      0xa06 ; SystemCoreClockUpdate + 26
        0x00000a02:    481a        .H      LDR      r0,[pc,#104] ; [0xa6c] = 0x1518000
        0x00000a04:    e000        ..      B        0xa08 ; SystemCoreClockUpdate + 28
        0x00000a06:    4818        .H      LDR      r0,[pc,#96] ; [0xa68] = 0xb71b00
        0x00000a08:    038a        ..      LSLS     r2,r1,#14
        0x00000a0a:    d40f        ..      BMI      0xa2c ; SystemCoreClockUpdate + 64
        0x00000a0c:    4a18        .J      LDR      r2,[pc,#96] ; [0xa70] = 0x1ff
        0x00000a0e:    400a        .@      ANDS     r2,r2,r1
        0x00000a10:    1c92        ..      ADDS     r2,r2,#2
        0x00000a12:    0880        ..      LSRS     r0,r0,#2
        0x00000a14:    4350        PC      MULS     r0,r2,r0
        0x00000a16:    040a        ..      LSLS     r2,r1,#16
        0x00000a18:    0f92        ..      LSRS     r2,r2,#30
        0x00000a1a:    a316        ..      ADR      r3,{pc}+0x5a ; 0xa74
        0x00000a1c:    5c9a        .\      LDRB     r2,[r3,r2]
        0x00000a1e:    0489        ..      LSLS     r1,r1,#18
        0x00000a20:    0ec9        ..      LSRS     r1,r1,#27
        0x00000a22:    1c89        ..      ADDS     r1,r1,#2
        0x00000a24:    4351        QC      MULS     r1,r2,r1
        0x00000a26:    f7fffb7b    ..{.    BL       __aeabi_uidiv ; 0x120
        0x00000a2a:    0080        ..      LSLS     r0,r0,#2
        0x00000a2c:    4d12        .M      LDR      r5,[pc,#72] ; [0xa78] = 0x20000000
        0x00000a2e:    60a8        .`      STR      r0,[r5,#8]
        0x00000a30:    6821        !h      LDR      r1,[r4,#0]
        0x00000a32:    2007        .       MOVS     r0,#7
        0x00000a34:    4008        .@      ANDS     r0,r0,r1
        0x00000a36:    2802        .(      CMP      r0,#2
        0x00000a38:    d003        ..      BEQ      0xa42 ; SystemCoreClockUpdate + 86
        0x00000a3a:    0080        ..      LSLS     r0,r0,#2
        0x00000a3c:    1828        (.      ADDS     r0,r5,r0
        0x00000a3e:    300c        .0      ADDS     r0,r0,#0xc
        0x00000a40:    e001        ..      B        0xa46 ; SystemCoreClockUpdate + 90
        0x00000a42:    4628        (F      MOV      r0,r5
        0x00000a44:    3008        .0      ADDS     r0,r0,#8
        0x00000a46:    6800        .h      LDR      r0,[r0,#0]
        0x00000a48:    68a1        .h      LDR      r1,[r4,#8]
        0x00000a4a:    220f        ."      MOVS     r2,#0xf
        0x00000a4c:    400a        .@      ANDS     r2,r2,r1
        0x00000a4e:    1c51        Q.      ADDS     r1,r2,#1
        0x00000a50:    f7fffb66    ..f.    BL       __aeabi_uidiv ; 0x120
        0x00000a54:    6028        (`      STR      r0,[r5,#0]
        0x00000a56:    4909        .I      LDR      r1,[pc,#36] ; [0xa7c] = 0x7a120
        0x00000a58:    1840        @.      ADDS     r0,r0,r1
        0x00000a5a:    4909        .I      LDR      r1,[pc,#36] ; [0xa80] = 0xf4240
        0x00000a5c:    f7fffb60    ..`.    BL       __aeabi_uidiv ; 0x120
        0x00000a60:    6068        h`      STR      r0,[r5,#4]
        0x00000a62:    bdb0        ..      POP      {r4,r5,r7,pc}
    $d.1
    __arm_cp.0_0
        0x00000a64:    50000210    ...P    DCD    1342177808
    __arm_cp.0_1
        0x00000a68:    00b71b00    ....    DCD    12000000
    __arm_cp.0_2
        0x00000a6c:    01518000    ..Q.    DCD    22118400
    __arm_cp.0_3
        0x00000a70:    000001ff    ....    DCD    511
        0x00000a74:    04020201    ....    DCD    67240449
    __arm_cp.0_5
        0x00000a78:    20000000    ...     DCD    536870912
    __arm_cp.0_6
        0x00000a7c:    0007a120     ...    DCD    500000
    __arm_cp.0_7
        0x00000a80:    000f4240    @B..    DCD    1000000
    $t.2
    SystemInit
        0x00000a84:    4770        pG      BX       lr
        0x00000a86:    0000        ..      MOVS     r0,r0
    TMR0_IRQHandler
        0x00000a88:    4805        .H      LDR      r0,[pc,#20] ; [0xaa0] = 0x40010008
        0x00000a8a:    6801        .h      LDR      r1,[r0,#0]
        0x00000a8c:    07c9        ..      LSLS     r1,r1,#31
        0x00000a8e:    d005        ..      BEQ      0xa9c ; TMR0_IRQHandler + 20
        0x00000a90:    2101        .!      MOVS     r1,#1
        0x00000a92:    6001        .`      STR      r1,[r0,#0]
        0x00000a94:    4803        .H      LDR      r0,[pc,#12] ; [0xaa4] = 0x20000086
        0x00000a96:    8801        ..      LDRH     r1,[r0,#0]
        0x00000a98:    1c49        I.      ADDS     r1,r1,#1
        0x00000a9a:    8001        ..      STRH     r1,[r0,#0]
        0x00000a9c:    4770        pG      BX       lr
        0x00000a9e:    46c0        .F      MOV      r8,r8
    $d.1
    __arm_cp.0_0
        0x00000aa0:    40010008    ...@    DCD    1073807368
    __arm_cp.0_1
        0x00000aa4:    20000086    ...     DCD    536871046
    $t.2
    TMR1_IRQHandler
        0x00000aa8:    4805        .H      LDR      r0,[pc,#20] ; [0xac0] = 0x40010028
        0x00000aaa:    6801        .h      LDR      r1,[r0,#0]
        0x00000aac:    07c9        ..      LSLS     r1,r1,#31
        0x00000aae:    d005        ..      BEQ      0xabc ; TMR1_IRQHandler + 20
        0x00000ab0:    2101        .!      MOVS     r1,#1
        0x00000ab2:    6001        .`      STR      r1,[r0,#0]
        0x00000ab4:    4803        .H      LDR      r0,[pc,#12] ; [0xac4] = 0x20000088
        0x00000ab6:    8801        ..      LDRH     r1,[r0,#0]
        0x00000ab8:    1c49        I.      ADDS     r1,r1,#1
        0x00000aba:    8001        ..      STRH     r1,[r0,#0]
        0x00000abc:    4770        pG      BX       lr
        0x00000abe:    46c0        .F      MOV      r8,r8
    $d.3
    __arm_cp.1_0
        0x00000ac0:    40010028    (..@    DCD    1073807400
    __arm_cp.1_1
        0x00000ac4:    20000088    ...     DCD    536871048
    $t.4
    TMR2_IRQHandler
        0x00000ac8:    4802        .H      LDR      r0,[pc,#8] ; [0xad4] = 0x2000008a
        0x00000aca:    8801        ..      LDRH     r1,[r0,#0]
        0x00000acc:    1c49        I.      ADDS     r1,r1,#1
        0x00000ace:    8001        ..      STRH     r1,[r0,#0]
        0x00000ad0:    4770        pG      BX       lr
        0x00000ad2:    46c0        .F      MOV      r8,r8
    $d.5
    __arm_cp.2_0
        0x00000ad4:    2000008a    ...     DCD    536871050
    $t.6
    TMR3_IRQHandler
        0x00000ad8:    4805        .H      LDR      r0,[pc,#20] ; [0xaf0] = 0x40110028
        0x00000ada:    6801        .h      LDR      r1,[r0,#0]
        0x00000adc:    07c9        ..      LSLS     r1,r1,#31
        0x00000ade:    d005        ..      BEQ      0xaec ; TMR3_IRQHandler + 20
        0x00000ae0:    2101        .!      MOVS     r1,#1
        0x00000ae2:    6001        .`      STR      r1,[r0,#0]
        0x00000ae4:    4803        .H      LDR      r0,[pc,#12] ; [0xaf4] = 0x2000008c
        0x00000ae6:    8801        ..      LDRH     r1,[r0,#0]
        0x00000ae8:    1c49        I.      ADDS     r1,r1,#1
        0x00000aea:    8001        ..      STRH     r1,[r0,#0]
        0x00000aec:    4770        pG      BX       lr
        0x00000aee:    46c0        .F      MOV      r8,r8
    $d.7
    __arm_cp.3_0
        0x00000af0:    40110028    (..@    DCD    1074855976
    __arm_cp.3_1
        0x00000af4:    2000008c    ...     DCD    536871052
    $t.21
    USBD_CtrlIn
        0x00000af8:    b570        p.      PUSH     {r4-r6,lr}
        0x00000afa:    4cd5        .L      LDR      r4,[pc,#852] ; [0xe50] = 0x20000038
        0x00000afc:    6a60        `j      LDR      r0,[r4,#0x24]
        0x00000afe:    4d1d        .M      LDR      r5,[pc,#116] ; [0xb74] = 0x40060008
        0x00000b00:    2800        .(      CMP      r0,#0
        0x00000b02:    d015        ..      BEQ      0xb30 ; USBD_CtrlIn + 56
        0x00000b04:    6a62        bj      LDR      r2,[r4,#0x24]
        0x00000b06:    4ebc        .N      LDR      r6,[pc,#752] ; [0xdf8] = 0x2000002c
        0x00000b08:    6833        3h      LDR      r3,[r6,#0]
        0x00000b0a:    69a8        .i      LDR      r0,[r5,#0x18]
        0x00000b0c:    1828        (.      ADDS     r0,r5,r0
        0x00000b0e:    30f8        .0      ADDS     r0,r0,#0xf8
        0x00000b10:    6a21        !j      LDR      r1,[r4,#0x20]
        0x00000b12:    429a        .B      CMP      r2,r3
        0x00000b14:    d925        %.      BLS      0xb62 ; USBD_CtrlIn + 106
        0x00000b16:    6832        2h      LDR      r2,[r6,#0]
        0x00000b18:    f000f938    ..8.    BL       USBD_MemCopy ; 0xd8c
        0x00000b1c:    6830        0h      LDR      r0,[r6,#0]
        0x00000b1e:    61e8        .a      STR      r0,[r5,#0x1c]
        0x00000b20:    6a20         j      LDR      r0,[r4,#0x20]
        0x00000b22:    6831        1h      LDR      r1,[r6,#0]
        0x00000b24:    1840        @.      ADDS     r0,r0,r1
        0x00000b26:    6220         b      STR      r0,[r4,#0x20]
        0x00000b28:    6830        0h      LDR      r0,[r6,#0]
        0x00000b2a:    6a61        aj      LDR      r1,[r4,#0x24]
        0x00000b2c:    1a08        ..      SUBS     r0,r1,r0
        0x00000b2e:    e01f        ..      B        0xb70 ; USBD_CtrlIn + 120
        0x00000b30:    2040        @       MOVS     r0,#0x40
        0x00000b32:    5c20         \      LDRB     r0,[r4,r0]
        0x00000b34:    2800        .(      CMP      r0,#0
        0x00000b36:    d10d        ..      BNE      0xb54 ; USBD_CtrlIn + 92
        0x00000b38:    4620         F      MOV      r0,r4
        0x00000b3a:    3040        @0      ADDS     r0,r0,#0x40
        0x00000b3c:    7840        @x      LDRB     r0,[r0,#1]
        0x00000b3e:    2805        .(      CMP      r0,#5
        0x00000b40:    d108        ..      BNE      0xb54 ; USBD_CtrlIn + 92
        0x00000b42:    6828        (h      LDR      r0,[r5,#0]
        0x00000b44:    6b21        !k      LDR      r1,[r4,#0x30]
        0x00000b46:    4288        .B      CMP      r0,r1
        0x00000b48:    d004        ..      BEQ      0xb54 ; USBD_CtrlIn + 92
        0x00000b4a:    6828        (h      LDR      r0,[r5,#0]
        0x00000b4c:    2800        .(      CMP      r0,#0
        0x00000b4e:    d101        ..      BNE      0xb54 ; USBD_CtrlIn + 92
        0x00000b50:    6b20         k      LDR      r0,[r4,#0x30]
        0x00000b52:    6028        (`      STR      r0,[r5,#0]
        0x00000b54:    7860        `x      LDRB     r0,[r4,#1]
        0x00000b56:    2800        .(      CMP      r0,#0
        0x00000b58:    d002        ..      BEQ      0xb60 ; USBD_CtrlIn + 104
        0x00000b5a:    2000        .       MOVS     r0,#0
        0x00000b5c:    61e8        .a      STR      r0,[r5,#0x1c]
        0x00000b5e:    7060        `p      STRB     r0,[r4,#1]
        0x00000b60:    bd70        p.      POP      {r4-r6,pc}
        0x00000b62:    6a62        bj      LDR      r2,[r4,#0x24]
        0x00000b64:    f000f912    ....    BL       USBD_MemCopy ; 0xd8c
        0x00000b68:    6a60        `j      LDR      r0,[r4,#0x24]
        0x00000b6a:    61e8        .a      STR      r0,[r5,#0x1c]
        0x00000b6c:    2000        .       MOVS     r0,#0
        0x00000b6e:    6220         b      STR      r0,[r4,#0x20]
        0x00000b70:    6260        `b      STR      r0,[r4,#0x24]
        0x00000b72:    bd70        p.      POP      {r4-r6,pc}
    $d.22
    __arm_cp.9_1
        0x00000b74:    40060008    ...@    DCD    1074135048
    $t.23
    USBD_CtrlOut
        0x00000b78:    b570        p.      PUSH     {r4-r6,lr}
        0x00000b7a:    4eb5        .N      LDR      r6,[pc,#724] ; [0xe50] = 0x20000038
        0x00000b7c:    69f1        .i      LDR      r1,[r6,#0x1c]
        0x00000b7e:    2007        .       MOVS     r0,#7
        0x00000b80:    02c0        ..      LSLS     r0,r0,#11
        0x00000b82:    4d11        .M      LDR      r5,[pc,#68] ; [0xbc8] = 0x4006000c
        0x00000b84:    682a        *h      LDR      r2,[r5,#0]
        0x00000b86:    4002        .@      ANDS     r2,r2,r0
        0x00000b88:    4291        .B      CMP      r1,r2
        0x00000b8a:    d103        ..      BNE      0xb94 ; USBD_CtrlOut + 28
        0x00000b8c:    489a        .H      LDR      r0,[pc,#616] ; [0xdf8] = 0x2000002c
        0x00000b8e:    6800        .h      LDR      r0,[r0,#0]
        0x00000b90:    62a8        .b      STR      r0,[r5,#0x28]
        0x00000b92:    bd70        p.      POP      {r4-r6,pc}
        0x00000b94:    6829        )h      LDR      r1,[r5,#0]
        0x00000b96:    4001        .@      ANDS     r1,r1,r0
        0x00000b98:    61f1        .a      STR      r1,[r6,#0x1c]
        0x00000b9a:    6bb0        .k      LDR      r0,[r6,#0x38]
        0x00000b9c:    6bf1        .k      LDR      r1,[r6,#0x3c]
        0x00000b9e:    4288        .B      CMP      r0,r1
        0x00000ba0:    d211        ..      BCS      0xbc6 ; USBD_CtrlOut + 78
        0x00000ba2:    6aac        .j      LDR      r4,[r5,#0x28]
        0x00000ba4:    6a68        hj      LDR      r0,[r5,#0x24]
        0x00000ba6:    1829        ).      ADDS     r1,r5,r0
        0x00000ba8:    31f4        .1      ADDS     r1,r1,#0xf4
        0x00000baa:    6b70        pk      LDR      r0,[r6,#0x34]
        0x00000bac:    4622        "F      MOV      r2,r4
        0x00000bae:    f000f8ed    ....    BL       USBD_MemCopy ; 0xd8c
        0x00000bb2:    6bb0        .k      LDR      r0,[r6,#0x38]
        0x00000bb4:    1900        ..      ADDS     r0,r0,r4
        0x00000bb6:    63b0        .c      STR      r0,[r6,#0x38]
        0x00000bb8:    6b70        pk      LDR      r0,[r6,#0x34]
        0x00000bba:    1900        ..      ADDS     r0,r0,r4
        0x00000bbc:    6370        pc      STR      r0,[r6,#0x34]
        0x00000bbe:    6bb0        .k      LDR      r0,[r6,#0x38]
        0x00000bc0:    6bf1        .k      LDR      r1,[r6,#0x3c]
        0x00000bc2:    4288        .B      CMP      r0,r1
        0x00000bc4:    d3e2        ..      BCC      0xb8c ; USBD_CtrlOut + 20
        0x00000bc6:    bd70        p.      POP      {r4-r6,pc}
    $d.24
    __arm_cp.10_1
        0x00000bc8:    4006000c    ...@    DCD    1074135052
    $t.15
    USBD_GetDescriptor
        0x00000bcc:    b5f8        ..      PUSH     {r3-r7,lr}
        0x00000bce:    4ea0        .N      LDR      r6,[pc,#640] ; [0xe50] = 0x20000038
        0x00000bd0:    2700        .'      MOVS     r7,#0
        0x00000bd2:    7077        wp      STRB     r7,[r6,#1]
        0x00000bd4:    4631        1F      MOV      r1,r6
        0x00000bd6:    3140        @1      ADDS     r1,r1,#0x40
        0x00000bd8:    78c8        .x      LDRB     r0,[r1,#3]
        0x00000bda:    88c9        ..      LDRH     r1,[r1,#6]
        0x00000bdc:    2822        "(      CMP      r0,#0x22
        0x00000bde:    d03c        <.      BEQ      0xc5a ; USBD_GetDescriptor + 142
        0x00000be0:    2802        .(      CMP      r0,#2
        0x00000be2:    d00b        ..      BEQ      0xbfc ; USBD_GetDescriptor + 48
        0x00000be4:    2803        .(      CMP      r0,#3
        0x00000be6:    d017        ..      BEQ      0xc18 ; USBD_GetDescriptor + 76
        0x00000be8:    2821        !(      CMP      r0,#0x21
        0x00000bea:    d00e        ..      BEQ      0xc0a ; USBD_GetDescriptor + 62
        0x00000bec:    2801        .(      CMP      r0,#1
        0x00000bee:    d12b        +.      BNE      0xc48 ; USBD_GetDescriptor + 124
        0x00000bf0:    2912        .)      CMP      r1,#0x12
        0x00000bf2:    d300        ..      BCC      0xbf6 ; USBD_GetDescriptor + 42
        0x00000bf4:    2112        .!      MOVS     r1,#0x12
        0x00000bf6:    69b0        .i      LDR      r0,[r6,#0x18]
        0x00000bf8:    6800        .h      LDR      r0,[r0,#0]
        0x00000bfa:    e049        I.      B        0xc90 ; USBD_GetDescriptor + 196
        0x00000bfc:    69b0        .i      LDR      r0,[r6,#0x18]
        0x00000bfe:    6844        Dh      LDR      r4,[r0,#4]
        0x00000c00:    78a0        .x      LDRB     r0,[r4,#2]
        0x00000c02:    78e2        .x      LDRB     r2,[r4,#3]
        0x00000c04:    0212        ..      LSLS     r2,r2,#8
        0x00000c06:    1815        ..      ADDS     r5,r2,r0
        0x00000c08:    e010        ..      B        0xc2c ; USBD_GetDescriptor + 96
        0x00000c0a:    2909        .)      CMP      r1,#9
        0x00000c0c:    d300        ..      BCC      0xc10 ; USBD_GetDescriptor + 68
        0x00000c0e:    2109        .!      MOVS     r1,#9
        0x00000c10:    69b0        .i      LDR      r0,[r6,#0x18]
        0x00000c12:    6840        @h      LDR      r0,[r0,#4]
        0x00000c14:    3012        .0      ADDS     r0,r0,#0x12
        0x00000c16:    e03b        ;.      B        0xc90 ; USBD_GetDescriptor + 196
        0x00000c18:    2042        B       MOVS     r0,#0x42
        0x00000c1a:    5c30        0\      LDRB     r0,[r6,r0]
        0x00000c1c:    4a8d        .J      LDR      r2,[pc,#564] ; [0xe54] = 0x4006002c
        0x00000c1e:    2803        .(      CMP      r0,#3
        0x00000c20:    d840        @.      BHI      0xca4 ; USBD_GetDescriptor + 216
        0x00000c22:    0080        ..      LSLS     r0,r0,#2
        0x00000c24:    69b2        .i      LDR      r2,[r6,#0x18]
        0x00000c26:    6892        .h      LDR      r2,[r2,#8]
        0x00000c28:    5814        .X      LDR      r4,[r2,r0]
        0x00000c2a:    7825        %x      LDRB     r5,[r4,#0]
        0x00000c2c:    42a9        .B      CMP      r1,r5
        0x00000c2e:    d909        ..      BLS      0xc44 ; USBD_GetDescriptor + 120
        0x00000c30:    4871        qH      LDR      r0,[pc,#452] ; [0xdf8] = 0x2000002c
        0x00000c32:    6801        .h      LDR      r1,[r0,#0]
        0x00000c34:    4628        (F      MOV      r0,r5
        0x00000c36:    f7fffa73    ..s.    BL       __aeabi_uidiv ; 0x120
        0x00000c3a:    2900        .)      CMP      r1,#0
        0x00000c3c:    d101        ..      BNE      0xc42 ; USBD_GetDescriptor + 118
        0x00000c3e:    2001        .       MOVS     r0,#1
        0x00000c40:    7070        pp      STRB     r0,[r6,#1]
        0x00000c42:    4629        )F      MOV      r1,r5
        0x00000c44:    4620         F      MOV      r0,r4
        0x00000c46:    e023        #.      B        0xc90 ; USBD_GetDescriptor + 196
        0x00000c48:    4882        .H      LDR      r0,[pc,#520] ; [0xe54] = 0x4006002c
        0x00000c4a:    6801        .h      LDR      r1,[r0,#0]
        0x00000c4c:    2202        ."      MOVS     r2,#2
        0x00000c4e:    4311        .C      ORRS     r1,r1,r2
        0x00000c50:    6001        .`      STR      r1,[r0,#0]
        0x00000c52:    6901        .i      LDR      r1,[r0,#0x10]
        0x00000c54:    4311        .C      ORRS     r1,r1,r2
        0x00000c56:    6101        .a      STR      r1,[r0,#0x10]
        0x00000c58:    bdf8        ..      POP      {r3-r7,pc}
        0x00000c5a:    69b5        .i      LDR      r5,[r6,#0x18]
        0x00000c5c:    6868        hh      LDR      r0,[r5,#4]
        0x00000c5e:    7882        .x      LDRB     r2,[r0,#2]
        0x00000c60:    78c3        .x      LDRB     r3,[r0,#3]
        0x00000c62:    021b        ..      LSLS     r3,r3,#8
        0x00000c64:    189a        ..      ADDS     r2,r3,r2
        0x00000c66:    1880        ..      ADDS     r0,r0,r2
        0x00000c68:    4602        .F      MOV      r2,r0
        0x00000c6a:    3a09        .:      SUBS     r2,r2,#9
        0x00000c6c:    7812        .x      LDRB     r2,[r2,#0]
        0x00000c6e:    3808        .8      SUBS     r0,r0,#8
        0x00000c70:    7800        .x      LDRB     r0,[r0,#0]
        0x00000c72:    0200        ..      LSLS     r0,r0,#8
        0x00000c74:    1884        ..      ADDS     r4,r0,r2
        0x00000c76:    42a1        .B      CMP      r1,r4
        0x00000c78:    d909        ..      BLS      0xc8e ; USBD_GetDescriptor + 194
        0x00000c7a:    485f        _H      LDR      r0,[pc,#380] ; [0xdf8] = 0x2000002c
        0x00000c7c:    6801        .h      LDR      r1,[r0,#0]
        0x00000c7e:    4620         F      MOV      r0,r4
        0x00000c80:    f7fffa4e    ..N.    BL       __aeabi_uidiv ; 0x120
        0x00000c84:    2900        .)      CMP      r1,#0
        0x00000c86:    d101        ..      BNE      0xc8c ; USBD_GetDescriptor + 192
        0x00000c88:    2001        .       MOVS     r0,#1
        0x00000c8a:    7070        pp      STRB     r0,[r6,#1]
        0x00000c8c:    4621        !F      MOV      r1,r4
        0x00000c8e:    68e8        .h      LDR      r0,[r5,#0xc]
        0x00000c90:    f000f886    ....    BL       USBD_PrepareCtrlIn ; 0xda0
        0x00000c94:    63b7        .c      STR      r7,[r6,#0x38]
        0x00000c96:    63f7        .c      STR      r7,[r6,#0x3c]
        0x00000c98:    6377        wc      STR      r7,[r6,#0x34]
        0x00000c9a:    48f7        .H      LDR      r0,[pc,#988] ; [0x1078] = 0x2000002c
        0x00000c9c:    6800        .h      LDR      r0,[r0,#0]
        0x00000c9e:    496d        mI      LDR      r1,[pc,#436] ; [0xe54] = 0x4006002c
        0x00000ca0:    6088        .`      STR      r0,[r1,#8]
        0x00000ca2:    bdf8        ..      POP      {r3-r7,pc}
        0x00000ca4:    6810        .h      LDR      r0,[r2,#0]
        0x00000ca6:    2102        .!      MOVS     r1,#2
        0x00000ca8:    4308        .C      ORRS     r0,r0,r1
        0x00000caa:    6010        .`      STR      r0,[r2,#0]
        0x00000cac:    6910        .i      LDR      r0,[r2,#0x10]
        0x00000cae:    4308        .C      ORRS     r0,r0,r1
        0x00000cb0:    6110        .a      STR      r0,[r2,#0x10]
        0x00000cb2:    bdf8        ..      POP      {r3-r7,pc}
    USBD_IRQHandler
        0x00000cb4:    b5f8        ..      PUSH     {r3-r7,lr}
        0x00000cb6:    4c33        3L      LDR      r4,[pc,#204] ; [0xd84] = 0x40060004
        0x00000cb8:    6825        %h      LDR      r5,[r4,#0]
        0x00000cba:    68e6        .h      LDR      r6,[r4,#0xc]
        0x00000cbc:    0768        h.      LSLS     r0,r5,#29
        0x00000cbe:    d50b        ..      BPL      0xcd8 ; USBD_IRQHandler + 36
        0x00000cc0:    2004        .       MOVS     r0,#4
        0x00000cc2:    6020         `      STR      r0,[r4,#0]
        0x00000cc4:    6921        !i      LDR      r1,[r4,#0x10]
        0x00000cc6:    68e0        .h      LDR      r0,[r4,#0xc]
        0x00000cc8:    07c9        ..      LSLS     r1,r1,#31
        0x00000cca:    d002        ..      BEQ      0xcd2 ; USBD_IRQHandler + 30
        0x00000ccc:    2190        .!      MOVS     r1,#0x90
        0x00000cce:    4308        .C      ORRS     r0,r0,r1
        0x00000cd0:    e001        ..      B        0xcd6 ; USBD_IRQHandler + 34
        0x00000cd2:    2180        .!      MOVS     r1,#0x80
        0x00000cd4:    4388        .C      BICS     r0,r0,r1
        0x00000cd6:    60e0        .`      STR      r0,[r4,#0xc]
        0x00000cd8:    0728        (.      LSLS     r0,r5,#28
        0x00000cda:    d501        ..      BPL      0xce0 ; USBD_IRQHandler + 44
        0x00000cdc:    2008        .       MOVS     r0,#8
        0x00000cde:    6020         `      STR      r0,[r4,#0]
        0x00000ce0:    07e8        ..      LSLS     r0,r5,#31
        0x00000ce2:    d01d        ..      BEQ      0xd20 ; USBD_IRQHandler + 108
        0x00000ce4:    2701        .'      MOVS     r7,#1
        0x00000ce6:    6027        '`      STR      r7,[r4,#0]
        0x00000ce8:    07f0        ..      LSLS     r0,r6,#31
        0x00000cea:    d008        ..      BEQ      0xcfe ; USBD_IRQHandler + 74
        0x00000cec:    68e0        .h      LDR      r0,[r4,#0xc]
        0x00000cee:    2190        .!      MOVS     r1,#0x90
        0x00000cf0:    4301        .C      ORRS     r1,r1,r0
        0x00000cf2:    60e1        .`      STR      r1,[r4,#0xc]
        0x00000cf4:    f000f9c2    ....    BL       USBD_SwReset ; 0x107c
        0x00000cf8:    4823        #H      LDR      r0,[pc,#140] ; [0xd88] = 0x20000084
        0x00000cfa:    2100        .!      MOVS     r1,#0
        0x00000cfc:    7001        .p      STRB     r1,[r0,#0]
        0x00000cfe:    07b0        ..      LSLS     r0,r6,#30
        0x00000d00:    d505        ..      BPL      0xd0e ; USBD_IRQHandler + 90
        0x00000d02:    4821        !H      LDR      r0,[pc,#132] ; [0xd88] = 0x20000084
        0x00000d04:    7007        .p      STRB     r7,[r0,#0]
        0x00000d06:    68e0        .h      LDR      r0,[r4,#0xc]
        0x00000d08:    2110        .!      MOVS     r1,#0x10
        0x00000d0a:    4388        .C      BICS     r0,r0,r1
        0x00000d0c:    60e0        .`      STR      r0,[r4,#0xc]
        0x00000d0e:    0770        p.      LSLS     r0,r6,#29
        0x00000d10:    d506        ..      BPL      0xd20 ; USBD_IRQHandler + 108
        0x00000d12:    68e0        .h      LDR      r0,[r4,#0xc]
        0x00000d14:    2190        .!      MOVS     r1,#0x90
        0x00000d16:    4301        .C      ORRS     r1,r1,r0
        0x00000d18:    60e1        .`      STR      r1,[r4,#0xc]
        0x00000d1a:    481b        .H      LDR      r0,[pc,#108] ; [0xd88] = 0x20000084
        0x00000d1c:    2100        .!      MOVS     r1,#0
        0x00000d1e:    7001        .p      STRB     r1,[r0,#0]
        0x00000d20:    07a8        ..      LSLS     r0,r5,#30
        0x00000d22:    d52d        -.      BPL      0xd80 ; USBD_IRQHandler + 204
        0x00000d24:    2d00        .-      CMP      r5,#0
        0x00000d26:    d50a        ..      BPL      0xd3e ; USBD_IRQHandler + 138
        0x00000d28:    2001        .       MOVS     r0,#1
        0x00000d2a:    07c1        ..      LSLS     r1,r0,#31
        0x00000d2c:    6021        !`      STR      r1,[r4,#0]
        0x00000d2e:    6aa1        .j      LDR      r1,[r4,#0x28]
        0x00000d30:    4301        .C      ORRS     r1,r1,r0
        0x00000d32:    62a1        .b      STR      r1,[r4,#0x28]
        0x00000d34:    6ba1        .k      LDR      r1,[r4,#0x38]
        0x00000d36:    4301        .C      ORRS     r1,r1,r0
        0x00000d38:    63a1        .c      STR      r1,[r4,#0x38]
        0x00000d3a:    f000f861    ..a.    BL       USBD_ProcessSetupPacket ; 0xe00
        0x00000d3e:    2601        .&      MOVS     r6,#1
        0x00000d40:    03e8        ..      LSLS     r0,r5,#15
        0x00000d42:    d503        ..      BPL      0xd4c ; USBD_IRQHandler + 152
        0x00000d44:    0430        0.      LSLS     r0,r6,#16
        0x00000d46:    6020         `      STR      r0,[r4,#0]
        0x00000d48:    f7fffed6    ....    BL       USBD_CtrlIn ; 0xaf8
        0x00000d4c:    03a8        ..      LSLS     r0,r5,#14
        0x00000d4e:    d503        ..      BPL      0xd58 ; USBD_IRQHandler + 164
        0x00000d50:    0470        p.      LSLS     r0,r6,#17
        0x00000d52:    6020         `      STR      r0,[r4,#0]
        0x00000d54:    f7ffff10    ....    BL       USBD_CtrlOut ; 0xb78
        0x00000d58:    0368        h.      LSLS     r0,r5,#13
        0x00000d5a:    d503        ..      BPL      0xd64 ; USBD_IRQHandler + 176
        0x00000d5c:    04b0        ..      LSLS     r0,r6,#18
        0x00000d5e:    6020         `      STR      r0,[r4,#0]
        0x00000d60:    f7fffcad    ....    BL       HID_SetInReport ; 0x6be
        0x00000d64:    0328        (.      LSLS     r0,r5,#12
        0x00000d66:    d503        ..      BPL      0xd70 ; USBD_IRQHandler + 188
        0x00000d68:    04f0        ..      LSLS     r0,r6,#19
        0x00000d6a:    6020         `      STR      r0,[r4,#0]
        0x00000d6c:    f7fffc46    ..F.    BL       EP3_Handler ; 0x5fc
        0x00000d70:    02e8        ..      LSLS     r0,r5,#11
        0x00000d72:    d501        ..      BPL      0xd78 ; USBD_IRQHandler + 196
        0x00000d74:    0530        0.      LSLS     r0,r6,#20
        0x00000d76:    6020         `      STR      r0,[r4,#0]
        0x00000d78:    02a8        ..      LSLS     r0,r5,#10
        0x00000d7a:    d501        ..      BPL      0xd80 ; USBD_IRQHandler + 204
        0x00000d7c:    0570        p.      LSLS     r0,r6,#21
        0x00000d7e:    6020         `      STR      r0,[r4,#0]
        0x00000d80:    bdf8        ..      POP      {r3-r7,pc}
        0x00000d82:    46c0        .F      MOV      r8,r8
    $d.1
    __arm_cp.0_0
        0x00000d84:    40060004    ...@    DCD    1074135044
    __arm_cp.0_1
        0x00000d88:    20000084    ...     DCD    536871044
    $t.6
    USBD_MemCopy
        0x00000d8c:    2a00        .*      CMP      r2,#0
        0x00000d8e:    d005        ..      BEQ      0xd9c ; USBD_MemCopy + 16
        0x00000d90:    780b        .x      LDRB     r3,[r1,#0]
        0x00000d92:    7003        .p      STRB     r3,[r0,#0]
        0x00000d94:    1c40        @.      ADDS     r0,r0,#1
        0x00000d96:    1c49        I.      ADDS     r1,r1,#1
        0x00000d98:    1e52        R.      SUBS     r2,r2,#1
        0x00000d9a:    e7f7        ..      B        USBD_MemCopy ; 0xd8c
        0x00000d9c:    4770        pG      BX       lr
        0x00000d9e:    0000        ..      MOVS     r0,r0
    USBD_PrepareCtrlIn
        0x00000da0:    b570        p.      PUSH     {r4-r6,lr}
        0x00000da2:    460c        .F      MOV      r4,r1
        0x00000da4:    4601        .F      MOV      r1,r0
        0x00000da6:    4eb4        .N      LDR      r6,[pc,#720] ; [0x1078] = 0x2000002c
        0x00000da8:    6830        0h      LDR      r0,[r6,#0]
        0x00000daa:    4d14        .M      LDR      r5,[pc,#80] ; [0xdfc] = 0x40060020
        0x00000dac:    42a0        .B      CMP      r0,r4
        0x00000dae:    d212        ..      BCS      0xdd6 ; USBD_PrepareCtrlIn + 54
        0x00000db0:    6830        0h      LDR      r0,[r6,#0]
        0x00000db2:    6832        2h      LDR      r2,[r6,#0]
        0x00000db4:    1aa2        ..      SUBS     r2,r4,r2
        0x00000db6:    4bbd        .K      LDR      r3,[pc,#756] ; [0x10ac] = 0x20000038
        0x00000db8:    625a        Zb      STR      r2,[r3,#0x24]
        0x00000dba:    68aa        .h      LDR      r2,[r5,#8]
        0x00000dbc:    2480        .$      MOVS     r4,#0x80
        0x00000dbe:    4314        .C      ORRS     r4,r4,r2
        0x00000dc0:    60ac        .`      STR      r4,[r5,#8]
        0x00000dc2:    1808        ..      ADDS     r0,r1,r0
        0x00000dc4:    6218        .b      STR      r0,[r3,#0x20]
        0x00000dc6:    6828        (h      LDR      r0,[r5,#0]
        0x00000dc8:    1828        (.      ADDS     r0,r5,r0
        0x00000dca:    30e0        .0      ADDS     r0,r0,#0xe0
        0x00000dcc:    6832        2h      LDR      r2,[r6,#0]
        0x00000dce:    f7ffffdd    ....    BL       USBD_MemCopy ; 0xd8c
        0x00000dd2:    6834        4h      LDR      r4,[r6,#0]
        0x00000dd4:    e00d        ..      B        0xdf2 ; USBD_PrepareCtrlIn + 82
        0x00000dd6:    48b5        .H      LDR      r0,[pc,#724] ; [0x10ac] = 0x20000038
        0x00000dd8:    2200        ."      MOVS     r2,#0
        0x00000dda:    6242        Bb      STR      r2,[r0,#0x24]
        0x00000ddc:    68ab        .h      LDR      r3,[r5,#8]
        0x00000dde:    2680        .&      MOVS     r6,#0x80
        0x00000de0:    431e        .C      ORRS     r6,r6,r3
        0x00000de2:    60ae        .`      STR      r6,[r5,#8]
        0x00000de4:    6202        .b      STR      r2,[r0,#0x20]
        0x00000de6:    6828        (h      LDR      r0,[r5,#0]
        0x00000de8:    1828        (.      ADDS     r0,r5,r0
        0x00000dea:    30e0        .0      ADDS     r0,r0,#0xe0
        0x00000dec:    4622        "F      MOV      r2,r4
        0x00000dee:    f7ffffcd    ....    BL       USBD_MemCopy ; 0xd8c
        0x00000df2:    606c        l`      STR      r4,[r5,#4]
        0x00000df4:    bd70        p.      POP      {r4-r6,pc}
        0x00000df6:    46c0        .F      MOV      r8,r8
    $d.18
    __arm_cp.7_0
        0x00000df8:    2000002c    ,..     DCD    536870956
    __arm_cp.7_1
        0x00000dfc:    40060020     ..@    DCD    1074135072
    $t.7
    USBD_ProcessSetupPacket
        0x00000e00:    b5b0        ..      PUSH     {r4,r5,r7,lr}
        0x00000e02:    4daa        .M      LDR      r5,[pc,#680] ; [0x10ac] = 0x20000038
        0x00000e04:    2000        .       MOVS     r0,#0
        0x00000e06:    61e8        .a      STR      r0,[r5,#0x1c]
        0x00000e08:    4628        (F      MOV      r0,r5
        0x00000e0a:    3040        @0      ADDS     r0,r0,#0x40
        0x00000e0c:    4c11        .L      LDR      r4,[pc,#68] ; [0xe54] = 0x4006002c
        0x00000e0e:    4621        !F      MOV      r1,r4
        0x00000e10:    31d4        .1      ADDS     r1,r1,#0xd4
        0x00000e12:    2208        ."      MOVS     r2,#8
        0x00000e14:    f7ffffba    ....    BL       USBD_MemCopy ; 0xd8c
        0x00000e18:    2040        @       MOVS     r0,#0x40
        0x00000e1a:    5c29        )\      LDRB     r1,[r5,r0]
        0x00000e1c:    2060        `       MOVS     r0,#0x60
        0x00000e1e:    4008        .@      ANDS     r0,r0,r1
        0x00000e20:    2840        @(      CMP      r0,#0x40
        0x00000e22:    d008        ..      BEQ      0xe36 ; USBD_ProcessSetupPacket + 54
        0x00000e24:    2820         (      CMP      r0,#0x20
        0x00000e26:    d004        ..      BEQ      0xe32 ; USBD_ProcessSetupPacket + 50
        0x00000e28:    2800        .(      CMP      r0,#0
        0x00000e2a:    d109        ..      BNE      0xe40 ; USBD_ProcessSetupPacket + 64
        0x00000e2c:    f000f814    ....    BL       USBD_StandardRequest ; 0xe58
        0x00000e30:    bdb0        ..      POP      {r4,r5,r7,pc}
        0x00000e32:    68a8        .h      LDR      r0,[r5,#8]
        0x00000e34:    e000        ..      B        0xe38 ; USBD_ProcessSetupPacket + 56
        0x00000e36:    6868        hh      LDR      r0,[r5,#4]
        0x00000e38:    2800        .(      CMP      r0,#0
        0x00000e3a:    d008        ..      BEQ      0xe4e ; USBD_ProcessSetupPacket + 78
        0x00000e3c:    4780        .G      BLX      r0
        0x00000e3e:    bdb0        ..      POP      {r4,r5,r7,pc}
        0x00000e40:    6820         h      LDR      r0,[r4,#0]
        0x00000e42:    2102        .!      MOVS     r1,#2
        0x00000e44:    4308        .C      ORRS     r0,r0,r1
        0x00000e46:    6020         `      STR      r0,[r4,#0]
        0x00000e48:    6920         i      LDR      r0,[r4,#0x10]
        0x00000e4a:    4308        .C      ORRS     r0,r0,r1
        0x00000e4c:    6120         a      STR      r0,[r4,#0x10]
        0x00000e4e:    bdb0        ..      POP      {r4,r5,r7,pc}
    $d.8
    __arm_cp.4_0
        0x00000e50:    20000038    8..     DCD    536870968
    __arm_cp.4_1
        0x00000e54:    4006002c    ,..@    DCD    1074135084
    $t.9
    USBD_StandardRequest
        0x00000e58:    b5f8        ..      PUSH     {r3-r7,lr}
        0x00000e5a:    4c94        .L      LDR      r4,[pc,#592] ; [0x10ac] = 0x20000038
        0x00000e5c:    2500        .%      MOVS     r5,#0
        0x00000e5e:    6265        eb      STR      r5,[r4,#0x24]
        0x00000e60:    6225        %b      STR      r5,[r4,#0x20]
        0x00000e62:    2040        @       MOVS     r0,#0x40
        0x00000e64:    5c21        !\      LDRB     r1,[r4,r0]
        0x00000e66:    b248        H.      SXTB     r0,r1
        0x00000e68:    4622        "F      MOV      r2,r4
        0x00000e6a:    3240        @2      ADDS     r2,r2,#0x40
        0x00000e6c:    7852        Rx      LDRB     r2,[r2,#1]
        0x00000e6e:    2800        .(      CMP      r0,#0
        0x00000e70:    d435        5.      BMI      0xede ; USBD_StandardRequest + 134
        0x00000e72:    1e50        P.      SUBS     r0,r2,#1
        0x00000e74:    4d7f        .M      LDR      r5,[pc,#508] ; [0x1074] = 0x4006001c
        0x00000e76:    280a        .(      CMP      r0,#0xa
        0x00000e78:    d853        S.      BHI      0xf22 ; USBD_StandardRequest + 202
        0x00000e7a:    46c0        .F      MOV      r8,r8
        0x00000e7c:    4478        xD      ADD      r0,r0,pc
        0x00000e7e:    7900        .y      LDRB     r0,[r0,#4]
        0x00000e80:    0040        @.      LSLS     r0,r0,#1
        0x00000e82:    4487        .D      ADD      pc,pc,r0
    $d.10
        0x00000e84:    4e5a4e05    .NZN    DCD    1314541061
        0x00000e88:    4e4e4e56    VNNN    DCD    1313754710
        0x00000e8c:    00774e72    rNw.    DCD    7818866
    $t.11
        0x00000e90:    2042        B       MOVS     r0,#0x42
        0x00000e92:    5c20         \      LDRB     r0,[r4,r0]
        0x00000e94:    2801        .(      CMP      r0,#1
        0x00000e96:    d100        ..      BNE      0xe9a ; USBD_StandardRequest + 66
        0x00000e98:    e0ae        ..      B        0xff8 ; USBD_StandardRequest + 416
        0x00000e9a:    2800        .(      CMP      r0,#0
        0x00000e9c:    d000        ..      BEQ      0xea0 ; USBD_StandardRequest + 72
        0x00000e9e:    e0af        ..      B        0x1000 ; USBD_StandardRequest + 424
        0x00000ea0:    2044        D       MOVS     r0,#0x44
        0x00000ea2:    5c20         \      LDRB     r0,[r4,r0]
        0x00000ea4:    210f        .!      MOVS     r1,#0xf
        0x00000ea6:    4008        .@      ANDS     r0,r0,r1
        0x00000ea8:    462a        *F      MOV      r2,r5
        0x00000eaa:    3210        .2      ADDS     r2,r2,#0x10
        0x00000eac:    2300        .#      MOVS     r3,#0
        0x00000eae:    2b06        .+      CMP      r3,#6
        0x00000eb0:    d100        ..      BNE      0xeb4 ; USBD_StandardRequest + 92
        0x00000eb2:    e0a5        ..      B        0x1000 ; USBD_StandardRequest + 424
        0x00000eb4:    1f16        ..      SUBS     r6,r2,#4
        0x00000eb6:    6837        7h      LDR      r7,[r6,#0]
        0x00000eb8:    400f        .@      ANDS     r7,r7,r1
        0x00000eba:    4287        .B      CMP      r7,r0
        0x00000ebc:    d10c        ..      BNE      0xed8 ; USBD_StandardRequest + 128
        0x00000ebe:    6967        gi      LDR      r7,[r4,#0x14]
        0x00000ec0:    40df        .@      LSRS     r7,r7,r3
        0x00000ec2:    07ff        ..      LSLS     r7,r7,#31
        0x00000ec4:    d108        ..      BNE      0xed8 ; USBD_StandardRequest + 128
        0x00000ec6:    6817        .h      LDR      r7,[r2,#0]
        0x00000ec8:    2502        .%      MOVS     r5,#2
        0x00000eca:    43af        .C      BICS     r7,r7,r5
        0x00000ecc:    6017        .`      STR      r7,[r2,#0]
        0x00000ece:    6835        5h      LDR      r5,[r6,#0]
        0x00000ed0:    2780        .'      MOVS     r7,#0x80
        0x00000ed2:    43bd        .C      BICS     r5,r5,r7
        0x00000ed4:    6035        5`      STR      r5,[r6,#0]
        0x00000ed6:    4d67        gM      LDR      r5,[pc,#412] ; [0x1074] = 0x4006001c
        0x00000ed8:    3210        .2      ADDS     r2,r2,#0x10
        0x00000eda:    1c5b        [.      ADDS     r3,r3,#1
        0x00000edc:    e7e7        ..      B        0xeae ; USBD_StandardRequest + 86
        0x00000ede:    2001        .       MOVS     r0,#1
        0x00000ee0:    41c2        .A      RORS     r2,r2,r0
        0x00000ee2:    2a05        .*      CMP      r2,#5
        0x00000ee4:    d900        ..      BLS      0xee8 ; USBD_StandardRequest + 144
        0x00000ee6:    e07e        ~.      B        0xfe6 ; USBD_StandardRequest + 398
        0x00000ee8:    447a        zD      ADD      r2,r2,pc
        0x00000eea:    7912        .y      LDRB     r2,[r2,#4]
        0x00000eec:    0052        R.      LSLS     r2,r2,#1
        0x00000eee:    4497        .D      ADD      pc,pc,r2
    $d.12
        0x00000ef0:    5e7a7a02    .zz^    DCD    1585084930
        0x00000ef4:    6849        Ih      DCW    26697
    $t.13
        0x00000ef6:    4f5f        _O      LDR      r7,[pc,#380] ; [0x1074] = 0x4006001c
        0x00000ef8:    2982        .)      CMP      r1,#0x82
        0x00000efa:    d100        ..      BNE      0xefe ; USBD_StandardRequest + 166
        0x00000efc:    e087        ..      B        0x100e ; USBD_StandardRequest + 438
        0x00000efe:    2981        .)      CMP      r1,#0x81
        0x00000f00:    d100        ..      BNE      0xf04 ; USBD_StandardRequest + 172
        0x00000f02:    e0a0        ..      B        0x1046 ; USBD_StandardRequest + 494
        0x00000f04:    2980        .)      CMP      r1,#0x80
        0x00000f06:    d000        ..      BEQ      0xf0a ; USBD_StandardRequest + 178
        0x00000f08:    e0a1        ..      B        0x104e ; USBD_StandardRequest + 502
        0x00000f0a:    69a0        .i      LDR      r0,[r4,#0x18]
        0x00000f0c:    6840        @h      LDR      r0,[r0,#4]
        0x00000f0e:    79c0        .y      LDRB     r0,[r0,#7]
        0x00000f10:    0641        A.      LSLS     r1,r0,#25
        0x00000f12:    0fcd        ..      LSRS     r5,r1,#31
        0x00000f14:    0680        ..      LSLS     r0,r0,#26
        0x00000f16:    d400        ..      BMI      0xf1a ; USBD_StandardRequest + 194
        0x00000f18:    e095        ..      B        0x1046 ; USBD_StandardRequest + 494
        0x00000f1a:    7820         x      LDRB     r0,[r4,#0]
        0x00000f1c:    0040        @.      LSLS     r0,r0,#1
        0x00000f1e:    1945        E.      ADDS     r5,r0,r5
        0x00000f20:    e091        ..      B        0x1046 ; USBD_StandardRequest + 494
        0x00000f22:    6928        (i      LDR      r0,[r5,#0x10]
        0x00000f24:    2102        .!      MOVS     r1,#2
        0x00000f26:    4308        .C      ORRS     r0,r0,r1
        0x00000f28:    6128        (a      STR      r0,[r5,#0x10]
        0x00000f2a:    6a28        (j      LDR      r0,[r5,#0x20]
        0x00000f2c:    4308        .C      ORRS     r0,r0,r1
        0x00000f2e:    6228        (b      STR      r0,[r5,#0x20]
        0x00000f30:    bdf8        ..      POP      {r3-r7,pc}
        0x00000f32:    2042        B       MOVS     r0,#0x42
        0x00000f34:    5c20         \      LDRB     r0,[r4,r0]
        0x00000f36:    6320         c      STR      r0,[r4,#0x30]
        0x00000f38:    e062        b.      B        0x1000 ; USBD_StandardRequest + 424
        0x00000f3a:    2042        B       MOVS     r0,#0x42
        0x00000f3c:    5c20         \      LDRB     r0,[r4,r0]
        0x00000f3e:    2801        .(      CMP      r0,#1
        0x00000f40:    d05c        \.      BEQ      0xffc ; USBD_StandardRequest + 420
        0x00000f42:    2800        .(      CMP      r0,#0
        0x00000f44:    d15c        \.      BNE      0x1000 ; USBD_StandardRequest + 424
        0x00000f46:    2044        D       MOVS     r0,#0x44
        0x00000f48:    5c20         \      LDRB     r0,[r4,r0]
        0x00000f4a:    220f        ."      MOVS     r2,#0xf
        0x00000f4c:    4010        .@      ANDS     r0,r0,r2
        0x00000f4e:    2307        .#      MOVS     r3,#7
        0x00000f50:    4629        )F      MOV      r1,r5
        0x00000f52:    1e5b        [.      SUBS     r3,r3,#1
        0x00000f54:    d054        T.      BEQ      0x1000 ; USBD_StandardRequest + 424
        0x00000f56:    68cc        .h      LDR      r4,[r1,#0xc]
        0x00000f58:    3110        .1      ADDS     r1,r1,#0x10
        0x00000f5a:    4014        .@      ANDS     r4,r4,r2
        0x00000f5c:    4284        .B      CMP      r4,r0
        0x00000f5e:    d1f8        ..      BNE      0xf52 ; USBD_StandardRequest + 250
        0x00000f60:    6808        .h      LDR      r0,[r1,#0]
        0x00000f62:    2202        ."      MOVS     r2,#2
        0x00000f64:    4302        .C      ORRS     r2,r2,r0
        0x00000f66:    600a        .`      STR      r2,[r1,#0]
        0x00000f68:    e04a        J.      B        0x1000 ; USBD_StandardRequest + 424
        0x00000f6a:    2042        B       MOVS     r0,#0x42
        0x00000f6c:    5c20         \      LDRB     r0,[r4,r0]
        0x00000f6e:    62a0        .b      STR      r0,[r4,#0x28]
        0x00000f70:    6920         i      LDR      r0,[r4,#0x10]
        0x00000f72:    e003        ..      B        0xf7c ; USBD_StandardRequest + 292
        0x00000f74:    2042        B       MOVS     r0,#0x42
        0x00000f76:    5c20         \      LDRB     r0,[r4,r0]
        0x00000f78:    62e0        .b      STR      r0,[r4,#0x2c]
        0x00000f7a:    68e0        .h      LDR      r0,[r4,#0xc]
        0x00000f7c:    2800        .(      CMP      r0,#0
        0x00000f7e:    d03f        ?.      BEQ      0x1000 ; USBD_StandardRequest + 424
        0x00000f80:    4780        .G      BLX      r0
        0x00000f82:    e03d        =.      B        0x1000 ; USBD_StandardRequest + 424
        0x00000f84:    6aa2        .j      LDR      r2,[r4,#0x28]
        0x00000f86:    493b        ;I      LDR      r1,[pc,#236] ; [0x1074] = 0x4006001c
        0x00000f88:    684b        Kh      LDR      r3,[r1,#4]
        0x00000f8a:    185b        [.      ADDS     r3,r3,r1
        0x00000f8c:    26e4        .&      MOVS     r6,#0xe4
        0x00000f8e:    559a        .U      STRB     r2,[r3,r6]
        0x00000f90:    69ca        .i      LDR      r2,[r1,#0x1c]
        0x00000f92:    2380        .#      MOVS     r3,#0x80
        0x00000f94:    431a        .C      ORRS     r2,r2,r3
        0x00000f96:    61ca        .a      STR      r2,[r1,#0x1c]
        0x00000f98:    618d        .a      STR      r5,[r1,#0x18]
        0x00000f9a:    68ca        .h      LDR      r2,[r1,#0xc]
        0x00000f9c:    431a        .C      ORRS     r2,r2,r3
        0x00000f9e:    60ca        .`      STR      r2,[r1,#0xc]
        0x00000fa0:    6088        .`      STR      r0,[r1,#8]
        0x00000fa2:    63a5        .c      STR      r5,[r4,#0x38]
        0x00000fa4:    63e5        .c      STR      r5,[r4,#0x3c]
        0x00000fa6:    6365        ec      STR      r5,[r4,#0x34]
        0x00000fa8:    4833        3H      LDR      r0,[pc,#204] ; [0x1078] = 0x2000002c
        0x00000faa:    6800        .h      LDR      r0,[r0,#0]
        0x00000fac:    e007        ..      B        0xfbe ; USBD_StandardRequest + 358
        0x00000fae:    f7fffe0d    ....    BL       USBD_GetDescriptor ; 0xbcc
        0x00000fb2:    63a5        .c      STR      r5,[r4,#0x38]
        0x00000fb4:    63e5        .c      STR      r5,[r4,#0x3c]
        0x00000fb6:    6365        ec      STR      r5,[r4,#0x34]
        0x00000fb8:    482f        /H      LDR      r0,[pc,#188] ; [0x1078] = 0x2000002c
        0x00000fba:    6800        .h      LDR      r0,[r0,#0]
        0x00000fbc:    492d        -I      LDR      r1,[pc,#180] ; [0x1074] = 0x4006001c
        0x00000fbe:    6188        .a      STR      r0,[r1,#0x18]
        0x00000fc0:    bdf8        ..      POP      {r3-r7,pc}
        0x00000fc2:    6ae1        .j      LDR      r1,[r4,#0x2c]
        0x00000fc4:    4a2b        +J      LDR      r2,[pc,#172] ; [0x1074] = 0x4006001c
        0x00000fc6:    6853        Sh      LDR      r3,[r2,#4]
        0x00000fc8:    189b        ..      ADDS     r3,r3,r2
        0x00000fca:    26e4        .&      MOVS     r6,#0xe4
        0x00000fcc:    5599        .U      STRB     r1,[r3,r6]
        0x00000fce:    68d1        .h      LDR      r1,[r2,#0xc]
        0x00000fd0:    2380        .#      MOVS     r3,#0x80
        0x00000fd2:    430b        .C      ORRS     r3,r3,r1
        0x00000fd4:    60d3        .`      STR      r3,[r2,#0xc]
        0x00000fd6:    6090        .`      STR      r0,[r2,#8]
        0x00000fd8:    63a5        .c      STR      r5,[r4,#0x38]
        0x00000fda:    63e5        .c      STR      r5,[r4,#0x3c]
        0x00000fdc:    6365        ec      STR      r5,[r4,#0x34]
        0x00000fde:    4826        &H      LDR      r0,[pc,#152] ; [0x1078] = 0x2000002c
        0x00000fe0:    6800        .h      LDR      r0,[r0,#0]
        0x00000fe2:    6190        .a      STR      r0,[r2,#0x18]
        0x00000fe4:    bdf8        ..      POP      {r3-r7,pc}
        0x00000fe6:    4823        #H      LDR      r0,[pc,#140] ; [0x1074] = 0x4006001c
        0x00000fe8:    6901        .i      LDR      r1,[r0,#0x10]
        0x00000fea:    2202        ."      MOVS     r2,#2
        0x00000fec:    4311        .C      ORRS     r1,r1,r2
        0x00000fee:    6101        .a      STR      r1,[r0,#0x10]
        0x00000ff0:    6a01        .j      LDR      r1,[r0,#0x20]
        0x00000ff2:    4311        .C      ORRS     r1,r1,r2
        0x00000ff4:    6201        .b      STR      r1,[r0,#0x20]
        0x00000ff6:    bdf8        ..      POP      {r3-r7,pc}
        0x00000ff8:    2000        .       MOVS     r0,#0
        0x00000ffa:    e000        ..      B        0xffe ; USBD_StandardRequest + 422
        0x00000ffc:    2001        .       MOVS     r0,#1
        0x00000ffe:    7020         p      STRB     r0,[r4,#0]
        0x00001000:    68e8        .h      LDR      r0,[r5,#0xc]
        0x00001002:    2180        .!      MOVS     r1,#0x80
        0x00001004:    4301        .C      ORRS     r1,r1,r0
        0x00001006:    60e9        .`      STR      r1,[r5,#0xc]
        0x00001008:    2000        .       MOVS     r0,#0
        0x0000100a:    60a8        .`      STR      r0,[r5,#8]
        0x0000100c:    bdf8        ..      POP      {r3-r7,pc}
        0x0000100e:    2044        D       MOVS     r0,#0x44
        0x00001010:    5c21        !\      LDRB     r1,[r4,r0]
        0x00001012:    200f        .       MOVS     r0,#0xf
        0x00001014:    9000        ..      STR      r0,[sp,#0]
        0x00001016:    4001        .@      ANDS     r1,r1,r0
        0x00001018:    2600        .&      MOVS     r6,#0
        0x0000101a:    2307        .#      MOVS     r3,#7
        0x0000101c:    4638        8F      MOV      r0,r7
        0x0000101e:    1e5b        [.      SUBS     r3,r3,#1
        0x00001020:    463d        =F      MOV      r5,r7
        0x00001022:    d00c        ..      BEQ      0x103e ; USBD_StandardRequest + 486
        0x00001024:    1c75        u.      ADDS     r5,r6,#1
        0x00001026:    68c2        .h      LDR      r2,[r0,#0xc]
        0x00001028:    3010        .0      ADDS     r0,r0,#0x10
        0x0000102a:    9f00        ..      LDR      r7,[sp,#0]
        0x0000102c:    403a        :@      ANDS     r2,r2,r7
        0x0000102e:    0136        6.      LSLS     r6,r6,#4
        0x00001030:    4f10        .O      LDR      r7,[pc,#64] ; [0x1074] = 0x4006001c
        0x00001032:    19bf        ..      ADDS     r7,r7,r6
        0x00001034:    370c        .7      ADDS     r7,r7,#0xc
        0x00001036:    428a        .B      CMP      r2,r1
        0x00001038:    462e        .F      MOV      r6,r5
        0x0000103a:    4605        .F      MOV      r5,r0
        0x0000103c:    d1ef        ..      BNE      0x101e ; USBD_StandardRequest + 454
        0x0000103e:    6828        (h      LDR      r0,[r5,#0]
        0x00001040:    0780        ..      LSLS     r0,r0,#30
        0x00001042:    0fc5        ..      LSRS     r5,r0,#31
        0x00001044:    4f0b        .O      LDR      r7,[pc,#44] ; [0x1074] = 0x4006001c
        0x00001046:    6878        xh      LDR      r0,[r7,#4]
        0x00001048:    1838        8.      ADDS     r0,r7,r0
        0x0000104a:    21e4        .!      MOVS     r1,#0xe4
        0x0000104c:    5445        ET      STRB     r5,[r0,r1]
        0x0000104e:    6878        xh      LDR      r0,[r7,#4]
        0x00001050:    1838        8.      ADDS     r0,r7,r0
        0x00001052:    21e5        .!      MOVS     r1,#0xe5
        0x00001054:    2200        ."      MOVS     r2,#0
        0x00001056:    5442        BT      STRB     r2,[r0,r1]
        0x00001058:    68f8        .h      LDR      r0,[r7,#0xc]
        0x0000105a:    2180        .!      MOVS     r1,#0x80
        0x0000105c:    4301        .C      ORRS     r1,r1,r0
        0x0000105e:    60f9        .`      STR      r1,[r7,#0xc]
        0x00001060:    2002        .       MOVS     r0,#2
        0x00001062:    60b8        .`      STR      r0,[r7,#8]
        0x00001064:    63a2        .c      STR      r2,[r4,#0x38]
        0x00001066:    63e2        .c      STR      r2,[r4,#0x3c]
        0x00001068:    6362        bc      STR      r2,[r4,#0x34]
        0x0000106a:    4803        .H      LDR      r0,[pc,#12] ; [0x1078] = 0x2000002c
        0x0000106c:    6800        .h      LDR      r0,[r0,#0]
        0x0000106e:    61b8        .a      STR      r0,[r7,#0x18]
        0x00001070:    bdf8        ..      POP      {r3-r7,pc}
        0x00001072:    46c0        .F      MOV      r8,r8
    $d.14
    __arm_cp.5_1
        0x00001074:    4006001c    ...@    DCD    1074135068
    __arm_cp.5_2
        0x00001078:    2000002c    ,..     DCD    536870956
    $t.25
    USBD_SwReset
        0x0000107c:    b5b0        ..      PUSH     {r4,r5,r7,lr}
        0x0000107e:    490b        .I      LDR      r1,[pc,#44] ; [0x10ac] = 0x20000038
        0x00001080:    2000        .       MOVS     r0,#0
        0x00001082:    6248        Hb      STR      r0,[r1,#0x24]
        0x00001084:    6388        .c      STR      r0,[r1,#0x38]
        0x00001086:    6408        .d      STR      r0,[r1,#0x40]
        0x00001088:    6448        Hd      STR      r0,[r1,#0x44]
        0x0000108a:    6208        .b      STR      r0,[r1,#0x20]
        0x0000108c:    6348        Hc      STR      r0,[r1,#0x34]
        0x0000108e:    6148        Ha      STR      r0,[r1,#0x14]
        0x00001090:    63c8        .c      STR      r0,[r1,#0x3c]
        0x00001092:    2208        ."      MOVS     r2,#8
        0x00001094:    4906        .I      LDR      r1,[pc,#24] ; [0x10b0] = 0x40060008
        0x00001096:    2a68        h*      CMP      r2,#0x68
        0x00001098:    d006        ..      BEQ      0x10a8 ; USBD_SwReset + 44
        0x0000109a:    188b        ..      ADDS     r3,r1,r2
        0x0000109c:    699c        .i      LDR      r4,[r3,#0x18]
        0x0000109e:    2580        .%      MOVS     r5,#0x80
        0x000010a0:    43ac        .C      BICS     r4,r4,r5
        0x000010a2:    619c        .a      STR      r4,[r3,#0x18]
        0x000010a4:    3210        .2      ADDS     r2,r2,#0x10
        0x000010a6:    e7f6        ..      B        0x1096 ; USBD_SwReset + 26
        0x000010a8:    6008        .`      STR      r0,[r1,#0]
        0x000010aa:    bdb0        ..      POP      {r4,r5,r7,pc}
    $d.26
    __arm_cp.11_0
        0x000010ac:    20000038    8..     DCD    536870968
    __arm_cp.11_1
        0x000010b0:    40060008    ...@    DCD    1074135048
    $t.0
    WDT_IRQHandler
        0x000010b4:    b510        ..      PUSH     {r4,lr}
        0x000010b6:    4c13        .L      LDR      r4,[pc,#76] ; [0x1104] = 0x20000030
        0x000010b8:    6821        !h      LDR      r1,[r4,#0]
        0x000010ba:    4813        .H      LDR      r0,[pc,#76] ; [0x1108] = 0x40004000
        0x000010bc:    2900        .)      CMP      r1,#0
        0x000010be:    d105        ..      BNE      0x10cc ; WDT_IRQHandler + 24
        0x000010c0:    6801        .h      LDR      r1,[r0,#0]
        0x000010c2:    2201        ."      MOVS     r2,#1
        0x000010c4:    430a        .C      ORRS     r2,r2,r1
        0x000010c6:    212c        ,!      MOVS     r1,#0x2c
        0x000010c8:    438a        .C      BICS     r2,r2,r1
        0x000010ca:    6002        .`      STR      r2,[r0,#0]
        0x000010cc:    6801        .h      LDR      r1,[r0,#0]
        0x000010ce:    0709        ..      LSLS     r1,r1,#28
        0x000010d0:    d508        ..      BPL      0x10e4 ; WDT_IRQHandler + 48
        0x000010d2:    6801        .h      LDR      r1,[r0,#0]
        0x000010d4:    2208        ."      MOVS     r2,#8
        0x000010d6:    430a        .C      ORRS     r2,r2,r1
        0x000010d8:    2124        $!      MOVS     r1,#0x24
        0x000010da:    438a        .C      BICS     r2,r2,r1
        0x000010dc:    6002        .`      STR      r2,[r0,#0]
        0x000010de:    6821        !h      LDR      r1,[r4,#0]
        0x000010e0:    1c49        I.      ADDS     r1,r1,#1
        0x000010e2:    6021        !`      STR      r1,[r4,#0]
        0x000010e4:    6801        .h      LDR      r1,[r0,#0]
        0x000010e6:    0689        ..      LSLS     r1,r1,#26
        0x000010e8:    d50a        ..      BPL      0x1100 ; WDT_IRQHandler + 76
        0x000010ea:    6801        .h      LDR      r1,[r0,#0]
        0x000010ec:    2220         "      MOVS     r2,#0x20
        0x000010ee:    430a        .C      ORRS     r2,r2,r1
        0x000010f0:    210c        .!      MOVS     r1,#0xc
        0x000010f2:    438a        .C      BICS     r2,r2,r1
        0x000010f4:    6002        .`      STR      r2,[r0,#0]
        0x000010f6:    a005        ..      ADR      r0,{pc}+0x16 ; 0x110c
        0x000010f8:    f000fac4    ....    BL       puts ; 0x1684
        0x000010fc:    2001        .       MOVS     r0,#1
        0x000010fe:    6060        ``      STR      r0,[r4,#4]
        0x00001100:    bd10        ..      POP      {r4,pc}
        0x00001102:    46c0        .F      MOV      r8,r8
    $d.1
    __arm_cp.0_0
        0x00001104:    20000030    0..     DCD    536870960
    __arm_cp.0_1
        0x00001108:    40004000    .@.@    DCD    1073758208
        0x0000110c:    54445720     WDT    DCD    1413764896
        0x00001110:    6b615720     Wak    DCD    1801541408
        0x00001114:    70552065    e Up    DCD    1884627045
        0x00001118:    21212121    !!!!    DCD    555819297
        0x0000111c:    00000020     ...    DCD    32
    $t.14
    fputc
        0x00001120:    b510        ..      PUSH     {r4,lr}
        0x00001122:    4604        .F      MOV      r4,r0
        0x00001124:    f7fffc10    ....    BL       SendChar_ToUART ; 0x948
        0x00001128:    4620         F      MOV      r0,r4
        0x0000112a:    bd10        ..      POP      {r4,pc}
    main
        0x0000112c:    f7fffb38    ..8.    BL       SB_SYS_Init ; 0x7a0
        0x00001130:    20e1        .       MOVS     r0,#0xe1
        0x00001132:    0241        A.      LSLS     r1,r0,#9
        0x00001134:    480d        .H      LDR      r0,[pc,#52] ; [0x116c] = 0x40150000
        0x00001136:    2208        ."      MOVS     r2,#8
        0x00001138:    2400        .$      MOVS     r4,#0
        0x0000113a:    4623        #F      MOV      r3,r4
        0x0000113c:    f7fffb6e    ..n.    BL       SB_Uart_Driver_Init ; 0x81c
        0x00001140:    f7fffa6a    ..j.    BL       FMC_Open ; 0x618
        0x00001144:    201f        .       MOVS     r0,#0x1f
        0x00001146:    0300        ..      LSLS     r0,r0,#12
        0x00001148:    f7fffc10    ....    BL       SetDataFlashBase ; 0x96c
        0x0000114c:    2800        .(      CMP      r0,#0
        0x0000114e:    d408        ..      BMI      0x1162 ; main + 54
        0x00001150:    f7fffa86    ....    BL       FMC_ReadDataFlashBaseAddr ; 0x660
        0x00001154:    4601        .F      MOV      r1,r0
        0x00001156:    a006        ..      ADR      r0,{pc}+0x1a ; 0x1170
        0x00001158:    f000f83a    ..:.    BL       __0printf$8 ; 0x11d0
        0x0000115c:    4811        .H      LDR      r0,[pc,#68] ; [0x11a4] = 0x20000030
        0x0000115e:    6004        .`      STR      r4,[r0,#0]
        0x00001160:    e7fd        ..      B        0x115e ; main + 50
        0x00001162:    a011        ..      ADR      r0,{pc}+0x46 ; 0x11a8
        0x00001164:    f000fa8e    ....    BL       puts ; 0x1684
        0x00001168:    e7fe        ..      B        0x1168 ; main + 60
        0x0000116a:    46c0        .F      MOV      r8,r8
    $d.1
    __arm_cp.0_0
        0x0000116c:    40150000    ...@    DCD    1075118080
        0x00001170:    6d69535b    [Sim    DCD    1835619163
        0x00001174:    74616c75    ulat    DCD    1952541813
        0x00001178:    45452065    e EE    DCD    1162158181
        0x0000117c:    4d4f5250    PROM    DCD    1297044048
        0x00001180:    73616220     bas    DCD    1935761952
        0x00001184:    64612065    e ad    DCD    1684086885
        0x00001188:    73657264    dres    DCD    1936028260
        0x0000118c:    74612073    s at    DCD    1952522355
        0x00001190:    74614420     Dat    DCD    1952531488
        0x00001194:    6c462061    a Fl    DCD    1816535137
        0x00001198:    20687361    ash     DCD    543716193
        0x0000119c:    78257830    0x%x    DCD    2015721520
        0x000011a0:    000a0a5d    ]...    DCD    658013
    __arm_cp.0_2
        0x000011a4:    20000030    0..     DCD    536870960
        0x000011a8:    6c696146    Fail    DCD    1818845510
        0x000011ac:    74206465    ed t    DCD    1948279909
        0x000011b0:    6573206f    o se    DCD    1702043759
        0x000011b4:    61442074    t Da    DCD    1631854708
        0x000011b8:    46206174    ta F    DCD    1176527220
        0x000011bc:    6873616c    lash    DCD    1752392044
        0x000011c0:    73616220     bas    DCD    1935761952
        0x000011c4:    64612065    e ad    DCD    1684086885
        0x000011c8:    73657264    dres    DCD    1936028260
        0x000011cc:    00002173    s!..    DCD    8563
    $t
    i.__0printf$8
    __0printf$8
    __1printf$8
    __2printf
        0x000011d0:    b40f        ..      PUSH     {r0-r3}
        0x000011d2:    b510        ..      PUSH     {r4,lr}
        0x000011d4:    a903        ..      ADD      r1,sp,#0xc
        0x000011d6:    4b04        .K      LDR      r3,[pc,#16] ; [0x11e8] = 0x1121
        0x000011d8:    4a04        .J      LDR      r2,[pc,#16] ; [0x11ec] = 0x20000080
        0x000011da:    9802        ..      LDR      r0,[sp,#8]
        0x000011dc:    f000f818    ....    BL       _printf_core ; 0x1210
        0x000011e0:    bc10        ..      POP      {r4}
        0x000011e2:    bc08        ..      POP      {r3}
        0x000011e4:    b004        ..      ADD      sp,sp,#0x10
        0x000011e6:    4718        .G      BX       r3
    $d
        0x000011e8:    00001121    !...    DCD    4385
        0x000011ec:    20000080    ...     DCD    536871040
    $t
    i.__scatterload_copy
    __scatterload_copy
        0x000011f0:    e002        ..      B        0x11f8 ; __scatterload_copy + 8
        0x000011f2:    c808        ..      LDM      r0!,{r3}
        0x000011f4:    1f12        ..      SUBS     r2,r2,#4
        0x000011f6:    c108        ..      STM      r1!,{r3}
        0x000011f8:    2a00        .*      CMP      r2,#0
        0x000011fa:    d1fa        ..      BNE      0x11f2 ; __scatterload_copy + 2
        0x000011fc:    4770        pG      BX       lr
    i.__scatterload_null
    __scatterload_null
        0x000011fe:    4770        pG      BX       lr
    i.__scatterload_zeroinit
    __scatterload_zeroinit
        0x00001200:    2000        .       MOVS     r0,#0
        0x00001202:    e001        ..      B        0x1208 ; __scatterload_zeroinit + 8
        0x00001204:    c101        ..      STM      r1!,{r0}
        0x00001206:    1f12        ..      SUBS     r2,r2,#4
        0x00001208:    2a00        .*      CMP      r2,#0
        0x0000120a:    d1fb        ..      BNE      0x1204 ; __scatterload_zeroinit + 4
        0x0000120c:    4770        pG      BX       lr
        0x0000120e:    0000        ..      MOVS     r0,r0
    i._printf_core
    _printf_core
        0x00001210:    b5ff        ..      PUSH     {r0-r7,lr}
        0x00001212:    b091        ..      SUB      sp,sp,#0x44
        0x00001214:    460f        .F      MOV      r7,r1
        0x00001216:    4605        .F      MOV      r5,r0
        0x00001218:    2600        .&      MOVS     r6,#0
        0x0000121a:    e006        ..      B        0x122a ; _printf_core + 26
        0x0000121c:    2825        %(      CMP      r0,#0x25
        0x0000121e:    d00a        ..      BEQ      0x1236 ; _printf_core + 38
        0x00001220:    9a14        ..      LDR      r2,[sp,#0x50]
        0x00001222:    9913        ..      LDR      r1,[sp,#0x4c]
        0x00001224:    4790        .G      BLX      r2
        0x00001226:    1c6d        m.      ADDS     r5,r5,#1
        0x00001228:    1c76        v.      ADDS     r6,r6,#1
        0x0000122a:    7828        (x      LDRB     r0,[r5,#0]
        0x0000122c:    2800        .(      CMP      r0,#0
        0x0000122e:    d1f5        ..      BNE      0x121c ; _printf_core + 12
        0x00001230:    4630        0F      MOV      r0,r6
        0x00001232:    b015        ..      ADD      sp,sp,#0x54
        0x00001234:    bdf0        ..      POP      {r4-r7,pc}
        0x00001236:    2400        .$      MOVS     r4,#0
        0x00001238:    9400        ..      STR      r4,[sp,#0]
        0x0000123a:    2101        .!      MOVS     r1,#1
        0x0000123c:    4af3        .J      LDR      r2,[pc,#972] ; [0x160c] = 0x12809
        0x0000123e:    9402        ..      STR      r4,[sp,#8]
        0x00001240:    e000        ..      B        0x1244 ; _printf_core + 52
        0x00001242:    4304        .C      ORRS     r4,r4,r0
        0x00001244:    1c6d        m.      ADDS     r5,r5,#1
        0x00001246:    782b        +x      LDRB     r3,[r5,#0]
        0x00001248:    4608        .F      MOV      r0,r1
        0x0000124a:    3b20         ;      SUBS     r3,r3,#0x20
        0x0000124c:    4098        .@      LSLS     r0,r0,r3
        0x0000124e:    4210        .B      TST      r0,r2
        0x00001250:    d1f7        ..      BNE      0x1242 ; _printf_core + 50
        0x00001252:    7828        (x      LDRB     r0,[r5,#0]
        0x00001254:    282a        *(      CMP      r0,#0x2a
        0x00001256:    d00e        ..      BEQ      0x1276 ; _printf_core + 102
        0x00001258:    2102        .!      MOVS     r1,#2
        0x0000125a:    7828        (x      LDRB     r0,[r5,#0]
        0x0000125c:    4602        .F      MOV      r2,r0
        0x0000125e:    3a30        0:      SUBS     r2,r2,#0x30
        0x00001260:    2a09        .*      CMP      r2,#9
        0x00001262:    d815        ..      BHI      0x1290 ; _printf_core + 128
        0x00001264:    9a00        ..      LDR      r2,[sp,#0]
        0x00001266:    230a        .#      MOVS     r3,#0xa
        0x00001268:    435a        ZC      MULS     r2,r3,r2
        0x0000126a:    3a30        0:      SUBS     r2,r2,#0x30
        0x0000126c:    1880        ..      ADDS     r0,r0,r2
        0x0000126e:    430c        .C      ORRS     r4,r4,r1
        0x00001270:    1c6d        m.      ADDS     r5,r5,#1
        0x00001272:    9000        ..      STR      r0,[sp,#0]
        0x00001274:    e7f1        ..      B        0x125a ; _printf_core + 74
        0x00001276:    cf01        ..      LDM      r7!,{r0}
        0x00001278:    9000        ..      STR      r0,[sp,#0]
        0x0000127a:    2800        .(      CMP      r0,#0
        0x0000127c:    da05        ..      BGE      0x128a ; _printf_core + 122
        0x0000127e:    2001        .       MOVS     r0,#1
        0x00001280:    0340        @.      LSLS     r0,r0,#13
        0x00001282:    4304        .C      ORRS     r4,r4,r0
        0x00001284:    9800        ..      LDR      r0,[sp,#0]
        0x00001286:    4240        @B      RSBS     r0,r0,#0
        0x00001288:    9000        ..      STR      r0,[sp,#0]
        0x0000128a:    2002        .       MOVS     r0,#2
        0x0000128c:    4304        .C      ORRS     r4,r4,r0
        0x0000128e:    1c6d        m.      ADDS     r5,r5,#1
        0x00001290:    7828        (x      LDRB     r0,[r5,#0]
        0x00001292:    282e        .(      CMP      r0,#0x2e
        0x00001294:    d115        ..      BNE      0x12c2 ; _printf_core + 178
        0x00001296:    2004        .       MOVS     r0,#4
        0x00001298:    4304        .C      ORRS     r4,r4,r0
        0x0000129a:    7868        hx      LDRB     r0,[r5,#1]
        0x0000129c:    1c6d        m.      ADDS     r5,r5,#1
        0x0000129e:    282a        *(      CMP      r0,#0x2a
        0x000012a0:    d10a        ..      BNE      0x12b8 ; _printf_core + 168
        0x000012a2:    cf01        ..      LDM      r7!,{r0}
        0x000012a4:    1c6d        m.      ADDS     r5,r5,#1
        0x000012a6:    9002        ..      STR      r0,[sp,#8]
        0x000012a8:    e00b        ..      B        0x12c2 ; _printf_core + 178
        0x000012aa:    9902        ..      LDR      r1,[sp,#8]
        0x000012ac:    220a        ."      MOVS     r2,#0xa
        0x000012ae:    4351        QC      MULS     r1,r2,r1
        0x000012b0:    3930        09      SUBS     r1,r1,#0x30
        0x000012b2:    1840        @.      ADDS     r0,r0,r1
        0x000012b4:    1c6d        m.      ADDS     r5,r5,#1
        0x000012b6:    9002        ..      STR      r0,[sp,#8]
        0x000012b8:    7828        (x      LDRB     r0,[r5,#0]
        0x000012ba:    4601        .F      MOV      r1,r0
        0x000012bc:    3930        09      SUBS     r1,r1,#0x30
        0x000012be:    2909        .)      CMP      r1,#9
        0x000012c0:    d9f3        ..      BLS      0x12aa ; _printf_core + 154
        0x000012c2:    7828        (x      LDRB     r0,[r5,#0]
        0x000012c4:    286c        l(      CMP      r0,#0x6c
        0x000012c6:    d010        ..      BEQ      0x12ea ; _printf_core + 218
        0x000012c8:    dc06        ..      BGT      0x12d8 ; _printf_core + 200
        0x000012ca:    284c        L(      CMP      r0,#0x4c
        0x000012cc:    d01a        ..      BEQ      0x1304 ; _printf_core + 244
        0x000012ce:    2868        h(      CMP      r0,#0x68
        0x000012d0:    d00e        ..      BEQ      0x12f0 ; _printf_core + 224
        0x000012d2:    286a        j(      CMP      r0,#0x6a
        0x000012d4:    d117        ..      BNE      0x1306 ; _printf_core + 246
        0x000012d6:    e004        ..      B        0x12e2 ; _printf_core + 210
        0x000012d8:    2874        t(      CMP      r0,#0x74
        0x000012da:    d013        ..      BEQ      0x1304 ; _printf_core + 244
        0x000012dc:    287a        z(      CMP      r0,#0x7a
        0x000012de:    d112        ..      BNE      0x1306 ; _printf_core + 246
        0x000012e0:    e010        ..      B        0x1304 ; _printf_core + 244
        0x000012e2:    2001        .       MOVS     r0,#1
        0x000012e4:    0540        @.      LSLS     r0,r0,#21
        0x000012e6:    4304        .C      ORRS     r4,r4,r0
        0x000012e8:    e00c        ..      B        0x1304 ; _printf_core + 244
        0x000012ea:    2101        .!      MOVS     r1,#1
        0x000012ec:    0509        ..      LSLS     r1,r1,#20
        0x000012ee:    e001        ..      B        0x12f4 ; _printf_core + 228
        0x000012f0:    2103        .!      MOVS     r1,#3
        0x000012f2:    0509        ..      LSLS     r1,r1,#20
        0x000012f4:    430c        .C      ORRS     r4,r4,r1
        0x000012f6:    7869        ix      LDRB     r1,[r5,#1]
        0x000012f8:    4281        .B      CMP      r1,r0
        0x000012fa:    d103        ..      BNE      0x1304 ; _printf_core + 244
        0x000012fc:    2001        .       MOVS     r0,#1
        0x000012fe:    0500        ..      LSLS     r0,r0,#20
        0x00001300:    1824        $.      ADDS     r4,r4,r0
        0x00001302:    1c6d        m.      ADDS     r5,r5,#1
        0x00001304:    1c6d        m.      ADDS     r5,r5,#1
        0x00001306:    7828        (x      LDRB     r0,[r5,#0]
        0x00001308:    9003        ..      STR      r0,[sp,#0xc]
        0x0000130a:    286e        n(      CMP      r0,#0x6e
        0x0000130c:    d01e        ..      BEQ      0x134c ; _printf_core + 316
        0x0000130e:    dc0c        ..      BGT      0x132a ; _printf_core + 282
        0x00001310:    2863        c(      CMP      r0,#0x63
        0x00001312:    d031        1.      BEQ      0x1378 ; _printf_core + 360
        0x00001314:    dc04        ..      BGT      0x1320 ; _printf_core + 272
        0x00001316:    2800        .(      CMP      r0,#0
        0x00001318:    d08a        ..      BEQ      0x1230 ; _printf_core + 32
        0x0000131a:    2858        X(      CMP      r0,#0x58
        0x0000131c:    d111        ..      BNE      0x1342 ; _printf_core + 306
        0x0000131e:    e0b2        ..      B        0x1486 ; _printf_core + 630
        0x00001320:    2864        d(      CMP      r0,#0x64
        0x00001322:    d07b        {.      BEQ      0x141c ; _printf_core + 524
        0x00001324:    2869        i(      CMP      r0,#0x69
        0x00001326:    d10c        ..      BNE      0x1342 ; _printf_core + 306
        0x00001328:    e078        x.      B        0x141c ; _printf_core + 524
        0x0000132a:    2873        s(      CMP      r0,#0x73
        0x0000132c:    d02d        -.      BEQ      0x138a ; _printf_core + 378
        0x0000132e:    dc04        ..      BGT      0x133a ; _printf_core + 298
        0x00001330:    286f        o(      CMP      r0,#0x6f
        0x00001332:    d070        p.      BEQ      0x1416 ; _printf_core + 518
        0x00001334:    2870        p(      CMP      r0,#0x70
        0x00001336:    d104        ..      BNE      0x1342 ; _printf_core + 306
        0x00001338:    e0a7        ..      B        0x148a ; _printf_core + 634
        0x0000133a:    2875        u(      CMP      r0,#0x75
        0x0000133c:    d06c        l.      BEQ      0x1418 ; _printf_core + 520
        0x0000133e:    2878        x(      CMP      r0,#0x78
        0x00001340:    d06b        k.      BEQ      0x141a ; _printf_core + 522
        0x00001342:    9a14        ..      LDR      r2,[sp,#0x50]
        0x00001344:    9913        ..      LDR      r1,[sp,#0x4c]
        0x00001346:    4790        .G      BLX      r2
        0x00001348:    1c76        v.      ADDS     r6,r6,#1
        0x0000134a:    e062        b.      B        0x1412 ; _printf_core + 514
        0x0000134c:    0260        `.      LSLS     r0,r4,#9
        0x0000134e:    0f40        @.      LSRS     r0,r0,#29
        0x00001350:    2802        .(      CMP      r0,#2
        0x00001352:    d007        ..      BEQ      0x1364 ; _printf_core + 340
        0x00001354:    2803        .(      CMP      r0,#3
        0x00001356:    d00a        ..      BEQ      0x136e ; _printf_core + 350
        0x00001358:    2804        .(      CMP      r0,#4
        0x0000135a:    6838        8h      LDR      r0,[r7,#0]
        0x0000135c:    d00a        ..      BEQ      0x1374 ; _printf_core + 356
        0x0000135e:    6006        .`      STR      r6,[r0,#0]
        0x00001360:    1d3f        ?.      ADDS     r7,r7,#4
        0x00001362:    e056        V.      B        0x1412 ; _printf_core + 514
        0x00001364:    6838        8h      LDR      r0,[r7,#0]
        0x00001366:    17f1        ..      ASRS     r1,r6,#31
        0x00001368:    6006        .`      STR      r6,[r0,#0]
        0x0000136a:    6041        A`      STR      r1,[r0,#4]
        0x0000136c:    e7f8        ..      B        0x1360 ; _printf_core + 336
        0x0000136e:    6838        8h      LDR      r0,[r7,#0]
        0x00001370:    8006        ..      STRH     r6,[r0,#0]
        0x00001372:    e7f5        ..      B        0x1360 ; _printf_core + 336
        0x00001374:    7006        .p      STRB     r6,[r0,#0]
        0x00001376:    e7f3        ..      B        0x1360 ; _printf_core + 336
        0x00001378:    7838        8x      LDRB     r0,[r7,#0]
        0x0000137a:    4669        iF      MOV      r1,sp
        0x0000137c:    7408        .t      STRB     r0,[r1,#0x10]
        0x0000137e:    2000        .       MOVS     r0,#0
        0x00001380:    7448        Ht      STRB     r0,[r1,#0x11]
        0x00001382:    a804        ..      ADD      r0,sp,#0x10
        0x00001384:    9003        ..      STR      r0,[sp,#0xc]
        0x00001386:    2001        .       MOVS     r0,#1
        0x00001388:    e003        ..      B        0x1392 ; _printf_core + 386
        0x0000138a:    6838        8h      LDR      r0,[r7,#0]
        0x0000138c:    9003        ..      STR      r0,[sp,#0xc]
        0x0000138e:    2000        .       MOVS     r0,#0
        0x00001390:    43c0        .C      MVNS     r0,r0
        0x00001392:    1d3f        ?.      ADDS     r7,r7,#4
        0x00001394:    0761        a.      LSLS     r1,r4,#29
        0x00001396:    d50f        ..      BPL      0x13b8 ; _printf_core + 424
        0x00001398:    2100        .!      MOVS     r1,#0
        0x0000139a:    e001        ..      B        0x13a0 ; _printf_core + 400
        0x0000139c:    9901        ..      LDR      r1,[sp,#4]
        0x0000139e:    1c49        I.      ADDS     r1,r1,#1
        0x000013a0:    9a02        ..      LDR      r2,[sp,#8]
        0x000013a2:    9101        ..      STR      r1,[sp,#4]
        0x000013a4:    4291        .B      CMP      r1,r2
        0x000013a6:    da13        ..      BGE      0x13d0 ; _printf_core + 448
        0x000013a8:    4281        .B      CMP      r1,r0
        0x000013aa:    dbf7        ..      BLT      0x139c ; _printf_core + 396
        0x000013ac:    9a01        ..      LDR      r2,[sp,#4]
        0x000013ae:    9903        ..      LDR      r1,[sp,#0xc]
        0x000013b0:    5c89        .\      LDRB     r1,[r1,r2]
        0x000013b2:    2900        .)      CMP      r1,#0
        0x000013b4:    d1f2        ..      BNE      0x139c ; _printf_core + 396
        0x000013b6:    e00b        ..      B        0x13d0 ; _printf_core + 448
        0x000013b8:    2100        .!      MOVS     r1,#0
        0x000013ba:    e001        ..      B        0x13c0 ; _printf_core + 432
        0x000013bc:    9901        ..      LDR      r1,[sp,#4]
        0x000013be:    1c49        I.      ADDS     r1,r1,#1
        0x000013c0:    9101        ..      STR      r1,[sp,#4]
        0x000013c2:    4281        .B      CMP      r1,r0
        0x000013c4:    dbfa        ..      BLT      0x13bc ; _printf_core + 428
        0x000013c6:    9a01        ..      LDR      r2,[sp,#4]
        0x000013c8:    9903        ..      LDR      r1,[sp,#0xc]
        0x000013ca:    5c89        .\      LDRB     r1,[r1,r2]
        0x000013cc:    2900        .)      CMP      r1,#0
        0x000013ce:    d1f5        ..      BNE      0x13bc ; _printf_core + 428
        0x000013d0:    9901        ..      LDR      r1,[sp,#4]
        0x000013d2:    9800        ..      LDR      r0,[sp,#0]
        0x000013d4:    9a13        ..      LDR      r2,[sp,#0x4c]
        0x000013d6:    1a40        @.      SUBS     r0,r0,r1
        0x000013d8:    9000        ..      STR      r0,[sp,#0]
        0x000013da:    4621        !F      MOV      r1,r4
        0x000013dc:    9b14        ..      LDR      r3,[sp,#0x50]
        0x000013de:    f000f93b    ..;.    BL       _printf_pre_padding ; 0x1658
        0x000013e2:    9901        ..      LDR      r1,[sp,#4]
        0x000013e4:    1980        ..      ADDS     r0,r0,r6
        0x000013e6:    1846        F.      ADDS     r6,r0,r1
        0x000013e8:    e007        ..      B        0x13fa ; _printf_core + 490
        0x000013ea:    9803        ..      LDR      r0,[sp,#0xc]
        0x000013ec:    9903        ..      LDR      r1,[sp,#0xc]
        0x000013ee:    7800        .x      LDRB     r0,[r0,#0]
        0x000013f0:    1c49        I.      ADDS     r1,r1,#1
        0x000013f2:    9103        ..      STR      r1,[sp,#0xc]
        0x000013f4:    9a14        ..      LDR      r2,[sp,#0x50]
        0x000013f6:    9913        ..      LDR      r1,[sp,#0x4c]
        0x000013f8:    4790        .G      BLX      r2
        0x000013fa:    9801        ..      LDR      r0,[sp,#4]
        0x000013fc:    1e40        @.      SUBS     r0,r0,#1
        0x000013fe:    9001        ..      STR      r0,[sp,#4]
        0x00001400:    1c40        @.      ADDS     r0,r0,#1
        0x00001402:    d1f2        ..      BNE      0x13ea ; _printf_core + 474
        0x00001404:    4621        !F      MOV      r1,r4
        0x00001406:    9b14        ..      LDR      r3,[sp,#0x50]
        0x00001408:    9a13        ..      LDR      r2,[sp,#0x4c]
        0x0000140a:    9800        ..      LDR      r0,[sp,#0]
        0x0000140c:    f000f914    ....    BL       _printf_post_padding ; 0x1638
        0x00001410:    1986        ..      ADDS     r6,r0,r6
        0x00001412:    1c6d        m.      ADDS     r5,r5,#1
        0x00001414:    e709        ..      B        0x122a ; _printf_core + 26
        0x00001416:    e041        A.      B        0x149c ; _printf_core + 652
        0x00001418:    e033        3.      B        0x1482 ; _printf_core + 626
        0x0000141a:    e034        4.      B        0x1486 ; _printf_core + 630
        0x0000141c:    200a        .       MOVS     r0,#0xa
        0x0000141e:    2100        .!      MOVS     r1,#0
        0x00001420:    9004        ..      STR      r0,[sp,#0x10]
        0x00001422:    9105        ..      STR      r1,[sp,#0x14]
        0x00001424:    0260        `.      LSLS     r0,r4,#9
        0x00001426:    0f41        A.      LSRS     r1,r0,#29
        0x00001428:    2902        .)      CMP      r1,#2
        0x0000142a:    d005        ..      BEQ      0x1438 ; _printf_core + 552
        0x0000142c:    cf01        ..      LDM      r7!,{r0}
        0x0000142e:    17c2        ..      ASRS     r2,r0,#31
        0x00001430:    4694        .F      MOV      r12,r2
        0x00001432:    2903        .)      CMP      r1,#3
        0x00001434:    d005        ..      BEQ      0x1442 ; _printf_core + 562
        0x00001436:    e007        ..      B        0x1448 ; _printf_core + 568
        0x00001438:    1dff        ..      ADDS     r7,r7,#7
        0x0000143a:    08ff        ..      LSRS     r7,r7,#3
        0x0000143c:    00ff        ..      LSLS     r7,r7,#3
        0x0000143e:    cf03        ..      LDM      r7!,{r0,r1}
        0x00001440:    e006        ..      B        0x1450 ; _printf_core + 576
        0x00001442:    b200        ..      SXTH     r0,r0
        0x00001444:    17c2        ..      ASRS     r2,r0,#31
        0x00001446:    4694        .F      MOV      r12,r2
        0x00001448:    2904        .)      CMP      r1,#4
        0x0000144a:    d102        ..      BNE      0x1452 ; _printf_core + 578
        0x0000144c:    b240        @.      SXTB     r0,r0
        0x0000144e:    17c1        ..      ASRS     r1,r0,#31
        0x00001450:    468c        .F      MOV      r12,r1
        0x00001452:    2200        ."      MOVS     r2,#0
        0x00001454:    4661        aF      MOV      r1,r12
        0x00001456:    4594        .E      CMP      r12,r2
        0x00001458:    da06        ..      BGE      0x1468 ; _printf_core + 600
        0x0000145a:    460a        .F      MOV      r2,r1
        0x0000145c:    2100        .!      MOVS     r1,#0
        0x0000145e:    4240        @B      RSBS     r0,r0,#0
        0x00001460:    4191        .A      SBCS     r1,r1,r2
        0x00001462:    468c        .F      MOV      r12,r1
        0x00001464:    212d        -!      MOVS     r1,#0x2d
        0x00001466:    e002        ..      B        0x146e ; _printf_core + 606
        0x00001468:    0521        !.      LSLS     r1,r4,#20
        0x0000146a:    d504        ..      BPL      0x1476 ; _printf_core + 614
        0x0000146c:    212b        +!      MOVS     r1,#0x2b
        0x0000146e:    466a        jF      MOV      r2,sp
        0x00001470:    7611        .v      STRB     r1,[r2,#0x18]
        0x00001472:    2101        .!      MOVS     r1,#1
        0x00001474:    e003        ..      B        0x147e ; _printf_core + 622
        0x00001476:    07e1        ..      LSLS     r1,r4,#31
        0x00001478:    d001        ..      BEQ      0x147e ; _printf_core + 622
        0x0000147a:    2120         !      MOVS     r1,#0x20
        0x0000147c:    e7f7        ..      B        0x146e ; _printf_core + 606
        0x0000147e:    9101        ..      STR      r1,[sp,#4]
        0x00001480:    e054        T.      B        0x152c ; _printf_core + 796
        0x00001482:    200a        .       MOVS     r0,#0xa
        0x00001484:    e00b        ..      B        0x149e ; _printf_core + 654
        0x00001486:    2010        .       MOVS     r0,#0x10
        0x00001488:    e009        ..      B        0x149e ; _printf_core + 654
        0x0000148a:    2010        .       MOVS     r0,#0x10
        0x0000148c:    9004        ..      STR      r0,[sp,#0x10]
        0x0000148e:    2100        .!      MOVS     r1,#0
        0x00001490:    2004        .       MOVS     r0,#4
        0x00001492:    4304        .C      ORRS     r4,r4,r0
        0x00001494:    2008        .       MOVS     r0,#8
        0x00001496:    9105        ..      STR      r1,[sp,#0x14]
        0x00001498:    9002        ..      STR      r0,[sp,#8]
        0x0000149a:    e003        ..      B        0x14a4 ; _printf_core + 660
        0x0000149c:    2008        .       MOVS     r0,#8
        0x0000149e:    2100        .!      MOVS     r1,#0
        0x000014a0:    9105        ..      STR      r1,[sp,#0x14]
        0x000014a2:    9004        ..      STR      r0,[sp,#0x10]
        0x000014a4:    0260        `.      LSLS     r0,r4,#9
        0x000014a6:    0f41        A.      LSRS     r1,r0,#29
        0x000014a8:    2902        .)      CMP      r1,#2
        0x000014aa:    d005        ..      BEQ      0x14b8 ; _printf_core + 680
        0x000014ac:    cf01        ..      LDM      r7!,{r0}
        0x000014ae:    2200        ."      MOVS     r2,#0
        0x000014b0:    4694        .F      MOV      r12,r2
        0x000014b2:    2903        .)      CMP      r1,#3
        0x000014b4:    d006        ..      BEQ      0x14c4 ; _printf_core + 692
        0x000014b6:    e006        ..      B        0x14c6 ; _printf_core + 694
        0x000014b8:    1dff        ..      ADDS     r7,r7,#7
        0x000014ba:    08ff        ..      LSRS     r7,r7,#3
        0x000014bc:    00ff        ..      LSLS     r7,r7,#3
        0x000014be:    cf03        ..      LDM      r7!,{r0,r1}
        0x000014c0:    468c        .F      MOV      r12,r1
        0x000014c2:    e003        ..      B        0x14cc ; _printf_core + 700
        0x000014c4:    b280        ..      UXTH     r0,r0
        0x000014c6:    2904        .)      CMP      r1,#4
        0x000014c8:    d100        ..      BNE      0x14cc ; _printf_core + 700
        0x000014ca:    b2c0        ..      UXTB     r0,r0
        0x000014cc:    2100        .!      MOVS     r1,#0
        0x000014ce:    9101        ..      STR      r1,[sp,#4]
        0x000014d0:    0721        !.      LSLS     r1,r4,#28
        0x000014d2:    d52b        +.      BPL      0x152c ; _printf_core + 796
        0x000014d4:    9903        ..      LDR      r1,[sp,#0xc]
        0x000014d6:    2970        p)      CMP      r1,#0x70
        0x000014d8:    d006        ..      BEQ      0x14e8 ; _printf_core + 728
        0x000014da:    9a04        ..      LDR      r2,[sp,#0x10]
        0x000014dc:    2110        .!      MOVS     r1,#0x10
        0x000014de:    9b05        ..      LDR      r3,[sp,#0x14]
        0x000014e0:    404a        J@      EORS     r2,r2,r1
        0x000014e2:    431a        .C      ORRS     r2,r2,r3
        0x000014e4:    d005        ..      BEQ      0x14f2 ; _printf_core + 738
        0x000014e6:    e00e        ..      B        0x1506 ; _printf_core + 758
        0x000014e8:    2140        @!      MOVS     r1,#0x40
        0x000014ea:    466a        jF      MOV      r2,sp
        0x000014ec:    7611        .v      STRB     r1,[r2,#0x18]
        0x000014ee:    2101        .!      MOVS     r1,#1
        0x000014f0:    e008        ..      B        0x1504 ; _printf_core + 756
        0x000014f2:    4661        aF      MOV      r1,r12
        0x000014f4:    4301        .C      ORRS     r1,r1,r0
        0x000014f6:    d006        ..      BEQ      0x1506 ; _printf_core + 758
        0x000014f8:    2130        0!      MOVS     r1,#0x30
        0x000014fa:    466a        jF      MOV      r2,sp
        0x000014fc:    7611        .v      STRB     r1,[r2,#0x18]
        0x000014fe:    9903        ..      LDR      r1,[sp,#0xc]
        0x00001500:    7651        Qv      STRB     r1,[r2,#0x19]
        0x00001502:    2102        .!      MOVS     r1,#2
        0x00001504:    9101        ..      STR      r1,[sp,#4]
        0x00001506:    9a04        ..      LDR      r2,[sp,#0x10]
        0x00001508:    2108        .!      MOVS     r1,#8
        0x0000150a:    9b05        ..      LDR      r3,[sp,#0x14]
        0x0000150c:    404a        J@      EORS     r2,r2,r1
        0x0000150e:    431a        .C      ORRS     r2,r2,r3
        0x00001510:    d10c        ..      BNE      0x152c ; _printf_core + 796
        0x00001512:    4661        aF      MOV      r1,r12
        0x00001514:    4301        .C      ORRS     r1,r1,r0
        0x00001516:    d101        ..      BNE      0x151c ; _printf_core + 780
        0x00001518:    0761        a.      LSLS     r1,r4,#29
        0x0000151a:    d507        ..      BPL      0x152c ; _printf_core + 796
        0x0000151c:    2130        0!      MOVS     r1,#0x30
        0x0000151e:    466a        jF      MOV      r2,sp
        0x00001520:    7611        .v      STRB     r1,[r2,#0x18]
        0x00001522:    2101        .!      MOVS     r1,#1
        0x00001524:    9101        ..      STR      r1,[sp,#4]
        0x00001526:    9902        ..      LDR      r1,[sp,#8]
        0x00001528:    1e49        I.      SUBS     r1,r1,#1
        0x0000152a:    9102        ..      STR      r1,[sp,#8]
        0x0000152c:    9903        ..      LDR      r1,[sp,#0xc]
        0x0000152e:    2958        X)      CMP      r1,#0x58
        0x00001530:    d004        ..      BEQ      0x153c ; _printf_core + 812
        0x00001532:    a137        7.      ADR      r1,{pc}+0xde ; 0x1610
        0x00001534:    9103        ..      STR      r1,[sp,#0xc]
        0x00001536:    a90f        ..      ADD      r1,sp,#0x3c
        0x00001538:    910f        ..      STR      r1,[sp,#0x3c]
        0x0000153a:    e00d        ..      B        0x1558 ; _printf_core + 840
        0x0000153c:    a139        9.      ADR      r1,{pc}+0xe8 ; 0x1624
        0x0000153e:    e7f9        ..      B        0x1534 ; _printf_core + 804
        0x00001540:    4661        aF      MOV      r1,r12
        0x00001542:    9b05        ..      LDR      r3,[sp,#0x14]
        0x00001544:    9a04        ..      LDR      r2,[sp,#0x10]
        0x00001546:    f7fefe0a    ....    BL       __aeabi_uldivmod ; 0x15e
        0x0000154a:    9b03        ..      LDR      r3,[sp,#0xc]
        0x0000154c:    468c        .F      MOV      r12,r1
        0x0000154e:    5c9b        .\      LDRB     r3,[r3,r2]
        0x00001550:    9a0f        ..      LDR      r2,[sp,#0x3c]
        0x00001552:    1e52        R.      SUBS     r2,r2,#1
        0x00001554:    920f        ..      STR      r2,[sp,#0x3c]
        0x00001556:    7013        .p      STRB     r3,[r2,#0]
        0x00001558:    4661        aF      MOV      r1,r12
        0x0000155a:    4301        .C      ORRS     r1,r1,r0
        0x0000155c:    d1f0        ..      BNE      0x1540 ; _printf_core + 816
        0x0000155e:    980f        ..      LDR      r0,[sp,#0x3c]
        0x00001560:    a907        ..      ADD      r1,sp,#0x1c
        0x00001562:    1a08        ..      SUBS     r0,r1,r0
        0x00001564:    3020         0      ADDS     r0,r0,#0x20
        0x00001566:    9003        ..      STR      r0,[sp,#0xc]
        0x00001568:    0760        `.      LSLS     r0,r4,#29
        0x0000156a:    d504        ..      BPL      0x1576 ; _printf_core + 870
        0x0000156c:    2001        .       MOVS     r0,#1
        0x0000156e:    0400        ..      LSLS     r0,r0,#16
        0x00001570:    4384        .C      BICS     r4,r4,r0
        0x00001572:    9802        ..      LDR      r0,[sp,#8]
        0x00001574:    e001        ..      B        0x157a ; _printf_core + 874
        0x00001576:    2001        .       MOVS     r0,#1
        0x00001578:    9002        ..      STR      r0,[sp,#8]
        0x0000157a:    9903        ..      LDR      r1,[sp,#0xc]
        0x0000157c:    4288        .B      CMP      r0,r1
        0x0000157e:    dd01        ..      BLE      0x1584 ; _printf_core + 884
        0x00001580:    1a40        @.      SUBS     r0,r0,r1
        0x00001582:    e000        ..      B        0x1586 ; _printf_core + 886
        0x00001584:    2000        .       MOVS     r0,#0
        0x00001586:    1841        A.      ADDS     r1,r0,r1
        0x00001588:    9002        ..      STR      r0,[sp,#8]
        0x0000158a:    9801        ..      LDR      r0,[sp,#4]
        0x0000158c:    1809        ..      ADDS     r1,r1,r0
        0x0000158e:    9800        ..      LDR      r0,[sp,#0]
        0x00001590:    1a40        @.      SUBS     r0,r0,r1
        0x00001592:    9000        ..      STR      r0,[sp,#0]
        0x00001594:    03e0        ..      LSLS     r0,r4,#15
        0x00001596:    d406        ..      BMI      0x15a6 ; _printf_core + 918
        0x00001598:    4621        !F      MOV      r1,r4
        0x0000159a:    9b14        ..      LDR      r3,[sp,#0x50]
        0x0000159c:    9a13        ..      LDR      r2,[sp,#0x4c]
        0x0000159e:    9800        ..      LDR      r0,[sp,#0]
        0x000015a0:    f000f85a    ..Z.    BL       _printf_pre_padding ; 0x1658
        0x000015a4:    1986        ..      ADDS     r6,r0,r6
        0x000015a6:    2000        .       MOVS     r0,#0
        0x000015a8:    9004        ..      STR      r0,[sp,#0x10]
        0x000015aa:    e008        ..      B        0x15be ; _printf_core + 942
        0x000015ac:    a906        ..      ADD      r1,sp,#0x18
        0x000015ae:    5c08        .\      LDRB     r0,[r1,r0]
        0x000015b0:    9a14        ..      LDR      r2,[sp,#0x50]
        0x000015b2:    9913        ..      LDR      r1,[sp,#0x4c]
        0x000015b4:    4790        .G      BLX      r2
        0x000015b6:    9804        ..      LDR      r0,[sp,#0x10]
        0x000015b8:    1c40        @.      ADDS     r0,r0,#1
        0x000015ba:    1c76        v.      ADDS     r6,r6,#1
        0x000015bc:    9004        ..      STR      r0,[sp,#0x10]
        0x000015be:    9901        ..      LDR      r1,[sp,#4]
        0x000015c0:    4288        .B      CMP      r0,r1
        0x000015c2:    dbf3        ..      BLT      0x15ac ; _printf_core + 924
        0x000015c4:    03e0        ..      LSLS     r0,r4,#15
        0x000015c6:    d50c        ..      BPL      0x15e2 ; _printf_core + 978
        0x000015c8:    4621        !F      MOV      r1,r4
        0x000015ca:    9b14        ..      LDR      r3,[sp,#0x50]
        0x000015cc:    9a13        ..      LDR      r2,[sp,#0x4c]
        0x000015ce:    9800        ..      LDR      r0,[sp,#0]
        0x000015d0:    f000f842    ..B.    BL       _printf_pre_padding ; 0x1658
        0x000015d4:    1986        ..      ADDS     r6,r0,r6
        0x000015d6:    e004        ..      B        0x15e2 ; _printf_core + 978
        0x000015d8:    9a14        ..      LDR      r2,[sp,#0x50]
        0x000015da:    2030        0       MOVS     r0,#0x30
        0x000015dc:    9913        ..      LDR      r1,[sp,#0x4c]
        0x000015de:    4790        .G      BLX      r2
        0x000015e0:    1c76        v.      ADDS     r6,r6,#1
        0x000015e2:    9902        ..      LDR      r1,[sp,#8]
        0x000015e4:    1e48        H.      SUBS     r0,r1,#1
        0x000015e6:    9002        ..      STR      r0,[sp,#8]
        0x000015e8:    2900        .)      CMP      r1,#0
        0x000015ea:    dcf5        ..      BGT      0x15d8 ; _printf_core + 968
        0x000015ec:    e008        ..      B        0x1600 ; _printf_core + 1008
        0x000015ee:    980f        ..      LDR      r0,[sp,#0x3c]
        0x000015f0:    990f        ..      LDR      r1,[sp,#0x3c]
        0x000015f2:    7800        .x      LDRB     r0,[r0,#0]
        0x000015f4:    1c49        I.      ADDS     r1,r1,#1
        0x000015f6:    910f        ..      STR      r1,[sp,#0x3c]
        0x000015f8:    9a14        ..      LDR      r2,[sp,#0x50]
        0x000015fa:    9913        ..      LDR      r1,[sp,#0x4c]
        0x000015fc:    4790        .G      BLX      r2
        0x000015fe:    1c76        v.      ADDS     r6,r6,#1
        0x00001600:    9903        ..      LDR      r1,[sp,#0xc]
        0x00001602:    1e48        H.      SUBS     r0,r1,#1
        0x00001604:    9003        ..      STR      r0,[sp,#0xc]
        0x00001606:    2900        .)      CMP      r1,#0
        0x00001608:    dcf1        ..      BGT      0x15ee ; _printf_core + 990
        0x0000160a:    e6fb        ..      B        0x1404 ; _printf_core + 500
    $d
        0x0000160c:    00012809    .(..    DCD    75785
        0x00001610:    33323130    0123    DCD    858927408
        0x00001614:    37363534    4567    DCD    926299444
        0x00001618:    62613938    89ab    DCD    1650538808
        0x0000161c:    66656463    cdef    DCD    1717920867
        0x00001620:    00000000    ....    DCD    0
        0x00001624:    33323130    0123    DCD    858927408
        0x00001628:    37363534    4567    DCD    926299444
        0x0000162c:    42413938    89AB    DCD    1111570744
        0x00001630:    46454443    CDEF    DCD    1178944579
        0x00001634:    00000000    ....    DCD    0
    $t
    i._printf_post_padding
    _printf_post_padding
        0x00001638:    b5f8        ..      PUSH     {r3-r7,lr}
        0x0000163a:    4604        .F      MOV      r4,r0
        0x0000163c:    2500        .%      MOVS     r5,#0
        0x0000163e:    461e        .F      MOV      r6,r3
        0x00001640:    4617        .F      MOV      r7,r2
        0x00001642:    0488        ..      LSLS     r0,r1,#18
        0x00001644:    d404        ..      BMI      0x1650 ; _printf_post_padding + 24
        0x00001646:    e005        ..      B        0x1654 ; _printf_post_padding + 28
        0x00001648:    4639        9F      MOV      r1,r7
        0x0000164a:    2020                MOVS     r0,#0x20
        0x0000164c:    47b0        .G      BLX      r6
        0x0000164e:    1c6d        m.      ADDS     r5,r5,#1
        0x00001650:    1e64        d.      SUBS     r4,r4,#1
        0x00001652:    d5f9        ..      BPL      0x1648 ; _printf_post_padding + 16
        0x00001654:    4628        (F      MOV      r0,r5
        0x00001656:    bdf8        ..      POP      {r3-r7,pc}
    i._printf_pre_padding
    _printf_pre_padding
        0x00001658:    b5ff        ..      PUSH     {r0-r7,lr}
        0x0000165a:    4604        .F      MOV      r4,r0
        0x0000165c:    2500        .%      MOVS     r5,#0
        0x0000165e:    b081        ..      SUB      sp,sp,#4
        0x00001660:    461e        .F      MOV      r6,r3
        0x00001662:    03c8        ..      LSLS     r0,r1,#15
        0x00001664:    d501        ..      BPL      0x166a ; _printf_pre_padding + 18
        0x00001666:    2730        0'      MOVS     r7,#0x30
        0x00001668:    e000        ..      B        0x166c ; _printf_pre_padding + 20
        0x0000166a:    2720         '      MOVS     r7,#0x20
        0x0000166c:    0488        ..      LSLS     r0,r1,#18
        0x0000166e:    d504        ..      BPL      0x167a ; _printf_pre_padding + 34
        0x00001670:    e005        ..      B        0x167e ; _printf_pre_padding + 38
        0x00001672:    4638        8F      MOV      r0,r7
        0x00001674:    9903        ..      LDR      r1,[sp,#0xc]
        0x00001676:    47b0        .G      BLX      r6
        0x00001678:    1c6d        m.      ADDS     r5,r5,#1
        0x0000167a:    1e64        d.      SUBS     r4,r4,#1
        0x0000167c:    d5f9        ..      BPL      0x1672 ; _printf_pre_padding + 26
        0x0000167e:    4628        (F      MOV      r0,r5
        0x00001680:    b005        ..      ADD      sp,sp,#0x14
        0x00001682:    bdf0        ..      POP      {r4-r7,pc}
    i.puts
    puts
        0x00001684:    b510        ..      PUSH     {r4,lr}
        0x00001686:    4604        .F      MOV      r4,r0
        0x00001688:    e001        ..      B        0x168e ; puts + 10
        0x0000168a:    f7fffd49    ..I.    BL       fputc ; 0x1120
        0x0000168e:    7820         x      LDRB     r0,[r4,#0]
        0x00001690:    1c64        d.      ADDS     r4,r4,#1
        0x00001692:    4903        .I      LDR      r1,[pc,#12] ; [0x16a0] = 0x20000080
        0x00001694:    2800        .(      CMP      r0,#0
        0x00001696:    d1f8        ..      BNE      0x168a ; puts + 6
        0x00001698:    200a        .       MOVS     r0,#0xa
        0x0000169a:    f7fffd41    ..A.    BL       fputc ; 0x1120
        0x0000169e:    bd10        ..      POP      {r4,pc}
    $d
        0x000016a0:    20000080    ...     DCD    536871040
    $d.realdata
        0x000016a4:    00000000    ....    DCD    0
        0x000016a8:    00000004    ....    DCD    4
        0x000016ac:    0000002c    ,...    DCD    44
        0x000016b0:    00000000    ....    DCD    0
    Region$$Table$$Base
        0x000016b4:    000016d4    ....    DCD    5844
        0x000016b8:    20000000    ...     DCD    536870912
        0x000016bc:    00000030    0...    DCD    48
        0x000016c0:    000011f0    ....    DCD    4592
        0x000016c4:    00001704    ....    DCD    5892
        0x000016c8:    20000030    0..     DCD    536870960
        0x000016cc:    00000460    `...    DCD    1120
        0x000016d0:    00001200    ....    DCD    4608
    Region$$Table$$Limit

** Section #2 'ER_RW' (SHT_PROGBITS) [SHF_ALLOC + SHF_WRITE]
    Size   : 48 bytes (alignment 4)
    Address: 0x20000000


** Section #3 'ER_ZI' (SHT_NOBITS) [SHF_ALLOC + SHF_WRITE]
    Size   : 1120 bytes (alignment 8)
    Address: 0x20000030


** Section #4 '.debug_abbrev' (SHT_PROGBITS)
    Size   : 5066 bytes


** Section #5 '.debug_frame' (SHT_PROGBITS)
    Size   : 2732 bytes


** Section #6 '.debug_info' (SHT_PROGBITS)
    Size   : 14603 bytes


** Section #7 '.debug_line' (SHT_PROGBITS)
    Size   : 11094 bytes


** Section #8 '.debug_loc' (SHT_PROGBITS)
    Size   : 5404 bytes


** Section #9 '.debug_ranges' (SHT_PROGBITS)
    Size   : 1000 bytes


** Section #10 '.debug_str' (SHT_PROGBITS)
    Size   : 10388 bytes


** Section #11 '.symtab' (SHT_SYMTAB)
    Size   : 7632 bytes (alignment 4)
    String table #12 '.strtab'
    Last local symbol no. 314


** Section #12 '.strtab' (SHT_STRTAB)
    Size   : 5520 bytes


** Section #13 '.note' (SHT_NOTE)
    Size   : 28 bytes (alignment 4)


** Section #14 '.comment' (SHT_PROGBITS)
    Size   : 1896 bytes


** Section #15 '.shstrtab' (SHT_STRTAB)
    Size   : 148 bytes


