
========================================================================

** ELF Header Information

    File Name: .\Objects\SabanWi_Client.axf

    Machine class: ELFCLASS32 (32-bit)
    Data encoding: ELFDATA2LSB (Little endian)
    Header version: EV_CURRENT (Current version)
    Operating System ABI: none
    ABI Version: 0
    File Type: ET_EXEC (Executable) (2)
    Machine: EM_ARM (ARM)

    Image Entry point: 0x000000d5
    Flags: EF_ARM_HASENTRY + EF_ARM_ABI_FLOAT_SOFT (0x05000202)

    ARM ELF revision: 5 (ABI version 2)

    Conforms to Soft float procedure-call standard

    Built with
    Component: Arm Compiler for Embedded 6.22 Tool: armasm [5ee90e00]
    Component: Arm Compiler for Embedded 6.22 Tool: armlink [5ee90200]

    Header size: 52 bytes (0x34)
    Program header entry size: 32 bytes (0x20)
    Section header entry size: 40 bytes (0x28)

    Program header entries: 1
    Section header entries: 16

    Program header offset: 163488 (0x00027ea0)
    Section header offset: 163520 (0x00027ec0)

    Section header string table index: 15

========================================================================

** Program header #0 (PT_LOAD) [PF_X + PF_W + PF_R + PF_ARM_ENTRY]
    Size : 22160 bytes (10936 bytes in file)
    Virtual address: 0x00000000 (Alignment 8)


========================================================================

** Section #1 'ER_RO' (SHT_PROGBITS) [SHF_ALLOC + SHF_EXECINSTR]
    Size   : 10844 bytes (alignment 4)
    Address: 0x00000000

    $d.realdata
    RESET
    __Vectors
        0x00000000:    20002c38    8,.     DCD    536882232
        0x00000004:    000000d5    ....    DCD    213
        0x00000008:    000000f5    ....    DCD    245
        0x0000000c:    00000c01    ....    DCD    3073
        0x00000010:    00000000    ....    DCD    0
        0x00000014:    00000000    ....    DCD    0
        0x00000018:    00000000    ....    DCD    0
        0x0000001c:    00000000    ....    DCD    0
        0x00000020:    00000000    ....    DCD    0
        0x00000024:    00000000    ....    DCD    0
        0x00000028:    00000000    ....    DCD    0
        0x0000002c:    000000f9    ....    DCD    249
        0x00000030:    00000000    ....    DCD    0
        0x00000034:    00000000    ....    DCD    0
        0x00000038:    000000fb    ....    DCD    251
        0x0000003c:    000000fd    ....    DCD    253
        0x00000040:    000000ff    ....    DCD    255
        0x00000044:    0000213d    =!..    DCD    8509
        0x00000048:    000000ff    ....    DCD    255
        0x0000004c:    000000ff    ....    DCD    255
        0x00000050:    00000945    E...    DCD    2373
        0x00000054:    000009e1    ....    DCD    2529
        0x00000058:    000000ff    ....    DCD    255
        0x0000005c:    000000ff    ....    DCD    255
        0x00000060:    000000ff    ....    DCD    255
        0x00000064:    000015c5    ....    DCD    5573
        0x00000068:    000000ff    ....    DCD    255
        0x0000006c:    000000ff    ....    DCD    255
        0x00000070:    000000ff    ....    DCD    255
        0x00000074:    000017f9    ....    DCD    6137
        0x00000078:    000000ff    ....    DCD    255
        0x0000007c:    000000ff    ....    DCD    255
        0x00000080:    000000ff    ....    DCD    255
        0x00000084:    000000ff    ....    DCD    255
        0x00000088:    000000ff    ....    DCD    255
        0x0000008c:    000000ff    ....    DCD    255
        0x00000090:    000000ff    ....    DCD    255
        0x00000094:    000000ff    ....    DCD    255
        0x00000098:    000000ff    ....    DCD    255
        0x0000009c:    00001a39    9...    DCD    6713
        0x000000a0:    000000ff    ....    DCD    255
        0x000000a4:    000000ff    ....    DCD    255
        0x000000a8:    000000ff    ....    DCD    255
        0x000000ac:    000000ff    ....    DCD    255
        0x000000b0:    000000ff    ....    DCD    255
        0x000000b4:    000000ff    ....    DCD    255
        0x000000b8:    000000ff    ....    DCD    255
        0x000000bc:    000000ff    ....    DCD    255
    $t
    .ARM.Collect$$$$00000000
    .ARM.Collect$$$$00000001
    __main
    _main_stk
        0x000000c0:    4803        .H      LDR      r0,__lit__00000000 ; [0xd0] = 0x20002c38
        0x000000c2:    4685        .F      MOV      sp,r0
    .ARM.Collect$$$$00000004
    _main_scatterload
        0x000000c4:    f000fa5a    ..Z.    BL       __scatterload ; 0x57c
    .ARM.Collect$$$$00000008
    .ARM.Collect$$$$0000000A
    .ARM.Collect$$$$0000000B
    __main_after_scatterload
    _main_clock
    _main_cpp_init
    _main_init
        0x000000c8:    4800        .H      LDR      r0,[pc,#0] ; [0xcc] = 0x22c1
        0x000000ca:    4700        .G      BX       r0
    $d
        0x000000cc:    000022c1    ."..    DCD    8897
    .ARM.Collect$$$$00002712
    __lit__00000000
    .ARM.Collect$$$$0000000D
    .ARM.Collect$$$$0000000F
    __rt_final_cpp
    __rt_final_exit
        0x000000d0:    20002c38    8,.     DCD    536882232
    $t
    .text
    Reset_Handler
        0x000000d4:    480a        .H      LDR      r0,[pc,#40] ; [0x100] = 0x50000100
        0x000000d6:    490b        .I      LDR      r1,[pc,#44] ; [0x104] = 0x59
        0x000000d8:    6001        .`      STR      r1,[r0,#0]
        0x000000da:    490b        .I      LDR      r1,[pc,#44] ; [0x108] = 0x16
        0x000000dc:    6001        .`      STR      r1,[r0,#0]
        0x000000de:    490b        .I      LDR      r1,[pc,#44] ; [0x10c] = 0x88
        0x000000e0:    6001        .`      STR      r1,[r0,#0]
        0x000000e2:    4a0b        .J      LDR      r2,[pc,#44] ; [0x110] = 0x50000024
        0x000000e4:    490b        .I      LDR      r1,[pc,#44] ; [0x114] = 0x5aa5
        0x000000e6:    6011        .`      STR      r1,[r2,#0]
        0x000000e8:    2100        .!      MOVS     r1,#0
        0x000000ea:    6001        .`      STR      r1,[r0,#0]
        0x000000ec:    480a        .H      LDR      r0,[pc,#40] ; [0x118] = 0x15c1
        0x000000ee:    4780        .G      BLX      r0
        0x000000f0:    480a        .H      LDR      r0,[pc,#40] ; [0x11c] = 0xc1
        0x000000f2:    4700        .G      BX       r0
    NMI_Handler
        0x000000f4:    e7fe        ..      B        NMI_Handler ; 0xf4
        0x000000f6:    e7fe        ..      B        0xf6 ; NMI_Handler + 2
    SVC_Handler
        0x000000f8:    e7fe        ..      B        SVC_Handler ; 0xf8
    PendSV_Handler
        0x000000fa:    e7fe        ..      B        PendSV_Handler ; 0xfa
    SysTick_Handler
        0x000000fc:    e7fe        ..      B        SysTick_Handler ; 0xfc
    Default_Handler
    ACMP_IRQHandler
    ADC_IRQHandler
    BOD_IRQHandler
    CAN0_IRQHandler
    CAN1_IRQHandler
    EINT0_IRQHandler
    EINT1_IRQHandler
    I2C0_IRQHandler
    I2C1_IRQHandler
    I2S_IRQHandler
    PDMA_IRQHandler
    PS2_IRQHandler
    PWMA_IRQHandler
    PWMB_IRQHandler
    PWRWU_IRQHandler
    RTC_IRQHandler
    SC012_IRQHandler
    SPI0_IRQHandler
    SPI1_IRQHandler
    SPI2_IRQHandler
    SPI3_IRQHandler
    TMR0_IRQHandler
    TMR2_IRQHandler
    TMR3_IRQHandler
    UART02_IRQHandler
        0x000000fe:    e7fe        ..      B        Default_Handler ; 0xfe
    $d
        0x00000100:    50000100    ...P    DCD    1342177536
        0x00000104:    00000059    Y...    DCD    89
        0x00000108:    00000016    ....    DCD    22
        0x0000010c:    00000088    ....    DCD    136
        0x00000110:    50000024    $..P    DCD    1342177316
        0x00000114:    00005aa5    .Z..    DCD    23205
        0x00000118:    000015c1    ....    DCD    5569
        0x0000011c:    000000c1    ....    DCD    193
    $t
    .text
    __aeabi_memcpy
    __aeabi_memcpy4
    __aeabi_memcpy8
        0x00000120:    4603        .F      MOV      r3,r0
        0x00000122:    430b        .C      ORRS     r3,r3,r1
        0x00000124:    079b        ..      LSLS     r3,r3,#30
        0x00000126:    d003        ..      BEQ      0x130 ; __aeabi_memcpy + 16
        0x00000128:    e009        ..      B        0x13e ; __aeabi_memcpy + 30
        0x0000012a:    c908        ..      LDM      r1!,{r3}
        0x0000012c:    1f12        ..      SUBS     r2,r2,#4
        0x0000012e:    c008        ..      STM      r0!,{r3}
        0x00000130:    2a04        .*      CMP      r2,#4
        0x00000132:    d2fa        ..      BCS      0x12a ; __aeabi_memcpy + 10
        0x00000134:    e003        ..      B        0x13e ; __aeabi_memcpy + 30
        0x00000136:    780b        .x      LDRB     r3,[r1,#0]
        0x00000138:    7003        .p      STRB     r3,[r0,#0]
        0x0000013a:    1c40        @.      ADDS     r0,r0,#1
        0x0000013c:    1c49        I.      ADDS     r1,r1,#1
        0x0000013e:    1e52        R.      SUBS     r2,r2,#1
        0x00000140:    d2f9        ..      BCS      0x136 ; __aeabi_memcpy + 22
        0x00000142:    4770        pG      BX       lr
    .text
    __aeabi_memset
    __aeabi_memset4
    __aeabi_memset8
        0x00000144:    b2d2        ..      UXTB     r2,r2
        0x00000146:    e001        ..      B        0x14c ; __aeabi_memset + 8
        0x00000148:    7002        .p      STRB     r2,[r0,#0]
        0x0000014a:    1c40        @.      ADDS     r0,r0,#1
        0x0000014c:    1e49        I.      SUBS     r1,r1,#1
        0x0000014e:    d2fb        ..      BCS      0x148 ; __aeabi_memset + 4
        0x00000150:    4770        pG      BX       lr
    __aeabi_memclr
    __aeabi_memclr4
    __aeabi_memclr8
        0x00000152:    2200        ."      MOVS     r2,#0
        0x00000154:    e7f6        ..      B        __aeabi_memset ; 0x144
    _memset$wrapper
        0x00000156:    b510        ..      PUSH     {r4,lr}
        0x00000158:    4613        .F      MOV      r3,r2
        0x0000015a:    460a        .F      MOV      r2,r1
        0x0000015c:    4604        .F      MOV      r4,r0
        0x0000015e:    4619        .F      MOV      r1,r3
        0x00000160:    f7fffff0    ....    BL       __aeabi_memset ; 0x144
        0x00000164:    4620         F      MOV      r0,r4
        0x00000166:    bd10        ..      POP      {r4,pc}
    .text
    __aeabi_dmul
        0x00000168:    b5f0        ..      PUSH     {r4-r7,lr}
        0x0000016a:    b41f        ..      PUSH     {r0-r4}
        0x0000016c:    b088        ..      SUB      sp,sp,#0x20
        0x0000016e:    990b        ..      LDR      r1,[sp,#0x2c]
        0x00000170:    9809        ..      LDR      r0,[sp,#0x24]
        0x00000172:    2400        .$      MOVS     r4,#0
        0x00000174:    4048        H@      EORS     r0,r0,r1
        0x00000176:    9909        ..      LDR      r1,[sp,#0x24]
        0x00000178:    0fc0        ..      LSRS     r0,r0,#31
        0x0000017a:    0049        I.      LSLS     r1,r1,#1
        0x0000017c:    0849        I.      LSRS     r1,r1,#1
        0x0000017e:    9109        ..      STR      r1,[sp,#0x24]
        0x00000180:    07c0        ..      LSLS     r0,r0,#31
        0x00000182:    990b        ..      LDR      r1,[sp,#0x2c]
        0x00000184:    9000        ..      STR      r0,[sp,#0]
        0x00000186:    0049        I.      LSLS     r1,r1,#1
        0x00000188:    0849        I.      LSRS     r1,r1,#1
        0x0000018a:    910b        ..      STR      r1,[sp,#0x2c]
        0x0000018c:    9909        ..      LDR      r1,[sp,#0x24]
        0x0000018e:    9808        ..      LDR      r0,[sp,#0x20]
        0x00000190:    46a6        .F      MOV      lr,r4
        0x00000192:    4308        .C      ORRS     r0,r0,r1
        0x00000194:    d01c        ..      BEQ      0x1d0 ; __aeabi_dmul + 104
        0x00000196:    990b        ..      LDR      r1,[sp,#0x2c]
        0x00000198:    980a        ..      LDR      r0,[sp,#0x28]
        0x0000019a:    4308        .C      ORRS     r0,r0,r1
        0x0000019c:    d018        ..      BEQ      0x1d0 ; __aeabi_dmul + 104
        0x0000019e:    9809        ..      LDR      r0,[sp,#0x24]
        0x000001a0:    2401        .$      MOVS     r4,#1
        0x000001a2:    0040        @.      LSLS     r0,r0,#1
        0x000001a4:    0d42        B.      LSRS     r2,r0,#21
        0x000001a6:    0048        H.      LSLS     r0,r1,#1
        0x000001a8:    0d41        A.      LSRS     r1,r0,#21
        0x000001aa:    9809        ..      LDR      r0,[sp,#0x24]
        0x000001ac:    0524        $.      LSLS     r4,r4,#20
        0x000001ae:    0300        ..      LSLS     r0,r0,#12
        0x000001b0:    0b00        ..      LSRS     r0,r0,#12
        0x000001b2:    4320         C      ORRS     r0,r0,r4
        0x000001b4:    9009        ..      STR      r0,[sp,#0x24]
        0x000001b6:    980b        ..      LDR      r0,[sp,#0x2c]
        0x000001b8:    0300        ..      LSLS     r0,r0,#12
        0x000001ba:    0b00        ..      LSRS     r0,r0,#12
        0x000001bc:    4320         C      ORRS     r0,r0,r4
        0x000001be:    900b        ..      STR      r0,[sp,#0x2c]
        0x000001c0:    1850        P.      ADDS     r0,r2,r1
        0x000001c2:    491c        .I      LDR      r1,[pc,#112] ; [0x234] = 0xfffffc0d
        0x000001c4:    1840        @.      ADDS     r0,r0,r1
        0x000001c6:    2200        ."      MOVS     r2,#0
        0x000001c8:    9001        ..      STR      r0,[sp,#4]
        0x000001ca:    4614        .F      MOV      r4,r2
        0x000001cc:    4610        .F      MOV      r0,r2
        0x000001ce:    e005        ..      B        0x1dc ; __aeabi_dmul + 116
        0x000001d0:    2000        .       MOVS     r0,#0
        0x000001d2:    4601        .F      MOV      r1,r0
        0x000001d4:    b00d        ..      ADD      sp,sp,#0x34
        0x000001d6:    bdf0        ..      POP      {r4-r7,pc}
        0x000001d8:    2803        .(      CMP      r0,#3
        0x000001da:    da01        ..      BGE      0x1e0 ; __aeabi_dmul + 120
        0x000001dc:    4603        .F      MOV      r3,r0
        0x000001de:    e000        ..      B        0x1e2 ; __aeabi_dmul + 122
        0x000001e0:    2303        .#      MOVS     r3,#3
        0x000001e2:    469c        .F      MOV      r12,r3
        0x000001e4:    1ac1        ..      SUBS     r1,r0,r3
        0x000001e6:    ae0a        ..      ADD      r6,sp,#0x28
        0x000001e8:    e00a        ..      B        0x200 ; __aeabi_dmul + 152
        0x000001ea:    005f        _.      LSLS     r7,r3,#1
        0x000001ec:    ad08        ..      ADD      r5,sp,#0x20
        0x000001ee:    5bed        .[      LDRH     r5,[r5,r7]
        0x000001f0:    004f        O.      LSLS     r7,r1,#1
        0x000001f2:    5bf7        .[      LDRH     r7,[r6,r7]
        0x000001f4:    437d        }C      MULS     r5,r7,r5
        0x000001f6:    2700        .'      MOVS     r7,#0
        0x000001f8:    18aa        ..      ADDS     r2,r5,r2
        0x000001fa:    417c        |A      ADCS     r4,r4,r7
        0x000001fc:    1c49        I.      ADDS     r1,r1,#1
        0x000001fe:    1e5b        [.      SUBS     r3,r3,#1
        0x00000200:    4561        aE      CMP      r1,r12
        0x00000202:    ddf2        ..      BLE      0x1ea ; __aeabi_dmul + 130
        0x00000204:    0041        A.      LSLS     r1,r0,#1
        0x00000206:    ab04        ..      ADD      r3,sp,#0x10
        0x00000208:    525a        ZR      STRH     r2,[r3,r1]
        0x0000020a:    0421        !.      LSLS     r1,r4,#16
        0x0000020c:    0c12        ..      LSRS     r2,r2,#16
        0x0000020e:    430a        .C      ORRS     r2,r2,r1
        0x00000210:    0c24        $.      LSRS     r4,r4,#16
        0x00000212:    1c40        @.      ADDS     r0,r0,#1
        0x00000214:    2808        .(      CMP      r0,#8
        0x00000216:    dbdf        ..      BLT      0x1d8 ; __aeabi_dmul + 112
        0x00000218:    9801        ..      LDR      r0,[sp,#4]
        0x0000021a:    9002        ..      STR      r0,[sp,#8]
        0x0000021c:    9900        ..      LDR      r1,[sp,#0]
        0x0000021e:    4670        pF      MOV      r0,lr
        0x00000220:    9101        ..      STR      r1,[sp,#4]
        0x00000222:    9000        ..      STR      r0,[sp,#0]
        0x00000224:    9b05        ..      LDR      r3,[sp,#0x14]
        0x00000226:    9a04        ..      LDR      r2,[sp,#0x10]
        0x00000228:    9907        ..      LDR      r1,[sp,#0x1c]
        0x0000022a:    9806        ..      LDR      r0,[sp,#0x18]
        0x0000022c:    f000f954    ..T.    BL       _double_epilogue ; 0x4d8
        0x00000230:    e7d0        ..      B        0x1d4 ; __aeabi_dmul + 108
    $d
        0x00000232:    0000        ..      DCW    0
        0x00000234:    fffffc0d    ....    DCD    4294966285
    $t
    .text
    __aeabi_ddiv
        0x00000238:    b5f0        ..      PUSH     {r4-r7,lr}
        0x0000023a:    460c        .F      MOV      r4,r1
        0x0000023c:    405c        \@      EORS     r4,r4,r3
        0x0000023e:    b085        ..      SUB      sp,sp,#0x14
        0x00000240:    0fe4        ..      LSRS     r4,r4,#31
        0x00000242:    07e4        ..      LSLS     r4,r4,#31
        0x00000244:    9403        ..      STR      r4,[sp,#0xc]
        0x00000246:    004c        L.      LSLS     r4,r1,#1
        0x00000248:    2600        .&      MOVS     r6,#0
        0x0000024a:    0864        d.      LSRS     r4,r4,#1
        0x0000024c:    0059        Y.      LSLS     r1,r3,#1
        0x0000024e:    4694        .F      MOV      r12,r2
        0x00000250:    0849        I.      LSRS     r1,r1,#1
        0x00000252:    4602        .F      MOV      r2,r0
        0x00000254:    9602        ..      STR      r6,[sp,#8]
        0x00000256:    4322        "C      ORRS     r2,r2,r4
        0x00000258:    d021        !.      BEQ      0x29e ; __aeabi_ddiv + 102
        0x0000025a:    4662        bF      MOV      r2,r12
        0x0000025c:    430a        .C      ORRS     r2,r2,r1
        0x0000025e:    d01e        ..      BEQ      0x29e ; __aeabi_ddiv + 102
        0x00000260:    0062        b.      LSLS     r2,r4,#1
        0x00000262:    0d57        W.      LSRS     r7,r2,#21
        0x00000264:    004a        J.      LSLS     r2,r1,#1
        0x00000266:    030e        ..      LSLS     r6,r1,#12
        0x00000268:    0323        #.      LSLS     r3,r4,#12
        0x0000026a:    0d55        U.      LSRS     r5,r2,#21
        0x0000026c:    2401        .$      MOVS     r4,#1
        0x0000026e:    4602        .F      MOV      r2,r0
        0x00000270:    492c        ,I      LDR      r1,[pc,#176] ; [0x324] = 0x3fd
        0x00000272:    0524        $.      LSLS     r4,r4,#20
        0x00000274:    1b78        x.      SUBS     r0,r7,r5
        0x00000276:    0b1b        ..      LSRS     r3,r3,#12
        0x00000278:    0b36        6.      LSRS     r6,r6,#12
        0x0000027a:    1840        @.      ADDS     r0,r0,r1
        0x0000027c:    4323        #C      ORRS     r3,r3,r4
        0x0000027e:    4326        &C      ORRS     r6,r6,r4
        0x00000280:    4661        aF      MOV      r1,r12
        0x00000282:    9000        ..      STR      r0,[sp,#0]
        0x00000284:    461c        .F      MOV      r4,r3
        0x00000286:    1a50        P.      SUBS     r0,r2,r1
        0x00000288:    41b4        .A      SBCS     r4,r4,r6
        0x0000028a:    d303        ..      BCC      0x294 ; __aeabi_ddiv + 92
        0x0000028c:    9800        ..      LDR      r0,[sp,#0]
        0x0000028e:    1c40        @.      ADDS     r0,r0,#1
        0x00000290:    9000        ..      STR      r0,[sp,#0]
        0x00000292:    e002        ..      B        0x29a ; __aeabi_ddiv + 98
        0x00000294:    1892        ..      ADDS     r2,r2,r2
        0x00000296:    9800        ..      LDR      r0,[sp,#0]
        0x00000298:    415b        [A      ADCS     r3,r3,r3
        0x0000029a:    2800        .(      CMP      r0,#0
        0x0000029c:    da03        ..      BGE      0x2a6 ; __aeabi_ddiv + 110
        0x0000029e:    2000        .       MOVS     r0,#0
        0x000002a0:    4601        .F      MOV      r1,r0
        0x000002a2:    b005        ..      ADD      sp,sp,#0x14
        0x000002a4:    bdf0        ..      POP      {r4-r7,pc}
        0x000002a6:    2000        .       MOVS     r0,#0
        0x000002a8:    2101        .!      MOVS     r1,#1
        0x000002aa:    0509        ..      LSLS     r1,r1,#20
        0x000002ac:    4607        .F      MOV      r7,r0
        0x000002ae:    4686        .F      MOV      lr,r0
        0x000002b0:    e011        ..      B        0x2d6 ; __aeabi_ddiv + 158
        0x000002b2:    4664        dF      MOV      r4,r12
        0x000002b4:    461d        .F      MOV      r5,r3
        0x000002b6:    1b14        ..      SUBS     r4,r2,r4
        0x000002b8:    41b5        .A      SBCS     r5,r5,r6
        0x000002ba:    d306        ..      BCC      0x2ca ; __aeabi_ddiv + 146
        0x000002bc:    4665        eF      MOV      r5,r12
        0x000002be:    1b52        R.      SUBS     r2,r2,r5
        0x000002c0:    41b3        .A      SBCS     r3,r3,r6
        0x000002c2:    4674        tF      MOV      r4,lr
        0x000002c4:    4307        .C      ORRS     r7,r7,r0
        0x000002c6:    430c        .C      ORRS     r4,r4,r1
        0x000002c8:    46a6        .F      MOV      lr,r4
        0x000002ca:    07cd        ..      LSLS     r5,r1,#31
        0x000002cc:    0840        @.      LSRS     r0,r0,#1
        0x000002ce:    0849        I.      LSRS     r1,r1,#1
        0x000002d0:    4328        (C      ORRS     r0,r0,r5
        0x000002d2:    1892        ..      ADDS     r2,r2,r2
        0x000002d4:    415b        [A      ADCS     r3,r3,r3
        0x000002d6:    4605        .F      MOV      r5,r0
        0x000002d8:    430d        .C      ORRS     r5,r5,r1
        0x000002da:    d1ea        ..      BNE      0x2b2 ; __aeabi_ddiv + 122
        0x000002dc:    4610        .F      MOV      r0,r2
        0x000002de:    4318        .C      ORRS     r0,r0,r3
        0x000002e0:    d013        ..      BEQ      0x30a ; __aeabi_ddiv + 210
        0x000002e2:    4660        `F      MOV      r0,r12
        0x000002e4:    4619        .F      MOV      r1,r3
        0x000002e6:    4050        P@      EORS     r0,r0,r2
        0x000002e8:    4071        q@      EORS     r1,r1,r6
        0x000002ea:    4308        .C      ORRS     r0,r0,r1
        0x000002ec:    d006        ..      BEQ      0x2fc ; __aeabi_ddiv + 196
        0x000002ee:    4660        `F      MOV      r0,r12
        0x000002f0:    1a10        ..      SUBS     r0,r2,r0
        0x000002f2:    41b3        .A      SBCS     r3,r3,r6
        0x000002f4:    d206        ..      BCS      0x304 ; __aeabi_ddiv + 204
        0x000002f6:    2201        ."      MOVS     r2,#1
        0x000002f8:    2300        .#      MOVS     r3,#0
        0x000002fa:    e006        ..      B        0x30a ; __aeabi_ddiv + 210
        0x000002fc:    2200        ."      MOVS     r2,#0
        0x000002fe:    2301        .#      MOVS     r3,#1
        0x00000300:    07db        ..      LSLS     r3,r3,#31
        0x00000302:    e002        ..      B        0x30a ; __aeabi_ddiv + 210
        0x00000304:    2201        ."      MOVS     r2,#1
        0x00000306:    43d2        .C      MVNS     r2,r2
        0x00000308:    1053        S.      ASRS     r3,r2,#1
        0x0000030a:    9800        ..      LDR      r0,[sp,#0]
        0x0000030c:    4674        tF      MOV      r4,lr
        0x0000030e:    0501        ..      LSLS     r1,r0,#20
        0x00000310:    1c38        8.      ADDS     r0,r7,#0
        0x00000312:    4161        aA      ADCS     r1,r1,r4
        0x00000314:    9c02        ..      LDR      r4,[sp,#8]
        0x00000316:    9d03        ..      LDR      r5,[sp,#0xc]
        0x00000318:    1900        ..      ADDS     r0,r0,r4
        0x0000031a:    4169        iA      ADCS     r1,r1,r5
        0x0000031c:    f000f8cf    ....    BL       __I$use$fp ; 0x4be
        0x00000320:    e7bf        ..      B        0x2a2 ; __aeabi_ddiv + 106
    $d
        0x00000322:    0000        ..      DCW    0
        0x00000324:    000003fd    ....    DCD    1021
    $t
    .text
    __aeabi_i2d
        0x00000328:    b50e        ..      PUSH     {r1-r3,lr}
        0x0000032a:    17c2        ..      ASRS     r2,r0,#31
        0x0000032c:    0fc1        ..      LSRS     r1,r0,#31
        0x0000032e:    4050        P@      EORS     r0,r0,r2
        0x00000330:    07ca        ..      LSLS     r2,r1,#31
        0x00000332:    1840        @.      ADDS     r0,r0,r1
        0x00000334:    2100        .!      MOVS     r1,#0
        0x00000336:    4b05        .K      LDR      r3,[pc,#20] ; [0x34c] = 0x433
        0x00000338:    9302        ..      STR      r3,[sp,#8]
        0x0000033a:    9201        ..      STR      r2,[sp,#4]
        0x0000033c:    9100        ..      STR      r1,[sp,#0]
        0x0000033e:    460a        .F      MOV      r2,r1
        0x00000340:    460b        .F      MOV      r3,r1
        0x00000342:    f000f8c9    ....    BL       _double_epilogue ; 0x4d8
        0x00000346:    b003        ..      ADD      sp,sp,#0xc
        0x00000348:    bd00        ..      POP      {pc}
    $d
        0x0000034a:    0000        ..      DCW    0
        0x0000034c:    00000433    3...    DCD    1075
    $t
    .text
    __aeabi_d2uiz
        0x00000350:    004a        J.      LSLS     r2,r1,#1
        0x00000352:    0309        ..      LSLS     r1,r1,#12
        0x00000354:    2301        .#      MOVS     r3,#1
        0x00000356:    0b09        ..      LSRS     r1,r1,#12
        0x00000358:    051b        ..      LSLS     r3,r3,#20
        0x0000035a:    4319        .C      ORRS     r1,r1,r3
        0x0000035c:    4b09        .K      LDR      r3,[pc,#36] ; [0x384] = 0x3ff
        0x0000035e:    b510        ..      PUSH     {r4,lr}
        0x00000360:    0d52        R.      LSRS     r2,r2,#21
        0x00000362:    429a        .B      CMP      r2,r3
        0x00000364:    da01        ..      BGE      0x36a ; __aeabi_d2uiz + 26
        0x00000366:    2000        .       MOVS     r0,#0
        0x00000368:    bd10        ..      POP      {r4,pc}
        0x0000036a:    4b06        .K      LDR      r3,[pc,#24] ; [0x384] = 0x3ff
        0x0000036c:    3334        43      ADDS     r3,r3,#0x34
        0x0000036e:    429a        .B      CMP      r2,r3
        0x00000370:    dc03        ..      BGT      0x37a ; __aeabi_d2uiz + 42
        0x00000372:    1a9a        ..      SUBS     r2,r3,r2
        0x00000374:    f000f892    ....    BL       __aeabi_llsr ; 0x49c
        0x00000378:    bd10        ..      POP      {r4,pc}
        0x0000037a:    4903        .I      LDR      r1,[pc,#12] ; [0x388] = 0xfffffbcd
        0x0000037c:    1851        Q.      ADDS     r1,r2,r1
        0x0000037e:    4088        .@      LSLS     r0,r0,r1
        0x00000380:    bd10        ..      POP      {r4,pc}
    $d
        0x00000382:    0000        ..      DCW    0
        0x00000384:    000003ff    ....    DCD    1023
        0x00000388:    fffffbcd    ....    DCD    4294966221
    $t
    .text
    __aeabi_uidiv
    __aeabi_uidivmod
        0x0000038c:    b570        p.      PUSH     {r4-r6,lr}
        0x0000038e:    4604        .F      MOV      r4,r0
        0x00000390:    2900        .)      CMP      r1,#0
        0x00000392:    d003        ..      BEQ      0x39c ; __aeabi_uidiv + 16
        0x00000394:    2000        .       MOVS     r0,#0
        0x00000396:    2220         "      MOVS     r2,#0x20
        0x00000398:    2301        .#      MOVS     r3,#1
        0x0000039a:    e010        ..      B        0x3be ; __aeabi_uidiv + 50
        0x0000039c:    2800        .(      CMP      r0,#0
        0x0000039e:    d001        ..      BEQ      0x3a4 ; __aeabi_uidiv + 24
        0x000003a0:    2000        .       MOVS     r0,#0
        0x000003a2:    43c0        .C      MVNS     r0,r0
        0x000003a4:    46c0        .F      MOV      r8,r8
        0x000003a6:    46c0        .F      MOV      r8,r8
        0x000003a8:    e00d        ..      B        0x3c6 ; __aeabi_uidiv + 58
        0x000003aa:    4625        %F      MOV      r5,r4
        0x000003ac:    40d5        .@      LSRS     r5,r5,r2
        0x000003ae:    428d        .B      CMP      r5,r1
        0x000003b0:    d305        ..      BCC      0x3be ; __aeabi_uidiv + 50
        0x000003b2:    460d        .F      MOV      r5,r1
        0x000003b4:    4095        .@      LSLS     r5,r5,r2
        0x000003b6:    1b64        d.      SUBS     r4,r4,r5
        0x000003b8:    461d        .F      MOV      r5,r3
        0x000003ba:    4095        .@      LSLS     r5,r5,r2
        0x000003bc:    1940        @.      ADDS     r0,r0,r5
        0x000003be:    4615        .F      MOV      r5,r2
        0x000003c0:    1e52        R.      SUBS     r2,r2,#1
        0x000003c2:    2d00        .-      CMP      r5,#0
        0x000003c4:    dcf1        ..      BGT      0x3aa ; __aeabi_uidiv + 30
        0x000003c6:    4621        !F      MOV      r1,r4
        0x000003c8:    bd70        p.      POP      {r4-r6,pc}
        0x000003ca:    0000        ..      MOVS     r0,r0
    .text
    __aeabi_idiv
    __aeabi_idivmod
        0x000003cc:    b570        p.      PUSH     {r4-r6,lr}
        0x000003ce:    2500        .%      MOVS     r5,#0
        0x000003d0:    4604        .F      MOV      r4,r0
        0x000003d2:    462e        .F      MOV      r6,r5
        0x000003d4:    2900        .)      CMP      r1,#0
        0x000003d6:    d011        ..      BEQ      0x3fc ; __aeabi_idiv + 48
        0x000003d8:    2c00        .,      CMP      r4,#0
        0x000003da:    da01        ..      BGE      0x3e0 ; __aeabi_idiv + 20
        0x000003dc:    2501        .%      MOVS     r5,#1
        0x000003de:    4244        DB      RSBS     r4,r0,#0
        0x000003e0:    2900        .)      CMP      r1,#0
        0x000003e2:    da01        ..      BGE      0x3e8 ; __aeabi_idiv + 28
        0x000003e4:    2601        .&      MOVS     r6,#1
        0x000003e6:    4249        IB      RSBS     r1,r1,#0
        0x000003e8:    4620         F      MOV      r0,r4
        0x000003ea:    f7ffffcf    ....    BL       __aeabi_uidiv ; 0x38c
        0x000003ee:    42b5        .B      CMP      r5,r6
        0x000003f0:    d000        ..      BEQ      0x3f4 ; __aeabi_idiv + 40
        0x000003f2:    4240        @B      RSBS     r0,r0,#0
        0x000003f4:    2d00        .-      CMP      r5,#0
        0x000003f6:    d000        ..      BEQ      0x3fa ; __aeabi_idiv + 46
        0x000003f8:    4249        IB      RSBS     r1,r1,#0
        0x000003fa:    bd70        p.      POP      {r4-r6,pc}
        0x000003fc:    2c00        .,      CMP      r4,#0
        0x000003fe:    da02        ..      BGE      0x406 ; __aeabi_idiv + 58
        0x00000400:    2101        .!      MOVS     r1,#1
        0x00000402:    07c9        ..      LSLS     r1,r1,#31
        0x00000404:    e002        ..      B        0x40c ; __aeabi_idiv + 64
        0x00000406:    2c00        .,      CMP      r4,#0
        0x00000408:    dd00        ..      BLE      0x40c ; __aeabi_idiv + 64
        0x0000040a:    4903        .I      LDR      r1,[pc,#12] ; [0x418] = 0x7fffffff
        0x0000040c:    4608        .F      MOV      r0,r1
        0x0000040e:    46c0        .F      MOV      r8,r8
        0x00000410:    46c0        .F      MOV      r8,r8
        0x00000412:    4621        !F      MOV      r1,r4
        0x00000414:    bd70        p.      POP      {r4-r6,pc}
    $d
        0x00000416:    0000        ..      DCW    0
        0x00000418:    7fffffff    ....    DCD    2147483647
    $t
    .text
    __aeabi_uldivmod
        0x0000041c:    b5f0        ..      PUSH     {r4-r7,lr}
        0x0000041e:    b41f        ..      PUSH     {r0-r4}
        0x00000420:    4606        .F      MOV      r6,r0
        0x00000422:    2000        .       MOVS     r0,#0
        0x00000424:    b082        ..      SUB      sp,sp,#8
        0x00000426:    4605        .F      MOV      r5,r0
        0x00000428:    2440        @$      MOVS     r4,#0x40
        0x0000042a:    9101        ..      STR      r1,[sp,#4]
        0x0000042c:    9000        ..      STR      r0,[sp,#0]
        0x0000042e:    e01b        ..      B        0x468 ; __aeabi_uldivmod + 76
        0x00000430:    9901        ..      LDR      r1,[sp,#4]
        0x00000432:    4622        "F      MOV      r2,r4
        0x00000434:    460f        .F      MOV      r7,r1
        0x00000436:    4630        0F      MOV      r0,r6
        0x00000438:    f000f830    ..0.    BL       __aeabi_llsr ; 0x49c
        0x0000043c:    9a04        ..      LDR      r2,[sp,#0x10]
        0x0000043e:    9b05        ..      LDR      r3,[sp,#0x14]
        0x00000440:    1a80        ..      SUBS     r0,r0,r2
        0x00000442:    4199        .A      SBCS     r1,r1,r3
        0x00000444:    d310        ..      BCC      0x468 ; __aeabi_uldivmod + 76
        0x00000446:    4610        .F      MOV      r0,r2
        0x00000448:    4619        .F      MOV      r1,r3
        0x0000044a:    4622        "F      MOV      r2,r4
        0x0000044c:    f000f816    ....    BL       __aeabi_llsl ; 0x47c
        0x00000450:    1a36        6.      SUBS     r6,r6,r0
        0x00000452:    418f        .A      SBCS     r7,r7,r1
        0x00000454:    9701        ..      STR      r7,[sp,#4]
        0x00000456:    4622        "F      MOV      r2,r4
        0x00000458:    2001        .       MOVS     r0,#1
        0x0000045a:    2100        .!      MOVS     r1,#0
        0x0000045c:    9f00        ..      LDR      r7,[sp,#0]
        0x0000045e:    f000f80d    ....    BL       __aeabi_llsl ; 0x47c
        0x00000462:    1838        8.      ADDS     r0,r7,r0
        0x00000464:    414d        MA      ADCS     r5,r5,r1
        0x00000466:    9000        ..      STR      r0,[sp,#0]
        0x00000468:    4620         F      MOV      r0,r4
        0x0000046a:    1e64        d.      SUBS     r4,r4,#1
        0x0000046c:    2800        .(      CMP      r0,#0
        0x0000046e:    dcdf        ..      BGT      0x430 ; __aeabi_uldivmod + 20
        0x00000470:    9b01        ..      LDR      r3,[sp,#4]
        0x00000472:    9800        ..      LDR      r0,[sp,#0]
        0x00000474:    4629        )F      MOV      r1,r5
        0x00000476:    4632        2F      MOV      r2,r6
        0x00000478:    b007        ..      ADD      sp,sp,#0x1c
        0x0000047a:    bdf0        ..      POP      {r4-r7,pc}
    .text
    __aeabi_llsl
    _ll_shift_l
        0x0000047c:    b510        ..      PUSH     {r4,lr}
        0x0000047e:    2a20         *      CMP      r2,#0x20
        0x00000480:    db04        ..      BLT      0x48c ; __aeabi_llsl + 16
        0x00000482:    4601        .F      MOV      r1,r0
        0x00000484:    3a20         :      SUBS     r2,r2,#0x20
        0x00000486:    4091        .@      LSLS     r1,r1,r2
        0x00000488:    2000        .       MOVS     r0,#0
        0x0000048a:    bd10        ..      POP      {r4,pc}
        0x0000048c:    4091        .@      LSLS     r1,r1,r2
        0x0000048e:    2320         #      MOVS     r3,#0x20
        0x00000490:    1a9c        ..      SUBS     r4,r3,r2
        0x00000492:    4603        .F      MOV      r3,r0
        0x00000494:    40e3        .@      LSRS     r3,r3,r4
        0x00000496:    4319        .C      ORRS     r1,r1,r3
        0x00000498:    4090        .@      LSLS     r0,r0,r2
        0x0000049a:    bd10        ..      POP      {r4,pc}
    .text
    __aeabi_llsr
    _ll_ushift_r
        0x0000049c:    b510        ..      PUSH     {r4,lr}
        0x0000049e:    2a20         *      CMP      r2,#0x20
        0x000004a0:    db04        ..      BLT      0x4ac ; __aeabi_llsr + 16
        0x000004a2:    4608        .F      MOV      r0,r1
        0x000004a4:    3a20         :      SUBS     r2,r2,#0x20
        0x000004a6:    40d0        .@      LSRS     r0,r0,r2
        0x000004a8:    2100        .!      MOVS     r1,#0
        0x000004aa:    bd10        ..      POP      {r4,pc}
        0x000004ac:    460b        .F      MOV      r3,r1
        0x000004ae:    40d3        .@      LSRS     r3,r3,r2
        0x000004b0:    40d0        .@      LSRS     r0,r0,r2
        0x000004b2:    2420         $      MOVS     r4,#0x20
        0x000004b4:    1aa2        ..      SUBS     r2,r4,r2
        0x000004b6:    4091        .@      LSLS     r1,r1,r2
        0x000004b8:    4308        .C      ORRS     r0,r0,r1
        0x000004ba:    4619        .F      MOV      r1,r3
        0x000004bc:    bd10        ..      POP      {r4,pc}
    .text
    .text
    __I$use$fp
    _double_round
        0x000004be:    b510        ..      PUSH     {r4,lr}
        0x000004c0:    2b00        .+      CMP      r3,#0
        0x000004c2:    da08        ..      BGE      0x4d6 ; __I$use$fp + 24
        0x000004c4:    2400        .$      MOVS     r4,#0
        0x000004c6:    1c40        @.      ADDS     r0,r0,#1
        0x000004c8:    4161        aA      ADCS     r1,r1,r4
        0x000004ca:    1892        ..      ADDS     r2,r2,r2
        0x000004cc:    415b        [A      ADCS     r3,r3,r3
        0x000004ce:    431a        .C      ORRS     r2,r2,r3
        0x000004d0:    d101        ..      BNE      0x4d6 ; __I$use$fp + 24
        0x000004d2:    0840        @.      LSRS     r0,r0,#1
        0x000004d4:    0040        @.      LSLS     r0,r0,#1
        0x000004d6:    bd10        ..      POP      {r4,pc}
    _double_epilogue
        0x000004d8:    b5f0        ..      PUSH     {r4-r7,lr}
        0x000004da:    b41f        ..      PUSH     {r0-r4}
        0x000004dc:    b082        ..      SUB      sp,sp,#8
        0x000004de:    4605        .F      MOV      r5,r0
        0x000004e0:    000c        ..      MOVS     r4,r1
        0x000004e2:    d003        ..      BEQ      0x4ec ; _double_epilogue + 20
        0x000004e4:    4608        .F      MOV      r0,r1
        0x000004e6:    f002f82f    ../.    BL       __ARM_clz ; 0x2548
        0x000004ea:    e002        ..      B        0x4f2 ; _double_epilogue + 26
        0x000004ec:    f002f82c    ..,.    BL       __ARM_clz ; 0x2548
        0x000004f0:    3020         0      ADDS     r0,r0,#0x20
        0x000004f2:    4602        .F      MOV      r2,r0
        0x000004f4:    9000        ..      STR      r0,[sp,#0]
        0x000004f6:    4621        !F      MOV      r1,r4
        0x000004f8:    4628        (F      MOV      r0,r5
        0x000004fa:    f7ffffbf    ....    BL       __aeabi_llsl ; 0x47c
        0x000004fe:    9b04        ..      LDR      r3,[sp,#0x10]
        0x00000500:    9a05        ..      LDR      r2,[sp,#0x14]
        0x00000502:    4604        .F      MOV      r4,r0
        0x00000504:    460f        .F      MOV      r7,r1
        0x00000506:    4318        .C      ORRS     r0,r0,r3
        0x00000508:    4311        .C      ORRS     r1,r1,r2
        0x0000050a:    4308        .C      ORRS     r0,r0,r1
        0x0000050c:    d014        ..      BEQ      0x538 ; _double_epilogue + 96
        0x0000050e:    4618        .F      MOV      r0,r3
        0x00000510:    4310        .C      ORRS     r0,r0,r2
        0x00000512:    d01b        ..      BEQ      0x54c ; _double_epilogue + 116
        0x00000514:    9800        ..      LDR      r0,[sp,#0]
        0x00000516:    2140        @!      MOVS     r1,#0x40
        0x00000518:    1a0a        ..      SUBS     r2,r1,r0
        0x0000051a:    4618        .F      MOV      r0,r3
        0x0000051c:    9905        ..      LDR      r1,[sp,#0x14]
        0x0000051e:    f7ffffbd    ....    BL       __aeabi_llsr ; 0x49c
        0x00000522:    4605        .F      MOV      r5,r0
        0x00000524:    460e        .F      MOV      r6,r1
        0x00000526:    9a00        ..      LDR      r2,[sp,#0]
        0x00000528:    9905        ..      LDR      r1,[sp,#0x14]
        0x0000052a:    9804        ..      LDR      r0,[sp,#0x10]
        0x0000052c:    f7ffffa6    ....    BL       __aeabi_llsl ; 0x47c
        0x00000530:    4308        .C      ORRS     r0,r0,r1
        0x00000532:    d005        ..      BEQ      0x540 ; _double_epilogue + 104
        0x00000534:    2001        .       MOVS     r0,#1
        0x00000536:    e004        ..      B        0x542 ; _double_epilogue + 106
        0x00000538:    4620         F      MOV      r0,r4
        0x0000053a:    4639        9F      MOV      r1,r7
        0x0000053c:    b007        ..      ADD      sp,sp,#0x1c
        0x0000053e:    bdf0        ..      POP      {r4-r7,pc}
        0x00000540:    2000        .       MOVS     r0,#0
        0x00000542:    17c1        ..      ASRS     r1,r0,#31
        0x00000544:    4305        .C      ORRS     r5,r5,r0
        0x00000546:    430e        .C      ORRS     r6,r6,r1
        0x00000548:    432c        ,C      ORRS     r4,r4,r5
        0x0000054a:    4337        7C      ORRS     r7,r7,r6
        0x0000054c:    9900        ..      LDR      r1,[sp,#0]
        0x0000054e:    980e        ..      LDR      r0,[sp,#0x38]
        0x00000550:    0563        c.      LSLS     r3,r4,#21
        0x00000552:    1a40        @.      SUBS     r0,r0,r1
        0x00000554:    0579        y.      LSLS     r1,r7,#21
        0x00000556:    0ae4        ..      LSRS     r4,r4,#11
        0x00000558:    2200        ."      MOVS     r2,#0
        0x0000055a:    430c        .C      ORRS     r4,r4,r1
        0x0000055c:    0afd        ..      LSRS     r5,r7,#11
        0x0000055e:    300a        .0      ADDS     r0,r0,#0xa
        0x00000560:    d502        ..      BPL      0x568 ; _double_epilogue + 144
        0x00000562:    2000        .       MOVS     r0,#0
        0x00000564:    4601        .F      MOV      r1,r0
        0x00000566:    e7e9        ..      B        0x53c ; _double_epilogue + 100
        0x00000568:    0501        ..      LSLS     r1,r0,#20
        0x0000056a:    1910        ..      ADDS     r0,r2,r4
        0x0000056c:    4169        iA      ADCS     r1,r1,r5
        0x0000056e:    9c0c        ..      LDR      r4,[sp,#0x30]
        0x00000570:    9d0d        ..      LDR      r5,[sp,#0x34]
        0x00000572:    1900        ..      ADDS     r0,r0,r4
        0x00000574:    4169        iA      ADCS     r1,r1,r5
        0x00000576:    f7ffffa2    ....    BL       __I$use$fp ; 0x4be
        0x0000057a:    e7df        ..      B        0x53c ; _double_epilogue + 100
    .text
    __scatterload
    __scatterload_rt2
        0x0000057c:    b51c        ..      PUSH     {r2-r4,lr}
        0x0000057e:    4809        .H      LDR      r0,[pc,#36] ; [0x5a4] = 0x2a3c
        0x00000580:    9000        ..      STR      r0,[sp,#0]
        0x00000582:    4809        .H      LDR      r0,[pc,#36] ; [0x5a8] = 0x2a5c
        0x00000584:    9001        ..      STR      r0,[sp,#4]
        0x00000586:    4605        .F      MOV      r5,r0
        0x00000588:    2601        .&      MOVS     r6,#1
        0x0000058a:    9c00        ..      LDR      r4,[sp,#0]
        0x0000058c:    e005        ..      B        0x59a ; __scatterload + 30
        0x0000058e:    68e3        .h      LDR      r3,[r4,#0xc]
        0x00000590:    cc07        ..      LDM      r4!,{r0-r2}
        0x00000592:    4333        3C      ORRS     r3,r3,r6
        0x00000594:    3c0c        .<      SUBS     r4,r4,#0xc
        0x00000596:    4798        .G      BLX      r3
        0x00000598:    3410        .4      ADDS     r4,r4,#0x10
        0x0000059a:    42ac        .B      CMP      r4,r5
        0x0000059c:    d3f7        ..      BCC      0x58e ; __scatterload + 18
        0x0000059e:    f7fffd93    ....    BL       __main_after_scatterload ; 0xc8
    $d
        0x000005a2:    0000        ..      DCW    0
        0x000005a4:    00002a3c    <*..    DCD    10812
        0x000005a8:    00002a5c    \*..    DCD    10844
    $t.6
    CLK_EnableModuleClock
        0x000005ac:    211f        .!      MOVS     r1,#0x1f
        0x000005ae:    4001        .@      ANDS     r1,r1,r0
        0x000005b0:    2201        ."      MOVS     r2,#1
        0x000005b2:    408a        .@      LSLS     r2,r2,r1
        0x000005b4:    0f80        ..      LSRS     r0,r0,#30
        0x000005b6:    0080        ..      LSLS     r0,r0,#2
        0x000005b8:    4903        .I      LDR      r1,[pc,#12] ; [0x5c8] = 0x2a28
        0x000005ba:    5808        .X      LDR      r0,[r1,r0]
        0x000005bc:    4903        .I      LDR      r1,[pc,#12] ; [0x5cc] = 0x50000204
        0x000005be:    5843        CX      LDR      r3,[r0,r1]
        0x000005c0:    4313        .C      ORRS     r3,r3,r2
        0x000005c2:    5043        CP      STR      r3,[r0,r1]
        0x000005c4:    4770        pG      BX       lr
        0x000005c6:    46c0        .F      MOV      r8,r8
    $d.7
    __arm_cp.3_0
        0x000005c8:    00002a28    (*..    DCD    10792
    __arm_cp.3_1
        0x000005cc:    50000204    ...P    DCD    1342177796
    $t.8
    CLK_SetModuleClock
        0x000005d0:    b570        p.      PUSH     {r4-r6,lr}
        0x000005d2:    0103        ..      LSLS     r3,r0,#4
        0x000005d4:    0f5c        \.      LSRS     r4,r3,#29
        0x000005d6:    d01b        ..      BEQ      0x610 ; CLK_SetModuleClock + 64
        0x000005d8:    01c3        ..      LSLS     r3,r0,#7
        0x000005da:    0edb        ..      LSRS     r3,r3,#27
        0x000005dc:    409c        .@      LSLS     r4,r4,r3
        0x000005de:    0e83        ..      LSRS     r3,r0,#26
        0x000005e0:    250c        .%      MOVS     r5,#0xc
        0x000005e2:    401d        .@      ANDS     r5,r5,r3
        0x000005e4:    a31b        ..      ADR      r3,{pc}+0x70 ; 0x654
        0x000005e6:    595d        ]Y      LDR      r5,[r3,r5]
        0x000005e8:    4b1e        .K      LDR      r3,[pc,#120] ; [0x664] = 0x50000210
        0x000005ea:    58ee        .X      LDR      r6,[r5,r3]
        0x000005ec:    43a6        .C      BICS     r6,r6,r4
        0x000005ee:    430e        .C      ORRS     r6,r6,r1
        0x000005f0:    50ee        .P      STR      r6,[r5,r3]
        0x000005f2:    4c1d        .L      LDR      r4,[pc,#116] ; [0x668] = 0x66600017
        0x000005f4:    42a0        .B      CMP      r0,r4
        0x000005f6:    d024        $.      BEQ      0x642 ; CLK_SetModuleClock + 114
        0x000005f8:    4c1c        .L      LDR      r4,[pc,#112] ; [0x66c] = 0x57e00015
        0x000005fa:    42a0        .B      CMP      r0,r4
        0x000005fc:    d01b        ..      BEQ      0x636 ; CLK_SetModuleClock + 102
        0x000005fe:    4c1c        .L      LDR      r4,[pc,#112] ; [0x670] = 0x66400016
        0x00000600:    42a0        .B      CMP      r0,r4
        0x00000602:    d01b        ..      BEQ      0x63c ; CLK_SetModuleClock + 108
        0x00000604:    4c1b        .L      LDR      r4,[pc,#108] ; [0x674] = 0x57c00014
        0x00000606:    42a0        .B      CMP      r0,r4
        0x00000608:    d102        ..      BNE      0x610 ; CLK_SetModuleClock + 64
        0x0000060a:    2001        .       MOVS     r0,#1
        0x0000060c:    0200        ..      LSLS     r0,r0,#8
        0x0000060e:    e01a        ..      B        0x646 ; CLK_SetModuleClock + 118
        0x00000610:    0a81        ..      LSRS     r1,r0,#10
        0x00000612:    b2c9        ..      UXTB     r1,r1
        0x00000614:    2900        .)      CMP      r1,#0
        0x00000616:    d00d        ..      BEQ      0x634 ; CLK_SetModuleClock + 100
        0x00000618:    0583        ..      LSLS     r3,r0,#22
        0x0000061a:    0edb        ..      LSRS     r3,r3,#27
        0x0000061c:    4099        .@      LSLS     r1,r1,r3
        0x0000061e:    0c00        ..      LSRS     r0,r0,#16
        0x00000620:    230c        .#      MOVS     r3,#0xc
        0x00000622:    4003        .@      ANDS     r3,r3,r0
        0x00000624:    a014        ..      ADR      r0,{pc}+0x54 ; 0x678
        0x00000626:    58c0        .X      LDR      r0,[r0,r3]
        0x00000628:    4b0e        .K      LDR      r3,[pc,#56] ; [0x664] = 0x50000210
        0x0000062a:    18c0        ..      ADDS     r0,r0,r3
        0x0000062c:    6883        .h      LDR      r3,[r0,#8]
        0x0000062e:    438b        .C      BICS     r3,r3,r1
        0x00000630:    4313        .C      ORRS     r3,r3,r2
        0x00000632:    6083        .`      STR      r3,[r0,#8]
        0x00000634:    bd70        p.      POP      {r4-r6,pc}
        0x00000636:    2001        .       MOVS     r0,#1
        0x00000638:    0240        @.      LSLS     r0,r0,#9
        0x0000063a:    e004        ..      B        0x646 ; CLK_SetModuleClock + 118
        0x0000063c:    2001        .       MOVS     r0,#1
        0x0000063e:    0280        ..      LSLS     r0,r0,#10
        0x00000640:    e001        ..      B        0x646 ; CLK_SetModuleClock + 118
        0x00000642:    2001        .       MOVS     r0,#1
        0x00000644:    02c0        ..      LSLS     r0,r0,#11
        0x00000646:    4001        .@      ANDS     r1,r1,r0
        0x00000648:    68da        .h      LDR      r2,[r3,#0xc]
        0x0000064a:    4382        .C      BICS     r2,r2,r0
        0x0000064c:    1850        P.      ADDS     r0,r2,r1
        0x0000064e:    60d8        .`      STR      r0,[r3,#0xc]
        0x00000650:    bd70        p.      POP      {r4-r6,pc}
        0x00000652:    46c0        .F      MOV      r8,r8
    $d.9
        0x00000654:    00000000    ....    DCD    0
        0x00000658:    00000004    ....    DCD    4
        0x0000065c:    0000000c    ....    DCD    12
        0x00000660:    00000024    $...    DCD    36
    __arm_cp.4_1
        0x00000664:    50000210    ...P    DCD    1342177808
    __arm_cp.4_2
        0x00000668:    66600017    ..`f    DCD    1717567511
    __arm_cp.4_3
        0x0000066c:    57e00015    ...W    DCD    1474297877
    __arm_cp.4_4
        0x00000670:    66400016    ..@f    DCD    1715470358
    __arm_cp.4_5
        0x00000674:    57c00014    ...W    DCD    1472200724
        0x00000678:    00000000    ....    DCD    0
        0x0000067c:    00000020     ...    DCD    32
    $t.9
    CLK_SysTickDelay
        0x00000680:    4906        .I      LDR      r1,[pc,#24] ; [0x69c] = 0x2000000c
        0x00000682:    6809        .h      LDR      r1,[r1,#0]
        0x00000684:    4341        AC      MULS     r1,r0,r1
        0x00000686:    4806        .H      LDR      r0,[pc,#24] ; [0x6a0] = 0xe000e010
        0x00000688:    6041        A`      STR      r1,[r0,#4]
        0x0000068a:    2100        .!      MOVS     r1,#0
        0x0000068c:    6081        .`      STR      r1,[r0,#8]
        0x0000068e:    2205        ."      MOVS     r2,#5
        0x00000690:    6002        .`      STR      r2,[r0,#0]
        0x00000692:    6802        .h      LDR      r2,[r0,#0]
        0x00000694:    03d2        ..      LSLS     r2,r2,#15
        0x00000696:    d5fc        ..      BPL      0x692 ; CLK_SysTickDelay + 18
        0x00000698:    6001        .`      STR      r1,[r0,#0]
        0x0000069a:    4770        pG      BX       lr
    $d.10
    __arm_cp.4_0
        0x0000069c:    2000000c    ...     DCD    536870924
    __arm_cp.4_1
        0x000006a0:    e000e010    ....    DCD    3758153744
    $t.0
    Check_Button_Status_1
        0x000006a4:    b510        ..      PUSH     {r4,lr}
        0x000006a6:    48de        .H      LDR      r0,[pc,#888] ; [0xa20] = 0x200000fc
        0x000006a8:    2101        .!      MOVS     r1,#1
        0x000006aa:    7001        .p      STRB     r1,[r0,#0]
        0x000006ac:    4a0e        .J      LDR      r2,[pc,#56] ; [0x6e8] = 0x50004218
        0x000006ae:    6813        .h      LDR      r3,[r2,#0]
        0x000006b0:    2b01        .+      CMP      r3,#1
        0x000006b2:    d109        ..      BNE      0x6c8 ; Check_Button_Status_1 + 36
        0x000006b4:    4b8b        .K      LDR      r3,[pc,#556] ; [0x8e4] = 0x20000168
        0x000006b6:    69db        .i      LDR      r3,[r3,#0x1c]
        0x000006b8:    6884        .h      LDR      r4,[r0,#8]
        0x000006ba:    429c        .B      CMP      r4,r3
        0x000006bc:    d302        ..      BCC      0x6c4 ; Check_Button_Status_1 + 32
        0x000006be:    4b8a        .K      LDR      r3,[pc,#552] ; [0x8e8] = 0x20000000
        0x000006c0:    2402        .$      MOVS     r4,#2
        0x000006c2:    701c        .p      STRB     r4,[r3,#0]
        0x000006c4:    2300        .#      MOVS     r3,#0
        0x000006c6:    6083        .`      STR      r3,[r0,#8]
        0x000006c8:    6812        .h      LDR      r2,[r2,#0]
        0x000006ca:    2a00        .*      CMP      r2,#0
        0x000006cc:    d108        ..      BNE      0x6e0 ; Check_Button_Status_1 + 60
        0x000006ce:    4a85        .J      LDR      r2,[pc,#532] ; [0x8e4] = 0x20000168
        0x000006d0:    69d2        .i      LDR      r2,[r2,#0x1c]
        0x000006d2:    68c3        .h      LDR      r3,[r0,#0xc]
        0x000006d4:    4293        .B      CMP      r3,r2
        0x000006d6:    d301        ..      BCC      0x6dc ; Check_Button_Status_1 + 56
        0x000006d8:    4a83        .J      LDR      r2,[pc,#524] ; [0x8e8] = 0x20000000
        0x000006da:    7011        .p      STRB     r1,[r2,#0]
        0x000006dc:    2100        .!      MOVS     r1,#0
        0x000006de:    60c1        .`      STR      r1,[r0,#0xc]
        0x000006e0:    4881        .H      LDR      r0,[pc,#516] ; [0x8e8] = 0x20000000
        0x000006e2:    7800        .x      LDRB     r0,[r0,#0]
        0x000006e4:    bd10        ..      POP      {r4,pc}
        0x000006e6:    46c0        .F      MOV      r8,r8
    $d.1
    __arm_cp.0_1
        0x000006e8:    50004218    .B.P    DCD    1342194200
    $t.2
    Check_Button_Status_2
        0x000006ec:    b510        ..      PUSH     {r4,lr}
        0x000006ee:    48cc        .H      LDR      r0,[pc,#816] ; [0xa20] = 0x200000fc
        0x000006f0:    2101        .!      MOVS     r1,#1
        0x000006f2:    7041        Ap      STRB     r1,[r0,#1]
        0x000006f4:    4a0e        .J      LDR      r2,[pc,#56] ; [0x730] = 0x5000429c
        0x000006f6:    6813        .h      LDR      r3,[r2,#0]
        0x000006f8:    2b01        .+      CMP      r3,#1
        0x000006fa:    d109        ..      BNE      0x710 ; Check_Button_Status_2 + 36
        0x000006fc:    4b79        yK      LDR      r3,[pc,#484] ; [0x8e4] = 0x20000168
        0x000006fe:    69db        .i      LDR      r3,[r3,#0x1c]
        0x00000700:    6904        .i      LDR      r4,[r0,#0x10]
        0x00000702:    429c        .B      CMP      r4,r3
        0x00000704:    d302        ..      BCC      0x70c ; Check_Button_Status_2 + 32
        0x00000706:    4b78        xK      LDR      r3,[pc,#480] ; [0x8e8] = 0x20000000
        0x00000708:    2402        .$      MOVS     r4,#2
        0x0000070a:    705c        \p      STRB     r4,[r3,#1]
        0x0000070c:    2300        .#      MOVS     r3,#0
        0x0000070e:    6103        .a      STR      r3,[r0,#0x10]
        0x00000710:    6812        .h      LDR      r2,[r2,#0]
        0x00000712:    2a00        .*      CMP      r2,#0
        0x00000714:    d108        ..      BNE      0x728 ; Check_Button_Status_2 + 60
        0x00000716:    4a73        sJ      LDR      r2,[pc,#460] ; [0x8e4] = 0x20000168
        0x00000718:    69d2        .i      LDR      r2,[r2,#0x1c]
        0x0000071a:    6943        Ci      LDR      r3,[r0,#0x14]
        0x0000071c:    4293        .B      CMP      r3,r2
        0x0000071e:    d301        ..      BCC      0x724 ; Check_Button_Status_2 + 56
        0x00000720:    4a71        qJ      LDR      r2,[pc,#452] ; [0x8e8] = 0x20000000
        0x00000722:    7051        Qp      STRB     r1,[r2,#1]
        0x00000724:    2100        .!      MOVS     r1,#0
        0x00000726:    6141        Aa      STR      r1,[r0,#0x14]
        0x00000728:    486f        oH      LDR      r0,[pc,#444] ; [0x8e8] = 0x20000000
        0x0000072a:    7840        @x      LDRB     r0,[r0,#1]
        0x0000072c:    bd10        ..      POP      {r4,pc}
        0x0000072e:    46c0        .F      MOV      r8,r8
    $d.3
    __arm_cp.1_1
        0x00000730:    5000429c    .B.P    DCD    1342194332
    $t.4
    Check_Button_Status_3
        0x00000734:    b510        ..      PUSH     {r4,lr}
        0x00000736:    48ba        .H      LDR      r0,[pc,#744] ; [0xa20] = 0x200000fc
        0x00000738:    2101        .!      MOVS     r1,#1
        0x0000073a:    7081        .p      STRB     r1,[r0,#2]
        0x0000073c:    4a0e        .J      LDR      r2,[pc,#56] ; [0x778] = 0x50004298
        0x0000073e:    6813        .h      LDR      r3,[r2,#0]
        0x00000740:    2b01        .+      CMP      r3,#1
        0x00000742:    d109        ..      BNE      0x758 ; Check_Button_Status_3 + 36
        0x00000744:    4b67        gK      LDR      r3,[pc,#412] ; [0x8e4] = 0x20000168
        0x00000746:    69db        .i      LDR      r3,[r3,#0x1c]
        0x00000748:    6984        .i      LDR      r4,[r0,#0x18]
        0x0000074a:    429c        .B      CMP      r4,r3
        0x0000074c:    d302        ..      BCC      0x754 ; Check_Button_Status_3 + 32
        0x0000074e:    4b66        fK      LDR      r3,[pc,#408] ; [0x8e8] = 0x20000000
        0x00000750:    2402        .$      MOVS     r4,#2
        0x00000752:    709c        .p      STRB     r4,[r3,#2]
        0x00000754:    2300        .#      MOVS     r3,#0
        0x00000756:    6183        .a      STR      r3,[r0,#0x18]
        0x00000758:    6812        .h      LDR      r2,[r2,#0]
        0x0000075a:    2a00        .*      CMP      r2,#0
        0x0000075c:    d108        ..      BNE      0x770 ; Check_Button_Status_3 + 60
        0x0000075e:    4a61        aJ      LDR      r2,[pc,#388] ; [0x8e4] = 0x20000168
        0x00000760:    69d2        .i      LDR      r2,[r2,#0x1c]
        0x00000762:    69c3        .i      LDR      r3,[r0,#0x1c]
        0x00000764:    4293        .B      CMP      r3,r2
        0x00000766:    d301        ..      BCC      0x76c ; Check_Button_Status_3 + 56
        0x00000768:    4a5f        _J      LDR      r2,[pc,#380] ; [0x8e8] = 0x20000000
        0x0000076a:    7091        .p      STRB     r1,[r2,#2]
        0x0000076c:    2100        .!      MOVS     r1,#0
        0x0000076e:    61c1        .a      STR      r1,[r0,#0x1c]
        0x00000770:    485d        ]H      LDR      r0,[pc,#372] ; [0x8e8] = 0x20000000
        0x00000772:    7880        .x      LDRB     r0,[r0,#2]
        0x00000774:    bd10        ..      POP      {r4,pc}
        0x00000776:    46c0        .F      MOV      r8,r8
    $d.5
    __arm_cp.2_1
        0x00000778:    50004298    .B.P    DCD    1342194328
    $t.6
    Check_Button_Status_4
        0x0000077c:    b510        ..      PUSH     {r4,lr}
        0x0000077e:    48a8        .H      LDR      r0,[pc,#672] ; [0xa20] = 0x200000fc
        0x00000780:    2101        .!      MOVS     r1,#1
        0x00000782:    70c1        .p      STRB     r1,[r0,#3]
        0x00000784:    4a0e        .J      LDR      r2,[pc,#56] ; [0x7c0] = 0x5000427c
        0x00000786:    6813        .h      LDR      r3,[r2,#0]
        0x00000788:    2b01        .+      CMP      r3,#1
        0x0000078a:    d109        ..      BNE      0x7a0 ; Check_Button_Status_4 + 36
        0x0000078c:    4b55        UK      LDR      r3,[pc,#340] ; [0x8e4] = 0x20000168
        0x0000078e:    69db        .i      LDR      r3,[r3,#0x1c]
        0x00000790:    6a04        .j      LDR      r4,[r0,#0x20]
        0x00000792:    429c        .B      CMP      r4,r3
        0x00000794:    d302        ..      BCC      0x79c ; Check_Button_Status_4 + 32
        0x00000796:    4b54        TK      LDR      r3,[pc,#336] ; [0x8e8] = 0x20000000
        0x00000798:    2402        .$      MOVS     r4,#2
        0x0000079a:    70dc        .p      STRB     r4,[r3,#3]
        0x0000079c:    2300        .#      MOVS     r3,#0
        0x0000079e:    6203        .b      STR      r3,[r0,#0x20]
        0x000007a0:    6812        .h      LDR      r2,[r2,#0]
        0x000007a2:    2a00        .*      CMP      r2,#0
        0x000007a4:    d108        ..      BNE      0x7b8 ; Check_Button_Status_4 + 60
        0x000007a6:    4a4f        OJ      LDR      r2,[pc,#316] ; [0x8e4] = 0x20000168
        0x000007a8:    69d2        .i      LDR      r2,[r2,#0x1c]
        0x000007aa:    6a43        Cj      LDR      r3,[r0,#0x24]
        0x000007ac:    4293        .B      CMP      r3,r2
        0x000007ae:    d301        ..      BCC      0x7b4 ; Check_Button_Status_4 + 56
        0x000007b0:    4a4d        MJ      LDR      r2,[pc,#308] ; [0x8e8] = 0x20000000
        0x000007b2:    70d1        .p      STRB     r1,[r2,#3]
        0x000007b4:    2100        .!      MOVS     r1,#0
        0x000007b6:    6241        Ab      STR      r1,[r0,#0x24]
        0x000007b8:    484b        KH      LDR      r0,[pc,#300] ; [0x8e8] = 0x20000000
        0x000007ba:    78c0        .x      LDRB     r0,[r0,#3]
        0x000007bc:    bd10        ..      POP      {r4,pc}
        0x000007be:    46c0        .F      MOV      r8,r8
    $d.7
    __arm_cp.3_1
        0x000007c0:    5000427c    |B.P    DCD    1342194300
    $t.8
    Check_Button_Status_5
        0x000007c4:    b510        ..      PUSH     {r4,lr}
        0x000007c6:    4896        .H      LDR      r0,[pc,#600] ; [0xa20] = 0x200000fc
        0x000007c8:    2101        .!      MOVS     r1,#1
        0x000007ca:    7101        .q      STRB     r1,[r0,#4]
        0x000007cc:    4a0e        .J      LDR      r2,[pc,#56] ; [0x808] = 0x50004260
        0x000007ce:    6813        .h      LDR      r3,[r2,#0]
        0x000007d0:    2b01        .+      CMP      r3,#1
        0x000007d2:    d109        ..      BNE      0x7e8 ; Check_Button_Status_5 + 36
        0x000007d4:    4bf0        .K      LDR      r3,[pc,#960] ; [0xb98] = 0x20000168
        0x000007d6:    69db        .i      LDR      r3,[r3,#0x1c]
        0x000007d8:    6a84        .j      LDR      r4,[r0,#0x28]
        0x000007da:    429c        .B      CMP      r4,r3
        0x000007dc:    d302        ..      BCC      0x7e4 ; Check_Button_Status_5 + 32
        0x000007de:    4b42        BK      LDR      r3,[pc,#264] ; [0x8e8] = 0x20000000
        0x000007e0:    2402        .$      MOVS     r4,#2
        0x000007e2:    711c        .q      STRB     r4,[r3,#4]
        0x000007e4:    2300        .#      MOVS     r3,#0
        0x000007e6:    6283        .b      STR      r3,[r0,#0x28]
        0x000007e8:    6812        .h      LDR      r2,[r2,#0]
        0x000007ea:    2a00        .*      CMP      r2,#0
        0x000007ec:    d108        ..      BNE      0x800 ; Check_Button_Status_5 + 60
        0x000007ee:    4aea        .J      LDR      r2,[pc,#936] ; [0xb98] = 0x20000168
        0x000007f0:    69d2        .i      LDR      r2,[r2,#0x1c]
        0x000007f2:    6ac3        .j      LDR      r3,[r0,#0x2c]
        0x000007f4:    4293        .B      CMP      r3,r2
        0x000007f6:    d301        ..      BCC      0x7fc ; Check_Button_Status_5 + 56
        0x000007f8:    4a3b        ;J      LDR      r2,[pc,#236] ; [0x8e8] = 0x20000000
        0x000007fa:    7111        .q      STRB     r1,[r2,#4]
        0x000007fc:    2100        .!      MOVS     r1,#0
        0x000007fe:    62c1        .b      STR      r1,[r0,#0x2c]
        0x00000800:    4839        9H      LDR      r0,[pc,#228] ; [0x8e8] = 0x20000000
        0x00000802:    7900        .y      LDRB     r0,[r0,#4]
        0x00000804:    bd10        ..      POP      {r4,pc}
        0x00000806:    46c0        .F      MOV      r8,r8
    $d.9
    __arm_cp.4_1
        0x00000808:    50004260    `B.P    DCD    1342194272
    $t.10
    Check_Button_Status_6
        0x0000080c:    b510        ..      PUSH     {r4,lr}
        0x0000080e:    4884        .H      LDR      r0,[pc,#528] ; [0xa20] = 0x200000fc
        0x00000810:    2101        .!      MOVS     r1,#1
        0x00000812:    7141        Aq      STRB     r1,[r0,#5]
        0x00000814:    4a0e        .J      LDR      r2,[pc,#56] ; [0x850] = 0x5000422c
        0x00000816:    6813        .h      LDR      r3,[r2,#0]
        0x00000818:    2b01        .+      CMP      r3,#1
        0x0000081a:    d109        ..      BNE      0x830 ; Check_Button_Status_6 + 36
        0x0000081c:    4bde        .K      LDR      r3,[pc,#888] ; [0xb98] = 0x20000168
        0x0000081e:    69db        .i      LDR      r3,[r3,#0x1c]
        0x00000820:    6b04        .k      LDR      r4,[r0,#0x30]
        0x00000822:    429c        .B      CMP      r4,r3
        0x00000824:    d302        ..      BCC      0x82c ; Check_Button_Status_6 + 32
        0x00000826:    4b30        0K      LDR      r3,[pc,#192] ; [0x8e8] = 0x20000000
        0x00000828:    2402        .$      MOVS     r4,#2
        0x0000082a:    715c        \q      STRB     r4,[r3,#5]
        0x0000082c:    2300        .#      MOVS     r3,#0
        0x0000082e:    6303        .c      STR      r3,[r0,#0x30]
        0x00000830:    6812        .h      LDR      r2,[r2,#0]
        0x00000832:    2a00        .*      CMP      r2,#0
        0x00000834:    d108        ..      BNE      0x848 ; Check_Button_Status_6 + 60
        0x00000836:    4ad8        .J      LDR      r2,[pc,#864] ; [0xb98] = 0x20000168
        0x00000838:    69d2        .i      LDR      r2,[r2,#0x1c]
        0x0000083a:    6b43        Ck      LDR      r3,[r0,#0x34]
        0x0000083c:    4293        .B      CMP      r3,r2
        0x0000083e:    d301        ..      BCC      0x844 ; Check_Button_Status_6 + 56
        0x00000840:    4a29        )J      LDR      r2,[pc,#164] ; [0x8e8] = 0x20000000
        0x00000842:    7151        Qq      STRB     r1,[r2,#5]
        0x00000844:    2100        .!      MOVS     r1,#0
        0x00000846:    6341        Ac      STR      r1,[r0,#0x34]
        0x00000848:    4827        'H      LDR      r0,[pc,#156] ; [0x8e8] = 0x20000000
        0x0000084a:    7940        @y      LDRB     r0,[r0,#5]
        0x0000084c:    bd10        ..      POP      {r4,pc}
        0x0000084e:    46c0        .F      MOV      r8,r8
    $d.11
    __arm_cp.5_1
        0x00000850:    5000422c    ,B.P    DCD    1342194220
    $t.12
    Check_Button_Status_7
        0x00000854:    b510        ..      PUSH     {r4,lr}
        0x00000856:    4872        rH      LDR      r0,[pc,#456] ; [0xa20] = 0x200000fc
        0x00000858:    2101        .!      MOVS     r1,#1
        0x0000085a:    7181        .q      STRB     r1,[r0,#6]
        0x0000085c:    4a0e        .J      LDR      r2,[pc,#56] ; [0x898] = 0x50004228
        0x0000085e:    6813        .h      LDR      r3,[r2,#0]
        0x00000860:    2b01        .+      CMP      r3,#1
        0x00000862:    d109        ..      BNE      0x878 ; Check_Button_Status_7 + 36
        0x00000864:    4bcc        .K      LDR      r3,[pc,#816] ; [0xb98] = 0x20000168
        0x00000866:    69db        .i      LDR      r3,[r3,#0x1c]
        0x00000868:    6b84        .k      LDR      r4,[r0,#0x38]
        0x0000086a:    429c        .B      CMP      r4,r3
        0x0000086c:    d302        ..      BCC      0x874 ; Check_Button_Status_7 + 32
        0x0000086e:    4b1e        .K      LDR      r3,[pc,#120] ; [0x8e8] = 0x20000000
        0x00000870:    2402        .$      MOVS     r4,#2
        0x00000872:    719c        .q      STRB     r4,[r3,#6]
        0x00000874:    2300        .#      MOVS     r3,#0
        0x00000876:    6383        .c      STR      r3,[r0,#0x38]
        0x00000878:    6812        .h      LDR      r2,[r2,#0]
        0x0000087a:    2a00        .*      CMP      r2,#0
        0x0000087c:    d108        ..      BNE      0x890 ; Check_Button_Status_7 + 60
        0x0000087e:    4ac6        .J      LDR      r2,[pc,#792] ; [0xb98] = 0x20000168
        0x00000880:    69d2        .i      LDR      r2,[r2,#0x1c]
        0x00000882:    6bc3        .k      LDR      r3,[r0,#0x3c]
        0x00000884:    4293        .B      CMP      r3,r2
        0x00000886:    d301        ..      BCC      0x88c ; Check_Button_Status_7 + 56
        0x00000888:    4a17        .J      LDR      r2,[pc,#92] ; [0x8e8] = 0x20000000
        0x0000088a:    7191        .q      STRB     r1,[r2,#6]
        0x0000088c:    2100        .!      MOVS     r1,#0
        0x0000088e:    63c1        .c      STR      r1,[r0,#0x3c]
        0x00000890:    4815        .H      LDR      r0,[pc,#84] ; [0x8e8] = 0x20000000
        0x00000892:    7980        .y      LDRB     r0,[r0,#6]
        0x00000894:    bd10        ..      POP      {r4,pc}
        0x00000896:    46c0        .F      MOV      r8,r8
    $d.13
    __arm_cp.6_1
        0x00000898:    50004228    (B.P    DCD    1342194216
    $t.14
    Check_Button_Status_8
        0x0000089c:    b510        ..      PUSH     {r4,lr}
        0x0000089e:    4860        `H      LDR      r0,[pc,#384] ; [0xa20] = 0x200000fc
        0x000008a0:    2101        .!      MOVS     r1,#1
        0x000008a2:    71c1        .q      STRB     r1,[r0,#7]
        0x000008a4:    4a0e        .J      LDR      r2,[pc,#56] ; [0x8e0] = 0x50004224
        0x000008a6:    6813        .h      LDR      r3,[r2,#0]
        0x000008a8:    2b01        .+      CMP      r3,#1
        0x000008aa:    d109        ..      BNE      0x8c0 ; Check_Button_Status_8 + 36
        0x000008ac:    4bba        .K      LDR      r3,[pc,#744] ; [0xb98] = 0x20000168
        0x000008ae:    69db        .i      LDR      r3,[r3,#0x1c]
        0x000008b0:    6c04        .l      LDR      r4,[r0,#0x40]
        0x000008b2:    429c        .B      CMP      r4,r3
        0x000008b4:    d302        ..      BCC      0x8bc ; Check_Button_Status_8 + 32
        0x000008b6:    4b0c        .K      LDR      r3,[pc,#48] ; [0x8e8] = 0x20000000
        0x000008b8:    2402        .$      MOVS     r4,#2
        0x000008ba:    71dc        .q      STRB     r4,[r3,#7]
        0x000008bc:    2300        .#      MOVS     r3,#0
        0x000008be:    6403        .d      STR      r3,[r0,#0x40]
        0x000008c0:    6812        .h      LDR      r2,[r2,#0]
        0x000008c2:    2a00        .*      CMP      r2,#0
        0x000008c4:    d108        ..      BNE      0x8d8 ; Check_Button_Status_8 + 60
        0x000008c6:    4ab4        .J      LDR      r2,[pc,#720] ; [0xb98] = 0x20000168
        0x000008c8:    69d2        .i      LDR      r2,[r2,#0x1c]
        0x000008ca:    6c43        Cl      LDR      r3,[r0,#0x44]
        0x000008cc:    4293        .B      CMP      r3,r2
        0x000008ce:    d301        ..      BCC      0x8d4 ; Check_Button_Status_8 + 56
        0x000008d0:    4a05        .J      LDR      r2,[pc,#20] ; [0x8e8] = 0x20000000
        0x000008d2:    71d1        .q      STRB     r1,[r2,#7]
        0x000008d4:    2100        .!      MOVS     r1,#0
        0x000008d6:    6441        Ad      STR      r1,[r0,#0x44]
        0x000008d8:    4803        .H      LDR      r0,[pc,#12] ; [0x8e8] = 0x20000000
        0x000008da:    79c0        .y      LDRB     r0,[r0,#7]
        0x000008dc:    bd10        ..      POP      {r4,pc}
        0x000008de:    46c0        .F      MOV      r8,r8
    $d.15
    __arm_cp.7_1
        0x000008e0:    50004224    $B.P    DCD    1342194212
    __arm_cp.7_2
        0x000008e4:    20000168    h..     DCD    536871272
    __arm_cp.7_3
        0x000008e8:    20000000    ...     DCD    536870912
    $t.3
    EP3_Handler
        0x000008ec:    b510        ..      PUSH     {r4,lr}
        0x000008ee:    4c05        .L      LDR      r4,[pc,#20] ; [0x904] = 0x40060050
        0x000008f0:    6820         h      LDR      r0,[r4,#0]
        0x000008f2:    1900        ..      ADDS     r0,r0,r4
        0x000008f4:    30b0        .0      ADDS     r0,r0,#0xb0
        0x000008f6:    6861        ah      LDR      r1,[r4,#4]
        0x000008f8:    f000f97d    ..}.    BL       HID_GetOutReport ; 0xbf6
        0x000008fc:    2040        @       MOVS     r0,#0x40
        0x000008fe:    6060        ``      STR      r0,[r4,#4]
        0x00000900:    bd10        ..      POP      {r4,pc}
        0x00000902:    46c0        .F      MOV      r8,r8
    $d.4
    __arm_cp.2_0
        0x00000904:    40060050    P..@    DCD    1074135120
    $t.1
    FMC_Read
        0x00000908:    490d        .I      LDR      r1,[pc,#52] ; [0x940] = 0x5000c004
        0x0000090a:    2200        ."      MOVS     r2,#0
        0x0000090c:    608a        .`      STR      r2,[r1,#8]
        0x0000090e:    6008        .`      STR      r0,[r1,#0]
        0x00000910:    2001        .       MOVS     r0,#1
        0x00000912:    60c8        .`      STR      r0,[r1,#0xc]
        0x00000914:    f3bf8f6f    ..o.    ISB      
        0x00000918:    68c8        .h      LDR      r0,[r1,#0xc]
        0x0000091a:    2800        .(      CMP      r0,#0
        0x0000091c:    d1fc        ..      BNE      0x918 ; FMC_Read + 16
        0x0000091e:    6848        Hh      LDR      r0,[r1,#4]
        0x00000920:    4770        pG      BX       lr
        0x00000922:    46c0        .F      MOV      r8,r8
    FMC_Write
        0x00000924:    4a06        .J      LDR      r2,[pc,#24] ; [0x940] = 0x5000c004
        0x00000926:    2321        !#      MOVS     r3,#0x21
        0x00000928:    6093        .`      STR      r3,[r2,#8]
        0x0000092a:    6010        .`      STR      r0,[r2,#0]
        0x0000092c:    6051        Q`      STR      r1,[r2,#4]
        0x0000092e:    2001        .       MOVS     r0,#1
        0x00000930:    60d0        .`      STR      r0,[r2,#0xc]
        0x00000932:    f3bf8f6f    ..o.    ISB      
        0x00000936:    68d0        .h      LDR      r0,[r2,#0xc]
        0x00000938:    2800        .(      CMP      r0,#0
        0x0000093a:    d1fc        ..      BNE      0x936 ; FMC_Write + 18
        0x0000093c:    4770        pG      BX       lr
        0x0000093e:    46c0        .F      MOV      r8,r8
    $d.6
    __arm_cp.3_0
        0x00000940:    5000c004    ...P    DCD    1342226436
    $t.32
    GPAB_IRQHandler
        0x00000944:    b5b0        ..      PUSH     {r4,r5,r7,lr}
        0x00000946:    4c25        %L      LDR      r4,[pc,#148] ; [0x9dc] = 0x50004020
        0x00000948:    6820         h      LDR      r0,[r4,#0]
        0x0000094a:    0640        @.      LSLS     r0,r0,#25
        0x0000094c:    d507        ..      BPL      0x95e ; GPAB_IRQHandler + 26
        0x0000094e:    4834        4H      LDR      r0,[pc,#208] ; [0xa20] = 0x200000fc
        0x00000950:    2100        .!      MOVS     r1,#0
        0x00000952:    6081        .`      STR      r1,[r0,#8]
        0x00000954:    60c1        .`      STR      r1,[r0,#0xc]
        0x00000956:    2040        @       MOVS     r0,#0x40
        0x00000958:    6020         `      STR      r0,[r4,#0]
        0x0000095a:    f7fffea3    ....    BL       Check_Button_Status_1 ; 0x6a4
        0x0000095e:    2501        .%      MOVS     r5,#1
        0x00000960:    6c20         l      LDR      r0,[r4,#0x40]
        0x00000962:    0400        ..      LSLS     r0,r0,#16
        0x00000964:    d507        ..      BPL      0x976 ; GPAB_IRQHandler + 50
        0x00000966:    03e8        ..      LSLS     r0,r5,#15
        0x00000968:    492d        -I      LDR      r1,[pc,#180] ; [0xa20] = 0x200000fc
        0x0000096a:    2200        ."      MOVS     r2,#0
        0x0000096c:    620a        .b      STR      r2,[r1,#0x20]
        0x0000096e:    624a        Jb      STR      r2,[r1,#0x24]
        0x00000970:    6420         d      STR      r0,[r4,#0x40]
        0x00000972:    f7ffff03    ....    BL       Check_Button_Status_4 ; 0x77c
        0x00000976:    6c20         l      LDR      r0,[r4,#0x40]
        0x00000978:    05c0        ..      LSLS     r0,r0,#23
        0x0000097a:    d507        ..      BPL      0x98c ; GPAB_IRQHandler + 72
        0x0000097c:    0228        (.      LSLS     r0,r5,#8
        0x0000097e:    4928        (I      LDR      r1,[pc,#160] ; [0xa20] = 0x200000fc
        0x00000980:    2200        ."      MOVS     r2,#0
        0x00000982:    628a        .b      STR      r2,[r1,#0x28]
        0x00000984:    62ca        .b      STR      r2,[r1,#0x2c]
        0x00000986:    6420         d      STR      r0,[r4,#0x40]
        0x00000988:    f7ffff1c    ....    BL       Check_Button_Status_5 ; 0x7c4
        0x0000098c:    6820         h      LDR      r0,[r4,#0]
        0x0000098e:    0500        ..      LSLS     r0,r0,#20
        0x00000990:    d507        ..      BPL      0x9a2 ; GPAB_IRQHandler + 94
        0x00000992:    02e8        ..      LSLS     r0,r5,#11
        0x00000994:    4922        "I      LDR      r1,[pc,#136] ; [0xa20] = 0x200000fc
        0x00000996:    2200        ."      MOVS     r2,#0
        0x00000998:    630a        .c      STR      r2,[r1,#0x30]
        0x0000099a:    634a        Jc      STR      r2,[r1,#0x34]
        0x0000099c:    6020         `      STR      r0,[r4,#0]
        0x0000099e:    f7ffff35    ..5.    BL       Check_Button_Status_6 ; 0x80c
        0x000009a2:    6820         h      LDR      r0,[r4,#0]
        0x000009a4:    0540        @.      LSLS     r0,r0,#21
        0x000009a6:    d507        ..      BPL      0x9b8 ; GPAB_IRQHandler + 116
        0x000009a8:    02a8        ..      LSLS     r0,r5,#10
        0x000009aa:    491d        .I      LDR      r1,[pc,#116] ; [0xa20] = 0x200000fc
        0x000009ac:    2200        ."      MOVS     r2,#0
        0x000009ae:    638a        .c      STR      r2,[r1,#0x38]
        0x000009b0:    63ca        .c      STR      r2,[r1,#0x3c]
        0x000009b2:    6020         `      STR      r0,[r4,#0]
        0x000009b4:    f7ffff4e    ..N.    BL       Check_Button_Status_7 ; 0x854
        0x000009b8:    6820         h      LDR      r0,[r4,#0]
        0x000009ba:    0580        ..      LSLS     r0,r0,#22
        0x000009bc:    d404        ..      BMI      0x9c8 ; GPAB_IRQHandler + 132
        0x000009be:    6820         h      LDR      r0,[r4,#0]
        0x000009c0:    6020         `      STR      r0,[r4,#0]
        0x000009c2:    6c20         l      LDR      r0,[r4,#0x40]
        0x000009c4:    6420         d      STR      r0,[r4,#0x40]
        0x000009c6:    bdb0        ..      POP      {r4,r5,r7,pc}
        0x000009c8:    0268        h.      LSLS     r0,r5,#9
        0x000009ca:    4915        .I      LDR      r1,[pc,#84] ; [0xa20] = 0x200000fc
        0x000009cc:    2200        ."      MOVS     r2,#0
        0x000009ce:    640a        .d      STR      r2,[r1,#0x40]
        0x000009d0:    644a        Jd      STR      r2,[r1,#0x44]
        0x000009d2:    6020         `      STR      r0,[r4,#0]
        0x000009d4:    f7ffff62    ..b.    BL       Check_Button_Status_8 ; 0x89c
        0x000009d8:    bdb0        ..      POP      {r4,r5,r7,pc}
        0x000009da:    46c0        .F      MOV      r8,r8
    $d.33
    __arm_cp.16_0
        0x000009dc:    50004020     @.P    DCD    1342193696
    $t.34
    GPCDEF_IRQHandler
        0x000009e0:    b510        ..      PUSH     {r4,lr}
        0x000009e2:    4c0e        .L      LDR      r4,[pc,#56] ; [0xa1c] = 0x500040a0
        0x000009e4:    6820         h      LDR      r0,[r4,#0]
        0x000009e6:    0600        ..      LSLS     r0,r0,#24
        0x000009e8:    d507        ..      BPL      0x9fa ; GPCDEF_IRQHandler + 26
        0x000009ea:    480d        .H      LDR      r0,[pc,#52] ; [0xa20] = 0x200000fc
        0x000009ec:    2100        .!      MOVS     r1,#0
        0x000009ee:    6101        .a      STR      r1,[r0,#0x10]
        0x000009f0:    6141        Aa      STR      r1,[r0,#0x14]
        0x000009f2:    2080        .       MOVS     r0,#0x80
        0x000009f4:    6020         `      STR      r0,[r4,#0]
        0x000009f6:    f7fffe79    ..y.    BL       Check_Button_Status_2 ; 0x6ec
        0x000009fa:    6820         h      LDR      r0,[r4,#0]
        0x000009fc:    0640        @.      LSLS     r0,r0,#25
        0x000009fe:    d404        ..      BMI      0xa0a ; GPCDEF_IRQHandler + 42
        0x00000a00:    6820         h      LDR      r0,[r4,#0]
        0x00000a02:    6020         `      STR      r0,[r4,#0]
        0x00000a04:    6c20         l      LDR      r0,[r4,#0x40]
        0x00000a06:    6420         d      STR      r0,[r4,#0x40]
        0x00000a08:    bd10        ..      POP      {r4,pc}
        0x00000a0a:    4805        .H      LDR      r0,[pc,#20] ; [0xa20] = 0x200000fc
        0x00000a0c:    2100        .!      MOVS     r1,#0
        0x00000a0e:    6181        .a      STR      r1,[r0,#0x18]
        0x00000a10:    61c1        .a      STR      r1,[r0,#0x1c]
        0x00000a12:    2040        @       MOVS     r0,#0x40
        0x00000a14:    6020         `      STR      r0,[r4,#0]
        0x00000a16:    f7fffe8d    ....    BL       Check_Button_Status_3 ; 0x734
        0x00000a1a:    bd10        ..      POP      {r4,pc}
    $d.35
    __arm_cp.17_0
        0x00000a1c:    500040a0    .@.P    DCD    1342193824
    __arm_cp.17_1
        0x00000a20:    200000fc    ...     DCD    536871164
    $t.0
    GPIO_Client_Init
        0x00000a24:    b5f0        ..      PUSH     {r4-r7,lr}
        0x00000a26:    b08d        ..      SUB      sp,sp,#0x34
        0x00000a28:    af05        ..      ADD      r7,sp,#0x14
        0x00000a2a:    2120         !      MOVS     r1,#0x20
        0x00000a2c:    9104        ..      STR      r1,[sp,#0x10]
        0x00000a2e:    4638        8F      MOV      r0,r7
        0x00000a30:    f7fffb8f    ....    BL       __aeabi_memclr ; 0x152
        0x00000a34:    4c56        VL      LDR      r4,[pc,#344] ; [0xb90] = 0x50004000
        0x00000a36:    2110        .!      MOVS     r1,#0x10
        0x00000a38:    2601        .&      MOVS     r6,#1
        0x00000a3a:    4d56        VM      LDR      r5,[pc,#344] ; [0xb94] = 0xbcd
        0x00000a3c:    4620         F      MOV      r0,r4
        0x00000a3e:    9101        ..      STR      r1,[sp,#4]
        0x00000a40:    4632        2F      MOV      r2,r6
        0x00000a42:    47a8        .G      BLX      r5
        0x00000a44:    2108        .!      MOVS     r1,#8
        0x00000a46:    4620         F      MOV      r0,r4
        0x00000a48:    4632        2F      MOV      r2,r6
        0x00000a4a:    47a8        .G      BLX      r5
        0x00000a4c:    2104        .!      MOVS     r1,#4
        0x00000a4e:    4620         F      MOV      r0,r4
        0x00000a50:    4632        2F      MOV      r2,r6
        0x00000a52:    47a8        .G      BLX      r5
        0x00000a54:    2102        .!      MOVS     r1,#2
        0x00000a56:    4620         F      MOV      r0,r4
        0x00000a58:    4632        2F      MOV      r2,r6
        0x00000a5a:    47a8        .G      BLX      r5
        0x00000a5c:    4620         F      MOV      r0,r4
        0x00000a5e:    4631        1F      MOV      r1,r6
        0x00000a60:    4632        2F      MOV      r2,r6
        0x00000a62:    47a8        .G      BLX      r5
        0x00000a64:    0331        1.      LSLS     r1,r6,#12
        0x00000a66:    4620         F      MOV      r0,r4
        0x00000a68:    4632        2F      MOV      r2,r6
        0x00000a6a:    47a8        .G      BLX      r5
        0x00000a6c:    0371        q.      LSLS     r1,r6,#13
        0x00000a6e:    4620         F      MOV      r0,r4
        0x00000a70:    4632        2F      MOV      r2,r6
        0x00000a72:    47a8        .G      BLX      r5
        0x00000a74:    4620         F      MOV      r0,r4
        0x00000a76:    9904        ..      LDR      r1,[sp,#0x10]
        0x00000a78:    4632        2F      MOV      r2,r6
        0x00000a7a:    47a8        .G      BLX      r5
        0x00000a7c:    462b        +F      MOV      r3,r5
        0x00000a7e:    2140        @!      MOVS     r1,#0x40
        0x00000a80:    9103        ..      STR      r1,[sp,#0xc]
        0x00000a82:    2500        .%      MOVS     r5,#0
        0x00000a84:    4620         F      MOV      r0,r4
        0x00000a86:    462a        *F      MOV      r2,r5
        0x00000a88:    4798        .G      BLX      r3
        0x00000a8a:    4c41        AL      LDR      r4,[pc,#260] ; [0xb90] = 0x50004000
        0x00000a8c:    3480        .4      ADDS     r4,r4,#0x80
        0x00000a8e:    2180        .!      MOVS     r1,#0x80
        0x00000a90:    4620         F      MOV      r0,r4
        0x00000a92:    462a        *F      MOV      r2,r5
        0x00000a94:    4b3f        ?K      LDR      r3,[pc,#252] ; [0xb94] = 0xbcd
        0x00000a96:    4798        .G      BLX      r3
        0x00000a98:    9402        ..      STR      r4,[sp,#8]
        0x00000a9a:    4620         F      MOV      r0,r4
        0x00000a9c:    9903        ..      LDR      r1,[sp,#0xc]
        0x00000a9e:    462a        *F      MOV      r2,r5
        0x00000aa0:    4b3c        <K      LDR      r3,[pc,#240] ; [0xb94] = 0xbcd
        0x00000aa2:    4798        .G      BLX      r3
        0x00000aa4:    4c3a        :L      LDR      r4,[pc,#232] ; [0xb90] = 0x50004000
        0x00000aa6:    3440        @4      ADDS     r4,r4,#0x40
        0x00000aa8:    03f1        ..      LSLS     r1,r6,#15
        0x00000aaa:    4620         F      MOV      r0,r4
        0x00000aac:    462a        *F      MOV      r2,r5
        0x00000aae:    4b39        9K      LDR      r3,[pc,#228] ; [0xb94] = 0xbcd
        0x00000ab0:    4798        .G      BLX      r3
        0x00000ab2:    0231        1.      LSLS     r1,r6,#8
        0x00000ab4:    9403        ..      STR      r4,[sp,#0xc]
        0x00000ab6:    4620         F      MOV      r0,r4
        0x00000ab8:    462a        *F      MOV      r2,r5
        0x00000aba:    4c36        6L      LDR      r4,[pc,#216] ; [0xb94] = 0xbcd
        0x00000abc:    47a0        .G      BLX      r4
        0x00000abe:    02f1        ..      LSLS     r1,r6,#11
        0x00000ac0:    4833        3H      LDR      r0,[pc,#204] ; [0xb90] = 0x50004000
        0x00000ac2:    462a        *F      MOV      r2,r5
        0x00000ac4:    47a0        .G      BLX      r4
        0x00000ac6:    02b1        ..      LSLS     r1,r6,#10
        0x00000ac8:    4831        1H      LDR      r0,[pc,#196] ; [0xb90] = 0x50004000
        0x00000aca:    462a        *F      MOV      r2,r5
        0x00000acc:    47a0        .G      BLX      r4
        0x00000ace:    0271        q.      LSLS     r1,r6,#9
        0x00000ad0:    482f        /H      LDR      r0,[pc,#188] ; [0xb90] = 0x50004000
        0x00000ad2:    462a        *F      MOV      r2,r5
        0x00000ad4:    47a0        .G      BLX      r4
        0x00000ad6:    48df        .H      LDR      r0,[pc,#892] ; [0xe54] = 0x20000168
        0x00000ad8:    7e80        .~      LDRB     r0,[r0,#0x1a]
        0x00000ada:    2d08        .-      CMP      r5,#8
        0x00000adc:    d007        ..      BEQ      0xaee ; GPIO_Client_Init + 202
        0x00000ade:    4601        .F      MOV      r1,r0
        0x00000ae0:    40e9        .@      LSRS     r1,r1,r5
        0x00000ae2:    4031        1@      ANDS     r1,r1,r6
        0x00000ae4:    4249        IB      RSBS     r1,r1,#0
        0x00000ae6:    1c6d        m.      ADDS     r5,r5,#1
        0x00000ae8:    4029        )@      ANDS     r1,r1,r5
        0x00000aea:    c702        ..      STM      r7!,{r1}
        0x00000aec:    e7f5        ..      B        0xada ; GPIO_Client_Init + 182
        0x00000aee:    4e36        6N      LDR      r6,[pc,#216] ; [0xbc8] = 0x10001
        0x00000af0:    4c2a        *L      LDR      r4,[pc,#168] ; [0xb9c] = 0xe000e100
        0x00000af2:    9805        ..      LDR      r0,[sp,#0x14]
        0x00000af4:    2801        .(      CMP      r0,#1
        0x00000af6:    9d01        ..      LDR      r5,[sp,#4]
        0x00000af8:    4f25        %O      LDR      r7,[pc,#148] ; [0xb90] = 0x50004000
        0x00000afa:    d105        ..      BNE      0xb08 ; GPIO_Client_Init + 228
        0x00000afc:    2106        .!      MOVS     r1,#6
        0x00000afe:    4638        8F      MOV      r0,r7
        0x00000b00:    4632        2F      MOV      r2,r6
        0x00000b02:    f000f84d    ..M.    BL       GPIO_EnableInt ; 0xba0
        0x00000b06:    6025        %`      STR      r5,[r4,#0]
        0x00000b08:    9806        ..      LDR      r0,[sp,#0x18]
        0x00000b0a:    2800        .(      CMP      r0,#0
        0x00000b0c:    d006        ..      BEQ      0xb1c ; GPIO_Client_Init + 248
        0x00000b0e:    2107        .!      MOVS     r1,#7
        0x00000b10:    9802        ..      LDR      r0,[sp,#8]
        0x00000b12:    4632        2F      MOV      r2,r6
        0x00000b14:    f000f844    ..D.    BL       GPIO_EnableInt ; 0xba0
        0x00000b18:    9804        ..      LDR      r0,[sp,#0x10]
        0x00000b1a:    6020         `      STR      r0,[r4,#0]
        0x00000b1c:    9807        ..      LDR      r0,[sp,#0x1c]
        0x00000b1e:    2800        .(      CMP      r0,#0
        0x00000b20:    d006        ..      BEQ      0xb30 ; GPIO_Client_Init + 268
        0x00000b22:    2106        .!      MOVS     r1,#6
        0x00000b24:    9802        ..      LDR      r0,[sp,#8]
        0x00000b26:    4632        2F      MOV      r2,r6
        0x00000b28:    f000f83a    ..:.    BL       GPIO_EnableInt ; 0xba0
        0x00000b2c:    9804        ..      LDR      r0,[sp,#0x10]
        0x00000b2e:    6020         `      STR      r0,[r4,#0]
        0x00000b30:    9808        ..      LDR      r0,[sp,#0x20]
        0x00000b32:    2800        .(      CMP      r0,#0
        0x00000b34:    d005        ..      BEQ      0xb42 ; GPIO_Client_Init + 286
        0x00000b36:    210f        .!      MOVS     r1,#0xf
        0x00000b38:    9803        ..      LDR      r0,[sp,#0xc]
        0x00000b3a:    4632        2F      MOV      r2,r6
        0x00000b3c:    f000f830    ..0.    BL       GPIO_EnableInt ; 0xba0
        0x00000b40:    6025        %`      STR      r5,[r4,#0]
        0x00000b42:    9809        ..      LDR      r0,[sp,#0x24]
        0x00000b44:    2800        .(      CMP      r0,#0
        0x00000b46:    d005        ..      BEQ      0xb54 ; GPIO_Client_Init + 304
        0x00000b48:    2108        .!      MOVS     r1,#8
        0x00000b4a:    9803        ..      LDR      r0,[sp,#0xc]
        0x00000b4c:    4632        2F      MOV      r2,r6
        0x00000b4e:    f000f827    ..'.    BL       GPIO_EnableInt ; 0xba0
        0x00000b52:    6025        %`      STR      r5,[r4,#0]
        0x00000b54:    980a        ..      LDR      r0,[sp,#0x28]
        0x00000b56:    2800        .(      CMP      r0,#0
        0x00000b58:    d005        ..      BEQ      0xb66 ; GPIO_Client_Init + 322
        0x00000b5a:    210b        .!      MOVS     r1,#0xb
        0x00000b5c:    4638        8F      MOV      r0,r7
        0x00000b5e:    4632        2F      MOV      r2,r6
        0x00000b60:    f000f81e    ....    BL       GPIO_EnableInt ; 0xba0
        0x00000b64:    6025        %`      STR      r5,[r4,#0]
        0x00000b66:    980b        ..      LDR      r0,[sp,#0x2c]
        0x00000b68:    2800        .(      CMP      r0,#0
        0x00000b6a:    d005        ..      BEQ      0xb78 ; GPIO_Client_Init + 340
        0x00000b6c:    210a        .!      MOVS     r1,#0xa
        0x00000b6e:    4638        8F      MOV      r0,r7
        0x00000b70:    4632        2F      MOV      r2,r6
        0x00000b72:    f000f815    ....    BL       GPIO_EnableInt ; 0xba0
        0x00000b76:    6025        %`      STR      r5,[r4,#0]
        0x00000b78:    980c        ..      LDR      r0,[sp,#0x30]
        0x00000b7a:    2800        .(      CMP      r0,#0
        0x00000b7c:    d005        ..      BEQ      0xb8a ; GPIO_Client_Init + 358
        0x00000b7e:    2109        .!      MOVS     r1,#9
        0x00000b80:    4638        8F      MOV      r0,r7
        0x00000b82:    4632        2F      MOV      r2,r6
        0x00000b84:    f000f80c    ....    BL       GPIO_EnableInt ; 0xba0
        0x00000b88:    6025        %`      STR      r5,[r4,#0]
        0x00000b8a:    b00d        ..      ADD      sp,sp,#0x34
        0x00000b8c:    bdf0        ..      POP      {r4-r7,pc}
        0x00000b8e:    46c0        .F      MOV      r8,r8
    $d.1
    __arm_cp.0_0
        0x00000b90:    50004000    .@.P    DCD    1342193664
    __arm_cp.0_1
        0x00000b94:    00000bcd    ....    DCD    3021
    __arm_cp.0_2
        0x00000b98:    20000168    h..     DCD    536871272
    __arm_cp.0_4
        0x00000b9c:    e000e100    ....    DCD    3758153984
    $t.1
    GPIO_EnableInt
        0x00000ba0:    b5b0        ..      PUSH     {r4,r5,r7,lr}
        0x00000ba2:    0e13        ..      LSRS     r3,r2,#24
        0x00000ba4:    408b        .@      LSLS     r3,r3,r1
        0x00000ba6:    2401        .$      MOVS     r4,#1
        0x00000ba8:    408c        .@      LSLS     r4,r4,r1
        0x00000baa:    6985        .i      LDR      r5,[r0,#0x18]
        0x00000bac:    43a5        .C      BICS     r5,r5,r4
        0x00000bae:    431d        .C      ORRS     r5,r5,r3
        0x00000bb0:    6185        .a      STR      r5,[r0,#0x18]
        0x00000bb2:    23ff        .#      MOVS     r3,#0xff
        0x00000bb4:    061b        ..      LSLS     r3,r3,#24
        0x00000bb6:    439a        .C      BICS     r2,r2,r3
        0x00000bb8:    408a        .@      LSLS     r2,r2,r1
        0x00000bba:    4b03        .K      LDR      r3,[pc,#12] ; [0xbc8] = 0x10001
        0x00000bbc:    408b        .@      LSLS     r3,r3,r1
        0x00000bbe:    69c1        .i      LDR      r1,[r0,#0x1c]
        0x00000bc0:    4399        .C      BICS     r1,r1,r3
        0x00000bc2:    4311        .C      ORRS     r1,r1,r2
        0x00000bc4:    61c1        .a      STR      r1,[r0,#0x1c]
        0x00000bc6:    bdb0        ..      POP      {r4,r5,r7,pc}
    $d.2
    __arm_cp.1_0
        0x00000bc8:    00010001    ....    DCD    65537
    $t.0
    GPIO_SetMode
        0x00000bcc:    b5f0        ..      PUSH     {r4-r7,lr}
        0x00000bce:    2300        .#      MOVS     r3,#0
        0x00000bd0:    461c        .F      MOV      r4,r3
        0x00000bd2:    2b20         +      CMP      r3,#0x20
        0x00000bd4:    d00e        ..      BEQ      0xbf4 ; GPIO_SetMode + 40
        0x00000bd6:    460d        .F      MOV      r5,r1
        0x00000bd8:    40e5        .@      LSRS     r5,r5,r4
        0x00000bda:    07ed        ..      LSLS     r5,r5,#31
        0x00000bdc:    d007        ..      BEQ      0xbee ; GPIO_SetMode + 34
        0x00000bde:    4615        .F      MOV      r5,r2
        0x00000be0:    409d        .@      LSLS     r5,r5,r3
        0x00000be2:    2603        .&      MOVS     r6,#3
        0x00000be4:    409e        .@      LSLS     r6,r6,r3
        0x00000be6:    6807        .h      LDR      r7,[r0,#0]
        0x00000be8:    43b7        .C      BICS     r7,r7,r6
        0x00000bea:    432f        /C      ORRS     r7,r7,r5
        0x00000bec:    6007        .`      STR      r7,[r0,#0]
        0x00000bee:    1c9b        ..      ADDS     r3,r3,#2
        0x00000bf0:    1c64        d.      ADDS     r4,r4,#1
        0x00000bf2:    e7ee        ..      B        0xbd2 ; GPIO_SetMode + 6
        0x00000bf4:    bdf0        ..      POP      {r4-r7,pc}
    HID_GetOutReport
        0x00000bf6:    b580        ..      PUSH     {r7,lr}
        0x00000bf8:    f000f88e    ....    BL       ProcessCommand ; 0xd18
        0x00000bfc:    bd80        ..      POP      {r7,pc}
    HID_SetInReport
        0x00000bfe:    4770        pG      BX       lr
    HardFault_Handler
        0x00000c00:    4806        .H      LDR      r0,[pc,#24] ; [0xc1c] = 0xc21
        0x00000c02:    2004        .       MOVS     r0,#4
        0x00000c04:    4671        qF      MOV      r1,lr
        0x00000c06:    4208        .B      TST      r0,r1
        0x00000c08:    d003        ..      BEQ      0xc12 ; HardFault_Handler + 18
        0x00000c0a:    f3ef8009    ....    MRS      r0,PSP
        0x00000c0e:    4671        qF      MOV      r1,lr
        0x00000c10:    e006        ..      B        Hard_Fault_Handler ; 0xc20
        0x00000c12:    f3ef8008    ....    MRS      r0,MSP
        0x00000c16:    e003        ..      B        Hard_Fault_Handler ; 0xc20
        0x00000c18:    e7fe        ..      B        0xc18 ; HardFault_Handler + 24
        0x00000c1a:    46c0        .F      MOV      r8,r8
    $d.3
    __arm_cp.1_0
        0x00000c1c:    00000c21    !...    DCD    3105
    $t.0
    Hard_Fault_Handler
        0x00000c20:    b5b0        ..      PUSH     {r4,r5,r7,lr}
        0x00000c22:    4604        .F      MOV      r4,r0
        0x00000c24:    a00f        ..      ADR      r0,{pc}+0x40 ; 0xc64
        0x00000c26:    f001feef    ....    BL       puts ; 0x2a08
        0x00000c2a:    6821        !h      LDR      r1,[r4,#0]
        0x00000c2c:    a013        ..      ADR      r0,{pc}+0x50 ; 0xc7c
        0x00000c2e:    4d16        .M      LDR      r5,[pc,#88] ; [0xc88] = 0x2529
        0x00000c30:    47a8        .G      BLX      r5
        0x00000c32:    6861        ah      LDR      r1,[r4,#4]
        0x00000c34:    a015        ..      ADR      r0,{pc}+0x58 ; 0xc8c
        0x00000c36:    47a8        .G      BLX      r5
        0x00000c38:    68a1        .h      LDR      r1,[r4,#8]
        0x00000c3a:    a017        ..      ADR      r0,{pc}+0x5e ; 0xc98
        0x00000c3c:    47a8        .G      BLX      r5
        0x00000c3e:    68e1        .h      LDR      r1,[r4,#0xc]
        0x00000c40:    a018        ..      ADR      r0,{pc}+0x64 ; 0xca4
        0x00000c42:    47a8        .G      BLX      r5
        0x00000c44:    6921        !i      LDR      r1,[r4,#0x10]
        0x00000c46:    a01a        ..      ADR      r0,{pc}+0x6a ; 0xcb0
        0x00000c48:    47a8        .G      BLX      r5
        0x00000c4a:    6961        ai      LDR      r1,[r4,#0x14]
        0x00000c4c:    a01b        ..      ADR      r0,{pc}+0x70 ; 0xcbc
        0x00000c4e:    47a8        .G      BLX      r5
        0x00000c50:    69a1        .i      LDR      r1,[r4,#0x18]
        0x00000c52:    a01d        ..      ADR      r0,{pc}+0x76 ; 0xcc8
        0x00000c54:    47a8        .G      BLX      r5
        0x00000c56:    69e1        .i      LDR      r1,[r4,#0x1c]
        0x00000c58:    a01e        ..      ADR      r0,{pc}+0x7c ; 0xcd4
        0x00000c5a:    47a8        .G      BLX      r5
        0x00000c5c:    4820         H      LDR      r0,[pc,#128] ; [0xce0] = 0x50000008
        0x00000c5e:    2101        .!      MOVS     r1,#1
        0x00000c60:    6001        .`      STR      r1,[r0,#0]
        0x00000c62:    bdb0        ..      POP      {r4,r5,r7,pc}
    $d.1
        0x00000c64:    48206e49    In H    DCD    1210084937
        0x00000c68:    20647261    ard     DCD    543453793
        0x00000c6c:    6c756146    Faul    DCD    1819631942
        0x00000c70:    61482074    t Ha    DCD    1632116852
        0x00000c74:    656c646e    ndle    DCD    1701602414
        0x00000c78:    00000072    r...    DCD    114
        0x00000c7c:    20203072    r0      DCD    538980466
        0x00000c80:    7830203d    = 0x    DCD    2016419901
        0x00000c84:    000a7825    %x..    DCD    686117
    __arm_cp.0_2
        0x00000c88:    00002529    )%..    DCD    9513
        0x00000c8c:    20203172    r1      DCD    538980722
        0x00000c90:    7830203d    = 0x    DCD    2016419901
        0x00000c94:    000a7825    %x..    DCD    686117
        0x00000c98:    20203272    r2      DCD    538980978
        0x00000c9c:    7830203d    = 0x    DCD    2016419901
        0x00000ca0:    000a7825    %x..    DCD    686117
        0x00000ca4:    20203372    r3      DCD    538981234
        0x00000ca8:    7830203d    = 0x    DCD    2016419901
        0x00000cac:    000a7825    %x..    DCD    686117
        0x00000cb0:    20323172    r12     DCD    540160370
        0x00000cb4:    7830203d    = 0x    DCD    2016419901
        0x00000cb8:    000a7825    %x..    DCD    686117
        0x00000cbc:    2020726c    lr      DCD    538997356
        0x00000cc0:    7830203d    = 0x    DCD    2016419901
        0x00000cc4:    000a7825    %x..    DCD    686117
        0x00000cc8:    20206370    pc      DCD    538993520
        0x00000ccc:    7830203d    = 0x    DCD    2016419901
        0x00000cd0:    000a7825    %x..    DCD    686117
        0x00000cd4:    20727370    psr     DCD    544371568
        0x00000cd8:    7830203d    = 0x    DCD    2016419901
        0x00000cdc:    000a7825    %x..    DCD    686117
    __arm_cp.0_10
        0x00000ce0:    50000008    ...P    DCD    1342177288
    $t.6
    Modbus_Master_GetByte
        0x00000ce4:    b580        ..      PUSH     {r7,lr}
        0x00000ce6:    4601        .F      MOV      r1,r0
        0x00000ce8:    48a6        .H      LDR      r0,[pc,#664] ; [0xf84] = 0x40150000
        0x00000cea:    2201        ."      MOVS     r2,#1
        0x00000cec:    f000fdb3    ....    BL       UART_Read ; 0x1856
        0x00000cf0:    1e40        @.      SUBS     r0,r0,#1
        0x00000cf2:    1e41        A.      SUBS     r1,r0,#1
        0x00000cf4:    4188        .A      SBCS     r0,r0,r1
        0x00000cf6:    bd80        ..      POP      {r7,pc}
    Modbus_Master_Rece_Handler
        0x00000cf8:    b5e0        ..      PUSH     {r5-r7,lr}
        0x00000cfa:    a801        ..      ADD      r0,sp,#4
        0x00000cfc:    f7fffff2    ....    BL       Modbus_Master_GetByte ; 0xce4
        0x00000d00:    2800        .(      CMP      r0,#0
        0x00000d02:    d000        ..      BEQ      0xd06 ; Modbus_Master_Rece_Handler + 14
        0x00000d04:    bd8c        ..      POP      {r2,r3,r7,pc}
        0x00000d06:    a801        ..      ADD      r0,sp,#4
        0x00000d08:    7801        .x      LDRB     r1,[r0,#0]
        0x00000d0a:    4802        .H      LDR      r0,[pc,#8] ; [0xd14] = 0x20002720
        0x00000d0c:    f001fad9    ....    BL       rbPush ; 0x22c2
        0x00000d10:    bd8c        ..      POP      {r2,r3,r7,pc}
        0x00000d12:    46c0        .F      MOV      r8,r8
    $d.9
    __arm_cp.4_0
        0x00000d14:    20002720     '.     DCD    536880928
    $t.5
    ProcessCommand
        0x00000d18:    b5bc        ..      PUSH     {r2-r5,r7,lr}
        0x00000d1a:    4604        .F      MOV      r4,r0
        0x00000d1c:    7800        .x      LDRB     r0,[r0,#0]
        0x00000d1e:    1e40        @.      SUBS     r0,r0,#1
        0x00000d20:    2806        .(      CMP      r0,#6
        0x00000d22:    d900        ..      BLS      0xd26 ; ProcessCommand + 14
        0x00000d24:    e094        ..      B        0xe50 ; ProcessCommand + 312
        0x00000d26:    46c0        .F      MOV      r8,r8
        0x00000d28:    4478        xD      ADD      r0,r0,pc
        0x00000d2a:    7900        .y      LDRB     r0,[r0,#4]
        0x00000d2c:    0040        @.      LSLS     r0,r0,#1
        0x00000d2e:    4487        .D      ADD      pc,pc,r0
    $d.6
        0x00000d30:    4c063c03    .<.L    DCD    1275476995
        0x00000d34:    002d8f5f    _.-.    DCD    2985823
    $t.7
        0x00000d38:    f000fbda    ....    BL       SendBackDeviceSettingInfo ; 0x14f0
        0x00000d3c:    e088        ..      B        0xe50 ; ProcessCommand + 312
        0x00000d3e:    7923        #y      LDRB     r3,[r4,#4]
        0x00000d40:    78e2        .x      LDRB     r2,[r4,#3]
        0x00000d42:    78a1        .x      LDRB     r1,[r4,#2]
        0x00000d44:    7860        `x      LDRB     r0,[r4,#1]
        0x00000d46:    7965        ey      LDRB     r5,[r4,#5]
        0x00000d48:    79a4        .y      LDRB     r4,[r4,#6]
        0x00000d4a:    9500        ..      STR      r5,[sp,#0]
        0x00000d4c:    9401        ..      STR      r4,[sp,#4]
        0x00000d4e:    f001f957    ..W.    BL       Update_DataFlash_RFConfig_From_PC ; 0x2000
        0x00000d52:    2800        .(      CMP      r0,#0
        0x00000d54:    d148        H.      BNE      0xde8 ; ProcessCommand + 208
        0x00000d56:    2026        &       MOVS     r0,#0x26
        0x00000d58:    4c3e        >L      LDR      r4,[pc,#248] ; [0xe54] = 0x20000168
        0x00000d5a:    5c20         \      LDRB     r0,[r4,r0]
        0x00000d5c:    3811        .8      SUBS     r0,r0,#0x11
        0x00000d5e:    b2c0        ..      UXTB     r0,r0
        0x00000d60:    2807        .(      CMP      r0,#7
        0x00000d62:    d804        ..      BHI      0xd6e ; ProcessCommand + 86
        0x00000d64:    0080        ..      LSLS     r0,r0,#2
        0x00000d66:    a13f        ?.      ADR      r1,{pc}+0xfe ; 0xe64
        0x00000d68:    5808        .X      LDR      r0,[r1,r0]
        0x00000d6a:    f000faad    ....    BL       SX1276LoRaSetRFFrequency ; 0x12c8
        0x00000d6e:    3418        .4      ADDS     r4,r4,#0x18
        0x00000d70:    200f        .       MOVS     r0,#0xf
        0x00000d72:    5620         V      LDRSB    r0,[r4,r0]
        0x00000d74:    f000fac2    ....    BL       SX1276LoRaSetRFPower ; 0x12fc
        0x00000d78:    7c20         |      LDRB     r0,[r4,#0x10]
        0x00000d7a:    f000fb01    ....    BL       SX1276LoRaSetSignalBandwidth ; 0x1380
        0x00000d7e:    7c60        `|      LDRB     r0,[r4,#0x11]
        0x00000d80:    f000fb16    ....    BL       SX1276LoRaSetSpreadingFactor ; 0x13b0
        0x00000d84:    7ca0        .|      LDRB     r0,[r4,#0x12]
        0x00000d86:    f000fa73    ..s.    BL       SX1276LoRaSetErrorCoding ; 0x1270
        0x00000d8a:    e058        X.      B        0xe3e ; ProcessCommand + 294
        0x00000d8c:    2022        "       MOVS     r0,#0x22
        0x00000d8e:    4931        1I      LDR      r1,[pc,#196] ; [0xe54] = 0x20000168
        0x00000d90:    5c08        .\      LDRB     r0,[r1,r0]
        0x00000d92:    21fc        .!      MOVS     r1,#0xfc
        0x00000d94:    4001        .@      ANDS     r1,r1,r0
        0x00000d96:    7860        `x      LDRB     r0,[r4,#1]
        0x00000d98:    2910        .)      CMP      r1,#0x10
        0x00000d9a:    d138        8.      BNE      0xe0e ; ProcessCommand + 246
        0x00000d9c:    2801        .(      CMP      r0,#1
        0x00000d9e:    d145        E.      BNE      0xe2c ; ProcessCommand + 276
        0x00000da0:    203a        :       MOVS     r0,#0x3a
        0x00000da2:    492d        -I      LDR      r1,[pc,#180] ; [0xe58] = 0x2000019c
        0x00000da4:    2202        ."      MOVS     r2,#2
        0x00000da6:    540a        .T      STRB     r2,[r1,r0]
        0x00000da8:    e03f        ?.      B        0xe2a ; ProcessCommand + 274
        0x00000daa:    78a1        .x      LDRB     r1,[r4,#2]
        0x00000dac:    2030        0       MOVS     r0,#0x30
        0x00000dae:    4348        HC      MULS     r0,r1,r0
        0x00000db0:    4a29        )J      LDR      r2,[pc,#164] ; [0xe58] = 0x2000019c
        0x00000db2:    1810        ..      ADDS     r0,r2,r0
        0x00000db4:    7842        Bx      LDRB     r2,[r0,#1]
        0x00000db6:    0092        ..      LSLS     r2,r2,#2
        0x00000db8:    7863        cx      LDRB     r3,[r4,#1]
        0x00000dba:    011b        ..      LSLS     r3,r3,#4
        0x00000dbc:    4313        .C      ORRS     r3,r3,r2
        0x00000dbe:    7880        .x      LDRB     r0,[r0,#2]
        0x00000dc0:    4318        .C      ORRS     r0,r0,r3
        0x00000dc2:    b2c0        ..      UXTB     r0,r0
        0x00000dc4:    f001f840    ..@.    BL       Update_DataFlash_ID_From_PC ; 0x1e48
        0x00000dc8:    e01e        ..      B        0xe08 ; ProcessCommand + 240
        0x00000dca:    78a0        .x      LDRB     r0,[r4,#2]
        0x00000dcc:    0600        ..      LSLS     r0,r0,#24
        0x00000dce:    78e1        .x      LDRB     r1,[r4,#3]
        0x00000dd0:    0409        ..      LSLS     r1,r1,#16
        0x00000dd2:    1808        ..      ADDS     r0,r1,r0
        0x00000dd4:    7921        !y      LDRB     r1,[r4,#4]
        0x00000dd6:    0209        ..      LSLS     r1,r1,#8
        0x00000dd8:    1840        @.      ADDS     r0,r0,r1
        0x00000dda:    7961        ay      LDRB     r1,[r4,#5]
        0x00000ddc:    1841        A.      ADDS     r1,r0,r1
        0x00000dde:    7860        `x      LDRB     r0,[r4,#1]
        0x00000de0:    f001f858    ..X.    BL       Update_DataFlash_InputType_From_PC ; 0x1e94
        0x00000de4:    2800        .(      CMP      r0,#0
        0x00000de6:    d028        (.      BEQ      0xe3a ; ProcessCommand + 290
        0x00000de8:    2001        .       MOVS     r0,#1
        0x00000dea:    f000fb5d    ..].    BL       SendBack ; 0x14a8
        0x00000dee:    e02f        /.      B        0xe50 ; ProcessCommand + 312
        0x00000df0:    79a0        .y      LDRB     r0,[r4,#6]
        0x00000df2:    7961        ay      LDRB     r1,[r4,#5]
        0x00000df4:    0209        ..      LSLS     r1,r1,#8
        0x00000df6:    1808        ..      ADDS     r0,r1,r0
        0x00000df8:    b285        ..      UXTH     r5,r0
        0x00000dfa:    7923        #y      LDRB     r3,[r4,#4]
        0x00000dfc:    78e1        .x      LDRB     r1,[r4,#3]
        0x00000dfe:    78a2        .x      LDRB     r2,[r4,#2]
        0x00000e00:    7860        `x      LDRB     r0,[r4,#1]
        0x00000e02:    9500        ..      STR      r5,[sp,#0]
        0x00000e04:    f001f88e    ....    BL       Update_DataFlash_ModbusConfig_From_PC ; 0x1f24
        0x00000e08:    1e41        A.      SUBS     r1,r0,#1
        0x00000e0a:    4188        .A      SBCS     r0,r0,r1
        0x00000e0c:    e018        ..      B        0xe40 ; ProcessCommand + 296
        0x00000e0e:    2801        .(      CMP      r0,#1
        0x00000e10:    d10c        ..      BNE      0xe2c ; ProcessCommand + 276
        0x00000e12:    203a        :       MOVS     r0,#0x3a
        0x00000e14:    4910        .I      LDR      r1,[pc,#64] ; [0xe58] = 0x2000019c
        0x00000e16:    2201        ."      MOVS     r2,#1
        0x00000e18:    540a        .T      STRB     r2,[r1,r0]
        0x00000e1a:    4810        .H      LDR      r0,[pc,#64] ; [0xe5c] = 0x40150000
        0x00000e1c:    f000fd18    ....    BL       UART_Close ; 0x1850
        0x00000e20:    480f        .H      LDR      r0,[pc,#60] ; [0xe60] = 0x186a0
        0x00000e22:    f7fffc2d    ..-.    BL       CLK_SysTickDelay ; 0x680
        0x00000e26:    f001f96f    ..o.    BL       UseModbus ; 0x2108
        0x00000e2a:    7860        `x      LDRB     r0,[r4,#1]
        0x00000e2c:    2800        .(      CMP      r0,#0
        0x00000e2e:    d10f        ..      BNE      0xe50 ; ProcessCommand + 312
        0x00000e30:    203a        :       MOVS     r0,#0x3a
        0x00000e32:    4909        .I      LDR      r1,[pc,#36] ; [0xe58] = 0x2000019c
        0x00000e34:    2200        ."      MOVS     r2,#0
        0x00000e36:    540a        .T      STRB     r2,[r1,r0]
        0x00000e38:    e00a        ..      B        0xe50 ; ProcessCommand + 312
        0x00000e3a:    f7fffdf3    ....    BL       GPIO_Client_Init ; 0xa24
        0x00000e3e:    2000        .       MOVS     r0,#0
        0x00000e40:    f000fb32    ..2.    BL       SendBack ; 0x14a8
        0x00000e44:    207d        }       MOVS     r0,#0x7d
        0x00000e46:    00c0        ..      LSLS     r0,r0,#3
        0x00000e48:    f7fffc1a    ....    BL       CLK_SysTickDelay ; 0x680
        0x00000e4c:    f000fb14    ....    BL       SYS_ResetCPU ; 0x1478
        0x00000e50:    2000        .       MOVS     r0,#0
        0x00000e52:    bdbc        ..      POP      {r2-r5,r7,pc}
    $d.8
    __arm_cp.3_0
        0x00000e54:    20000168    h..     DCD    536871272
    __arm_cp.3_1
        0x00000e58:    2000019c    ...     DCD    536871324
    __arm_cp.3_2
        0x00000e5c:    40150000    ...@    DCD    1075118080
    __arm_cp.3_3
        0x00000e60:    000186a0    ....    DCD    100000
        0x00000e64:    3689cac0    ...6    DCD    915000000
        0x00000e68:    19cf0e40    @...    DCD    433000000
        0x00000e6c:    3689cac0    ...6    DCD    915000000
        0x00000e70:    19cf0e40    @...    DCD    433000000
        0x00000e74:    3689cac0    ...6    DCD    915000000
        0x00000e78:    19cf0e40    @...    DCD    433000000
        0x00000e7c:    3689cac0    ...6    DCD    915000000
        0x00000e80:    19cf0e40    @...    DCD    433000000
    $t.0
    SB_Uart_Driver_Init
        0x00000e84:    b5f8        ..      PUSH     {r3-r7,lr}
        0x00000e86:    461f        .F      MOV      r7,r3
        0x00000e88:    460d        .F      MOV      r5,r1
        0x00000e8a:    4604        .F      MOV      r4,r0
        0x00000e8c:    483c        <H      LDR      r0,[pc,#240] ; [0xf80] = 0x40050000
        0x00000e8e:    4284        .B      CMP      r4,r0
        0x00000e90:    d018        ..      BEQ      0xec4 ; SB_Uart_Driver_Init + 64
        0x00000e92:    483c        <H      LDR      r0,[pc,#240] ; [0xf84] = 0x40150000
        0x00000e94:    4284        .B      CMP      r4,r0
        0x00000e96:    d12a        *.      BNE      0xeee ; SB_Uart_Driver_Init + 106
        0x00000e98:    9200        ..      STR      r2,[sp,#0]
        0x00000e9a:    483b        ;H      LDR      r0,[pc,#236] ; [0xf88] = 0x50000034
        0x00000e9c:    6801        .h      LDR      r1,[r0,#0]
        0x00000e9e:    2230        0"      MOVS     r2,#0x30
        0x00000ea0:    4391        .C      BICS     r1,r1,r2
        0x00000ea2:    6001        .`      STR      r1,[r0,#0]
        0x00000ea4:    6801        .h      LDR      r1,[r0,#0]
        0x00000ea6:    4311        .C      ORRS     r1,r1,r2
        0x00000ea8:    6001        .`      STR      r1,[r0,#0]
        0x00000eaa:    4838        8H      LDR      r0,[pc,#224] ; [0xf8c] = 0x57803d10
        0x00000eac:    1c46        F.      ADDS     r6,r0,#1
        0x00000eae:    4630        0F      MOV      r0,r6
        0x00000eb0:    f7fffb7c    ..|.    BL       CLK_EnableModuleClock ; 0x5ac
        0x00000eb4:    2100        .!      MOVS     r1,#0
        0x00000eb6:    4630        0F      MOV      r0,r6
        0x00000eb8:    460a        .F      MOV      r2,r1
        0x00000eba:    f7fffb89    ....    BL       CLK_SetModuleClock ; 0x5d0
        0x00000ebe:    4834        4H      LDR      r0,[pc,#208] ; [0xf90] = 0x4000010
        0x00000ec0:    1c40        @.      ADDS     r0,r0,#1
        0x00000ec2:    e011        ..      B        0xee8 ; SB_Uart_Driver_Init + 100
        0x00000ec4:    9200        ..      STR      r2,[sp,#0]
        0x00000ec6:    4830        0H      LDR      r0,[pc,#192] ; [0xf88] = 0x50000034
        0x00000ec8:    6801        .h      LDR      r1,[r0,#0]
        0x00000eca:    2603        .&      MOVS     r6,#3
        0x00000ecc:    43b1        .C      BICS     r1,r1,r6
        0x00000ece:    6001        .`      STR      r1,[r0,#0]
        0x00000ed0:    6801        .h      LDR      r1,[r0,#0]
        0x00000ed2:    4331        1C      ORRS     r1,r1,r6
        0x00000ed4:    6001        .`      STR      r1,[r0,#0]
        0x00000ed6:    482d        -H      LDR      r0,[pc,#180] ; [0xf8c] = 0x57803d10
        0x00000ed8:    f7fffb68    ..h.    BL       CLK_EnableModuleClock ; 0x5ac
        0x00000edc:    0631        1.      LSLS     r1,r6,#24
        0x00000ede:    2200        ."      MOVS     r2,#0
        0x00000ee0:    482a        *H      LDR      r0,[pc,#168] ; [0xf8c] = 0x57803d10
        0x00000ee2:    f7fffb75    ..u.    BL       CLK_SetModuleClock ; 0x5d0
        0x00000ee6:    482a        *H      LDR      r0,[pc,#168] ; [0xf90] = 0x4000010
        0x00000ee8:    f000facc    ....    BL       SYS_ResetModule ; 0x1484
        0x00000eec:    9a00        ..      LDR      r2,[sp,#0]
        0x00000eee:    68a0        .h      LDR      r0,[r4,#8]
        0x00000ef0:    2104        .!      MOVS     r1,#4
        0x00000ef2:    4301        .C      ORRS     r1,r1,r0
        0x00000ef4:    60a1        .`      STR      r1,[r4,#8]
        0x00000ef6:    68a1        .h      LDR      r1,[r4,#8]
        0x00000ef8:    2002        .       MOVS     r0,#2
        0x00000efa:    4301        .C      ORRS     r1,r1,r0
        0x00000efc:    60a1        .`      STR      r1,[r4,#8]
        0x00000efe:    2f02        ./      CMP      r7,#2
        0x00000f00:    d00d        ..      BEQ      0xf1e ; SB_Uart_Driver_Init + 154
        0x00000f02:    2f01        ./      CMP      r7,#1
        0x00000f04:    d003        ..      BEQ      0xf0e ; SB_Uart_Driver_Init + 138
        0x00000f06:    2f00        ./      CMP      r7,#0
        0x00000f08:    d111        ..      BNE      0xf2e ; SB_Uart_Driver_Init + 170
        0x00000f0a:    68e1        .h      LDR      r1,[r4,#0xc]
        0x00000f0c:    e005        ..      B        0xf1a ; SB_Uart_Driver_Init + 150
        0x00000f0e:    68e1        .h      LDR      r1,[r4,#0xc]
        0x00000f10:    2318        .#      MOVS     r3,#0x18
        0x00000f12:    4399        .C      BICS     r1,r1,r3
        0x00000f14:    60e1        .`      STR      r1,[r4,#0xc]
        0x00000f16:    68e1        .h      LDR      r1,[r4,#0xc]
        0x00000f18:    4319        .C      ORRS     r1,r1,r3
        0x00000f1a:    60e1        .`      STR      r1,[r4,#0xc]
        0x00000f1c:    e007        ..      B        0xf2e ; SB_Uart_Driver_Init + 170
        0x00000f1e:    68e1        .h      LDR      r1,[r4,#0xc]
        0x00000f20:    2318        .#      MOVS     r3,#0x18
        0x00000f22:    4399        .C      BICS     r1,r1,r3
        0x00000f24:    60e1        .`      STR      r1,[r4,#0xc]
        0x00000f26:    68e1        .h      LDR      r1,[r4,#0xc]
        0x00000f28:    2308        .#      MOVS     r3,#8
        0x00000f2a:    430b        .C      ORRS     r3,r3,r1
        0x00000f2c:    60e3        .`      STR      r3,[r4,#0xc]
        0x00000f2e:    1f51        Q.      SUBS     r1,r2,#5
        0x00000f30:    2903        .)      CMP      r1,#3
        0x00000f32:    d817        ..      BHI      0xf64 ; SB_Uart_Driver_Init + 224
        0x00000f34:    0089        ..      LSLS     r1,r1,#2
        0x00000f36:    a201        ..      ADR      r2,{pc}+6 ; 0xf3c
        0x00000f38:    5851        QX      LDR      r1,[r2,r1]
        0x00000f3a:    468f        .F      MOV      pc,r1
    $d.1
        0x00000f3c:    00000f4d    M...    DCD    3917
        0x00000f40:    00000f5d    ]...    DCD    3933
        0x00000f44:    00000f53    S...    DCD    3923
        0x00000f48:    00000f57    W...    DCD    3927
    $t.2
        0x00000f4c:    68e0        .h      LDR      r0,[r4,#0xc]
        0x00000f4e:    60e0        .`      STR      r0,[r4,#0xc]
        0x00000f50:    e008        ..      B        0xf64 ; SB_Uart_Driver_Init + 224
        0x00000f52:    68e1        .h      LDR      r1,[r4,#0xc]
        0x00000f54:    e004        ..      B        0xf60 ; SB_Uart_Driver_Init + 220
        0x00000f56:    68e0        .h      LDR      r0,[r4,#0xc]
        0x00000f58:    2103        .!      MOVS     r1,#3
        0x00000f5a:    e001        ..      B        0xf60 ; SB_Uart_Driver_Init + 220
        0x00000f5c:    68e0        .h      LDR      r0,[r4,#0xc]
        0x00000f5e:    2101        .!      MOVS     r1,#1
        0x00000f60:    4301        .C      ORRS     r1,r1,r0
        0x00000f62:    60e1        .`      STR      r1,[r4,#0xc]
        0x00000f64:    68e0        .h      LDR      r0,[r4,#0xc]
        0x00000f66:    60e0        .`      STR      r0,[r4,#0xc]
        0x00000f68:    0868        h.      LSRS     r0,r5,#1
        0x00000f6a:    490a        .I      LDR      r1,[pc,#40] ; [0xf94] = 0xb71b00
        0x00000f6c:    1840        @.      ADDS     r0,r0,r1
        0x00000f6e:    4629        )F      MOV      r1,r5
        0x00000f70:    f7fffa0c    ....    BL       __aeabi_uidiv ; 0x38c
        0x00000f74:    1e80        ..      SUBS     r0,r0,#2
        0x00000f76:    2103        .!      MOVS     r1,#3
        0x00000f78:    0709        ..      LSLS     r1,r1,#28
        0x00000f7a:    4301        .C      ORRS     r1,r1,r0
        0x00000f7c:    6261        ab      STR      r1,[r4,#0x24]
        0x00000f7e:    bdf8        ..      POP      {r3-r7,pc}
    $d.3
    __arm_cp.0_0
        0x00000f80:    40050000    ...@    DCD    1074069504
    __arm_cp.0_1
        0x00000f84:    40150000    ...@    DCD    1075118080
    __arm_cp.0_2
        0x00000f88:    50000034    4..P    DCD    1342177332
    __arm_cp.0_3
        0x00000f8c:    57803d10    .=.W    DCD    1468022032
    __arm_cp.0_4
        0x00000f90:    04000010    ....    DCD    67108880
    __arm_cp.0_5
        0x00000f94:    00b71b00    ....    DCD    12000000
    $t.0
    SIM_EEPROM_READ
        0x00000f98:    b510        ..      PUSH     {r4,lr}
        0x00000f9a:    4604        .F      MOV      r4,r0
        0x00000f9c:    2003        .       MOVS     r0,#3
        0x00000f9e:    4621        !F      MOV      r1,r4
        0x00000fa0:    4381        .C      BICS     r1,r1,r0
        0x00000fa2:    201f        .       MOVS     r0,#0x1f
        0x00000fa4:    0300        ..      LSLS     r0,r0,#12
        0x00000fa6:    1808        ..      ADDS     r0,r1,r0
        0x00000fa8:    f7fffcae    ....    BL       FMC_Read ; 0x908
        0x00000fac:    07a1        ..      LSLS     r1,r4,#30
        0x00000fae:    0ec9        ..      LSRS     r1,r1,#27
        0x00000fb0:    40c8        .@      LSRS     r0,r0,r1
        0x00000fb2:    b2c0        ..      UXTB     r0,r0
        0x00000fb4:    bd10        ..      POP      {r4,pc}
        0x00000fb6:    0000        ..      MOVS     r0,r0
    SIM_EEPROM_WRITE
        0x00000fb8:    b5f0        ..      PUSH     {r4-r7,lr}
        0x00000fba:    b0ff        ..      SUB      sp,sp,#0x1fc
        0x00000fbc:    b086        ..      SUB      sp,sp,#0x18
        0x00000fbe:    460d        .F      MOV      r5,r1
        0x00000fc0:    4604        .F      MOV      r4,r0
        0x00000fc2:    f7ffffe9    ....    BL       SIM_EEPROM_READ ; 0xf98
        0x00000fc6:    211f        .!      MOVS     r1,#0x1f
        0x00000fc8:    030e        ..      LSLS     r6,r1,#12
        0x00000fca:    28ff        .(      CMP      r0,#0xff
        0x00000fcc:    d004        ..      BEQ      0xfd8 ; SIM_EEPROM_WRITE + 32
        0x00000fce:    4620         F      MOV      r0,r4
        0x00000fd0:    f7ffffe2    ....    BL       SIM_EEPROM_READ ; 0xf98
        0x00000fd4:    42a8        .B      CMP      r0,r5
        0x00000fd6:    d113        ..      BNE      0x1000 ; SIM_EEPROM_WRITE + 72
        0x00000fd8:    2003        .       MOVS     r0,#3
        0x00000fda:    4621        !F      MOV      r1,r4
        0x00000fdc:    4381        .C      BICS     r1,r1,r0
        0x00000fde:    198e        ..      ADDS     r6,r1,r6
        0x00000fe0:    4630        0F      MOV      r0,r6
        0x00000fe2:    f7fffc91    ....    BL       FMC_Read ; 0x908
        0x00000fe6:    07a0        ..      LSLS     r0,r4,#30
        0x00000fe8:    0ec0        ..      LSRS     r0,r0,#27
        0x00000fea:    4085        .@      LSLS     r5,r5,r0
        0x00000fec:    21ff        .!      MOVS     r1,#0xff
        0x00000fee:    4081        .@      LSLS     r1,r1,r0
        0x00000ff0:    43c9        .C      MVNS     r1,r1
        0x00000ff2:    4329        )C      ORRS     r1,r1,r5
        0x00000ff4:    4630        0F      MOV      r0,r6
        0x00000ff6:    f7fffc95    ....    BL       FMC_Write ; 0x924
        0x00000ffa:    b07f        ..      ADD      sp,sp,#0x1fc
        0x00000ffc:    b006        ..      ADD      sp,sp,#0x18
        0x00000ffe:    bdf0        ..      POP      {r4-r7,pc}
        0x00001000:    2003        .       MOVS     r0,#3
        0x00001002:    4621        !F      MOV      r1,r4
        0x00001004:    4381        .C      BICS     r1,r1,r0
        0x00001006:    1988        ..      ADDS     r0,r1,r6
        0x00001008:    f7fffc7e    ..~.    BL       FMC_Read ; 0x908
        0x0000100c:    9002        ..      STR      r0,[sp,#8]
        0x0000100e:    481f        .H      LDR      r0,[pc,#124] ; [0x108c] = 0xfffffe00
        0x00001010:    4020         @      ANDS     r0,r0,r4
        0x00001012:    21f9        .!      MOVS     r1,#0xf9
        0x00001014:    0249        I.      LSLS     r1,r1,#9
        0x00001016:    462a        *F      MOV      r2,r5
        0x00001018:    1845        E.      ADDS     r5,r0,r1
        0x0000101a:    1987        ..      ADDS     r7,r0,r6
        0x0000101c:    9404        ..      STR      r4,[sp,#0x10]
        0x0000101e:    07a0        ..      LSLS     r0,r4,#30
        0x00001020:    0ec0        ..      LSRS     r0,r0,#27
        0x00001022:    4082        .@      LSLS     r2,r2,r0
        0x00001024:    9203        ..      STR      r2,[sp,#0xc]
        0x00001026:    21ff        .!      MOVS     r1,#0xff
        0x00001028:    4081        .@      LSLS     r1,r1,r0
        0x0000102a:    43c8        .C      MVNS     r0,r1
        0x0000102c:    9001        ..      STR      r0,[sp,#4]
        0x0000102e:    ac05        ..      ADD      r4,sp,#0x14
        0x00001030:    463e        >F      MOV      r6,r7
        0x00001032:    42ae        .B      CMP      r6,r5
        0x00001034:    d205        ..      BCS      0x1042 ; SIM_EEPROM_WRITE + 138
        0x00001036:    4630        0F      MOV      r0,r6
        0x00001038:    f7fffc66    ..f.    BL       FMC_Read ; 0x908
        0x0000103c:    c401        ..      STM      r4!,{r0}
        0x0000103e:    1d36        6.      ADDS     r6,r6,#4
        0x00001040:    e7f7        ..      B        0x1032 ; SIM_EEPROM_WRITE + 122
        0x00001042:    4813        .H      LDR      r0,[pc,#76] ; [0x1090] = 0x5000c000
        0x00001044:    2122        "!      MOVS     r1,#0x22
        0x00001046:    60c1        .`      STR      r1,[r0,#0xc]
        0x00001048:    6047        G`      STR      r7,[r0,#4]
        0x0000104a:    2101        .!      MOVS     r1,#1
        0x0000104c:    6101        .a      STR      r1,[r0,#0x10]
        0x0000104e:    9c02        ..      LDR      r4,[sp,#8]
        0x00001050:    9901        ..      LDR      r1,[sp,#4]
        0x00001052:    400c        .@      ANDS     r4,r4,r1
        0x00001054:    f3bf8f6f    ..o.    ISB      
        0x00001058:    6901        .i      LDR      r1,[r0,#0x10]
        0x0000105a:    2900        .)      CMP      r1,#0
        0x0000105c:    d1fc        ..      BNE      0x1058 ; SIM_EEPROM_WRITE + 160
        0x0000105e:    9903        ..      LDR      r1,[sp,#0xc]
        0x00001060:    430c        .C      ORRS     r4,r4,r1
        0x00001062:    6801        .h      LDR      r1,[r0,#0]
        0x00001064:    0649        I.      LSLS     r1,r1,#25
        0x00001066:    9b04        ..      LDR      r3,[sp,#0x10]
        0x00001068:    d503        ..      BPL      0x1072 ; SIM_EEPROM_WRITE + 186
        0x0000106a:    6801        .h      LDR      r1,[r0,#0]
        0x0000106c:    2240        @"      MOVS     r2,#0x40
        0x0000106e:    430a        .C      ORRS     r2,r2,r1
        0x00001070:    6002        .`      STR      r2,[r0,#0]
        0x00001072:    207f        .       MOVS     r0,#0x7f
        0x00001074:    0080        ..      LSLS     r0,r0,#2
        0x00001076:    4003        .@      ANDS     r3,r3,r0
        0x00001078:    ae05        ..      ADD      r6,sp,#0x14
        0x0000107a:    50f4        .P      STR      r4,[r6,r3]
        0x0000107c:    42af        .B      CMP      r7,r5
        0x0000107e:    d2bc        ..      BCS      0xffa ; SIM_EEPROM_WRITE + 66
        0x00001080:    ce02        ..      LDM      r6!,{r1}
        0x00001082:    4638        8F      MOV      r0,r7
        0x00001084:    f7fffc4e    ..N.    BL       FMC_Write ; 0x924
        0x00001088:    1d3f        ?.      ADDS     r7,r7,#4
        0x0000108a:    e7f7        ..      B        0x107c ; SIM_EEPROM_WRITE + 196
    $d.4
    __arm_cp.2_0
        0x0000108c:    fffffe00    ....    DCD    4294966784
    __arm_cp.2_1
        0x00001090:    5000c000    ...P    DCD    1342226432
    $t.6
    SPI_Command
        0x00001094:    490c        .I      LDR      r1,[pc,#48] ; [0x10c8] = 0x40030000
        0x00001096:    2201        ."      MOVS     r2,#1
        0x00001098:    608a        .`      STR      r2,[r1,#8]
        0x0000109a:    6208        .b      STR      r0,[r1,#0x20]
        0x0000109c:    6808        .h      LDR      r0,[r1,#0]
        0x0000109e:    4310        .C      ORRS     r0,r0,r2
        0x000010a0:    6008        .`      STR      r0,[r1,#0]
        0x000010a2:    6808        .h      LDR      r0,[r1,#0]
        0x000010a4:    07c0        ..      LSLS     r0,r0,#31
        0x000010a6:    d1fc        ..      BNE      0x10a2 ; SPI_Command + 14
        0x000010a8:    4770        pG      BX       lr
        0x000010aa:    46c0        .F      MOV      r8,r8
    SPI_Readbyte
        0x000010ac:    4806        .H      LDR      r0,[pc,#24] ; [0x10c8] = 0x40030000
        0x000010ae:    2101        .!      MOVS     r1,#1
        0x000010b0:    6081        .`      STR      r1,[r0,#8]
        0x000010b2:    2200        ."      MOVS     r2,#0
        0x000010b4:    6202        .b      STR      r2,[r0,#0x20]
        0x000010b6:    6802        .h      LDR      r2,[r0,#0]
        0x000010b8:    430a        .C      ORRS     r2,r2,r1
        0x000010ba:    6002        .`      STR      r2,[r0,#0]
        0x000010bc:    6801        .h      LDR      r1,[r0,#0]
        0x000010be:    07c9        ..      LSLS     r1,r1,#31
        0x000010c0:    d1fc        ..      BNE      0x10bc ; SPI_Readbyte + 16
        0x000010c2:    6900        .i      LDR      r0,[r0,#0x10]
        0x000010c4:    b2c0        ..      UXTB     r0,r0
        0x000010c6:    4770        pG      BX       lr
    $d.9
    __arm_cp.4_0
        0x000010c8:    40030000    ...@    DCD    1073938432
    $t.46
    SX1276GetTimeOnAir
        0x000010cc:    b5f8        ..      PUSH     {r3-r7,lr}
        0x000010ce:    4b2d        -K      LDR      r3,[pc,#180] ; [0x1184] = 0x20000034
        0x000010d0:    7b18        .{      LDRB     r0,[r3,#0xc]
        0x000010d2:    7f1a        ..      LDRB     r2,[r3,#0x1c]
        0x000010d4:    7f5e        ^.      LDRB     r6,[r3,#0x1d]
        0x000010d6:    7ad9        .z      LDRB     r1,[r3,#0xb]
        0x000010d8:    9100        ..      STR      r1,[sp,#0]
        0x000010da:    7a59        Yz      LDRB     r1,[r3,#9]
        0x000010dc:    7a9d        .z      LDRB     r5,[r3,#0xa]
        0x000010de:    2900        .)      CMP      r1,#0
        0x000010e0:    d103        ..      BNE      0x10ea ; SX1276GetTimeOnAir + 30
        0x000010e2:    462b        +F      MOV      r3,r5
        0x000010e4:    3b0b        .;      SUBS     r3,r3,#0xb
        0x000010e6:    2b02        .+      CMP      r3,#2
        0x000010e8:    d304        ..      BCC      0x10f4 ; SX1276GetTimeOnAir + 40
        0x000010ea:    2300        .#      MOVS     r3,#0
        0x000010ec:    2901        .)      CMP      r1,#1
        0x000010ee:    d102        ..      BNE      0x10f6 ; SX1276GetTimeOnAir + 42
        0x000010f0:    2d0c        .-      CMP      r5,#0xc
        0x000010f2:    d100        ..      BNE      0x10f6 ; SX1276GetTimeOnAir + 42
        0x000010f4:    2301        .#      MOVS     r3,#1
        0x000010f6:    1fc9        ..      SUBS     r1,r1,#7
        0x000010f8:    b2c9        ..      UXTB     r1,r1
        0x000010fa:    2902        .)      CMP      r1,#2
        0x000010fc:    d803        ..      BHI      0x1106 ; SX1276GetTimeOnAir + 58
        0x000010fe:    0089        ..      LSLS     r1,r1,#2
        0x00001100:    a421        !.      ADR      r4,{pc}+0x88 ; 0x1188
        0x00001102:    5864        dX      LDR      r4,[r4,r1]
        0x00001104:    e000        ..      B        0x1108 ; SX1276GetTimeOnAir + 60
        0x00001106:    2400        .$      MOVS     r4,#0
        0x00001108:    2d07        .-      CMP      r5,#7
        0x0000110a:    d301        ..      BCC      0x1110 ; SX1276GetTimeOnAir + 68
        0x0000110c:    271c        .'      MOVS     r7,#0x1c
        0x0000110e:    e000        ..      B        0x1112 ; SX1276GetTimeOnAir + 70
        0x00001110:    2714        .'      MOVS     r7,#0x14
        0x00001112:    00a9        ..      LSLS     r1,r5,#2
        0x00001114:    1a7f        ..      SUBS     r7,r7,r1
        0x00001116:    00d2        ..      LSLS     r2,r2,#3
        0x00001118:    18ba        ..      ADDS     r2,r7,r2
        0x0000111a:    2800        .(      CMP      r0,#0
        0x0000111c:    d000        ..      BEQ      0x1120 ; SX1276GetTimeOnAir + 84
        0x0000111e:    3210        .2      ADDS     r2,r2,#0x10
        0x00001120:    17d0        ..      ASRS     r0,r2,#31
        0x00001122:    2b00        .+      CMP      r3,#0
        0x00001124:    d101        ..      BNE      0x112a ; SX1276GetTimeOnAir + 94
        0x00001126:    460b        .F      MOV      r3,r1
        0x00001128:    e001        ..      B        0x112e ; SX1276GetTimeOnAir + 98
        0x0000112a:    460b        .F      MOV      r3,r1
        0x0000112c:    3b08        .;      SUBS     r3,r3,#8
        0x0000112e:    4382        .C      BICS     r2,r2,r0
        0x00001130:    2d07        .-      CMP      r5,#7
        0x00001132:    d300        ..      BCC      0x1136 ; SX1276GetTimeOnAir + 106
        0x00001134:    4619        .F      MOV      r1,r3
        0x00001136:    1850        P.      ADDS     r0,r2,r1
        0x00001138:    1e40        @.      SUBS     r0,r0,#1
        0x0000113a:    b200        ..      SXTH     r0,r0
        0x0000113c:    f7fff946    ..F.    BL       __aeabi_idiv ; 0x3cc
        0x00001140:    220c        ."      MOVS     r2,#0xc
        0x00001142:    2d07        .-      CMP      r5,#7
        0x00001144:    d301        ..      BCC      0x114a ; SX1276GetTimeOnAir + 126
        0x00001146:    4611        .F      MOV      r1,r2
        0x00001148:    e000        ..      B        0x114c ; SX1276GetTimeOnAir + 128
        0x0000114a:    210e        .!      MOVS     r1,#0xe
        0x0000114c:    b200        ..      SXTH     r0,r0
        0x0000114e:    9b00        ..      LDR      r3,[sp,#0]
        0x00001150:    1d1f        ..      ADDS     r7,r3,#4
        0x00001152:    2e0c        ..      CMP      r6,#0xc
        0x00001154:    4633        3F      MOV      r3,r6
        0x00001156:    d800        ..      BHI      0x115a ; SX1276GetTimeOnAir + 142
        0x00001158:    4613        .F      MOV      r3,r2
        0x0000115a:    4378        xC      MULS     r0,r7,r0
        0x0000115c:    1f6a        j.      SUBS     r2,r5,#5
        0x0000115e:    2a02        .*      CMP      r2,#2
        0x00001160:    d300        ..      BCC      0x1164 ; SX1276GetTimeOnAir + 152
        0x00001162:    4633        3F      MOV      r3,r6
        0x00001164:    18c9        ..      ADDS     r1,r1,r3
        0x00001166:    1808        ..      ADDS     r0,r1,r0
        0x00001168:    0080        ..      LSLS     r0,r0,#2
        0x0000116a:    1c40        @.      ADDS     r0,r0,#1
        0x0000116c:    1ea9        ..      SUBS     r1,r5,#2
        0x0000116e:    4088        .@      LSLS     r0,r0,r1
        0x00001170:    217d        }!      MOVS     r1,#0x7d
        0x00001172:    00c9        ..      LSLS     r1,r1,#3
        0x00001174:    4341        AC      MULS     r1,r0,r1
        0x00001176:    1860        `.      ADDS     r0,r4,r1
        0x00001178:    1e40        @.      SUBS     r0,r0,#1
        0x0000117a:    4621        !F      MOV      r1,r4
        0x0000117c:    f7fff906    ....    BL       __aeabi_uidiv ; 0x38c
        0x00001180:    bdf8        ..      POP      {r3-r7,pc}
        0x00001182:    46c0        .F      MOV      r8,r8
    $d.47
    __arm_cp.22_0
        0x00001184:    20000034    4..     DCD    536870964
        0x00001188:    0001e848    H...    DCD    125000
        0x0000118c:    0003d090    ....    DCD    250000
        0x00001190:    0007a120     ...    DCD    500000
    $t.20
    SX1276LoRaGetErrorCoding
        0x00001194:    b510        ..      PUSH     {r4,lr}
        0x00001196:    4c98        .L      LDR      r4,[pc,#608] ; [0x13f8] = 0x20000150
        0x00001198:    6821        !h      LDR      r1,[r4,#0]
        0x0000119a:    311d        .1      ADDS     r1,r1,#0x1d
        0x0000119c:    201d        .       MOVS     r0,#0x1d
        0x0000119e:    f000f92f    ../.    BL       SX1276Read ; 0x1400
        0x000011a2:    6820         h      LDR      r0,[r4,#0]
        0x000011a4:    7f40        @.      LDRB     r0,[r0,#0x1d]
        0x000011a6:    0700        ..      LSLS     r0,r0,#28
        0x000011a8:    0f40        @.      LSRS     r0,r0,#29
        0x000011aa:    4994        .I      LDR      r1,[pc,#592] ; [0x13fc] = 0x20000038
        0x000011ac:    71c8        .q      STRB     r0,[r1,#7]
        0x000011ae:    bd10        ..      POP      {r4,pc}
    SX1276LoRaGetRFFrequency
        0x000011b0:    b510        ..      PUSH     {r4,lr}
        0x000011b2:    4c91        .L      LDR      r4,[pc,#580] ; [0x13f8] = 0x20000150
        0x000011b4:    6820         h      LDR      r0,[r4,#0]
        0x000011b6:    1d81        ..      ADDS     r1,r0,#6
        0x000011b8:    2006        .       MOVS     r0,#6
        0x000011ba:    2203        ."      MOVS     r2,#3
        0x000011bc:    f000f926    ..&.    BL       SX1276ReadBuffer ; 0x140c
        0x000011c0:    6820         h      LDR      r0,[r4,#0]
        0x000011c2:    7981        .y      LDRB     r1,[r0,#6]
        0x000011c4:    0409        ..      LSLS     r1,r1,#16
        0x000011c6:    79c2        .y      LDRB     r2,[r0,#7]
        0x000011c8:    0212        ..      LSLS     r2,r2,#8
        0x000011ca:    1851        Q.      ADDS     r1,r2,r1
        0x000011cc:    7a00        .z      LDRB     r0,[r0,#8]
        0x000011ce:    1808        ..      ADDS     r0,r1,r0
        0x000011d0:    f7fff8aa    ....    BL       __aeabi_i2d ; 0x328
        0x000011d4:    2200        ."      MOVS     r2,#0
        0x000011d6:    4b48        HK      LDR      r3,[pc,#288] ; [0x12f8] = 0x404e8480
        0x000011d8:    f7feffc6    ....    BL       __aeabi_dmul ; 0x168
        0x000011dc:    f7fff8b8    ....    BL       __aeabi_d2uiz ; 0x350
        0x000011e0:    4986        .I      LDR      r1,[pc,#536] ; [0x13fc] = 0x20000038
        0x000011e2:    6008        .`      STR      r0,[r1,#0]
        0x000011e4:    bd10        ..      POP      {r4,pc}
        0x000011e6:    46c0        .F      MOV      r8,r8
    SX1276LoRaGetRFPower
        0x000011e8:    b570        p.      PUSH     {r4-r6,lr}
        0x000011ea:    4e83        .N      LDR      r6,[pc,#524] ; [0x13f8] = 0x20000150
        0x000011ec:    6831        1h      LDR      r1,[r6,#0]
        0x000011ee:    3109        .1      ADDS     r1,r1,#9
        0x000011f0:    2509        .%      MOVS     r5,#9
        0x000011f2:    4628        (F      MOV      r0,r5
        0x000011f4:    f000f904    ....    BL       SX1276Read ; 0x1400
        0x000011f8:    6831        1h      LDR      r1,[r6,#0]
        0x000011fa:    314d        M1      ADDS     r1,r1,#0x4d
        0x000011fc:    244d        M$      MOVS     r4,#0x4d
        0x000011fe:    4620         F      MOV      r0,r4
        0x00001200:    f000f8fe    ....    BL       SX1276Read ; 0x1400
        0x00001204:    6831        1h      LDR      r1,[r6,#0]
        0x00001206:    5748        HW      LDRSB    r0,[r1,r5]
        0x00001208:    2800        .(      CMP      r0,#0
        0x0000120a:    d403        ..      BMI      0x1214 ; SX1276LoRaGetRFPower + 44
        0x0000120c:    210f        .!      MOVS     r1,#0xf
        0x0000120e:    4008        .@      ANDS     r0,r0,r1
        0x00001210:    1e40        @.      SUBS     r0,r0,#1
        0x00001212:    e009        ..      B        0x1228 ; SX1276LoRaGetRFPower + 64
        0x00001214:    220f        ."      MOVS     r2,#0xf
        0x00001216:    4010        .@      ANDS     r0,r0,r2
        0x00001218:    5d09        .]      LDRB     r1,[r1,r4]
        0x0000121a:    2207        ."      MOVS     r2,#7
        0x0000121c:    400a        .@      ANDS     r2,r2,r1
        0x0000121e:    2a07        .*      CMP      r2,#7
        0x00001220:    d101        ..      BNE      0x1226 ; SX1276LoRaGetRFPower + 62
        0x00001222:    1d40        @.      ADDS     r0,r0,#5
        0x00001224:    e000        ..      B        0x1228 ; SX1276LoRaGetRFPower + 64
        0x00001226:    1c80        ..      ADDS     r0,r0,#2
        0x00001228:    4974        tI      LDR      r1,[pc,#464] ; [0x13fc] = 0x20000038
        0x0000122a:    7108        .q      STRB     r0,[r1,#4]
        0x0000122c:    b2c0        ..      UXTB     r0,r0
        0x0000122e:    bd70        p.      POP      {r4-r6,pc}
    SX1276LoRaGetRxPacketTimeout
        0x00001230:    4872        rH      LDR      r0,[pc,#456] ; [0x13fc] = 0x20000038
        0x00001232:    6940        @i      LDR      r0,[r0,#0x14]
        0x00001234:    4770        pG      BX       lr
        0x00001236:    46c0        .F      MOV      r8,r8
    SX1276LoRaGetSignalBandwidth
        0x00001238:    b510        ..      PUSH     {r4,lr}
        0x0000123a:    4c6f        oL      LDR      r4,[pc,#444] ; [0x13f8] = 0x20000150
        0x0000123c:    6821        !h      LDR      r1,[r4,#0]
        0x0000123e:    311d        .1      ADDS     r1,r1,#0x1d
        0x00001240:    201d        .       MOVS     r0,#0x1d
        0x00001242:    f000f8dd    ....    BL       SX1276Read ; 0x1400
        0x00001246:    6820         h      LDR      r0,[r4,#0]
        0x00001248:    7f40        @.      LDRB     r0,[r0,#0x1d]
        0x0000124a:    0900        ..      LSRS     r0,r0,#4
        0x0000124c:    496b        kI      LDR      r1,[pc,#428] ; [0x13fc] = 0x20000038
        0x0000124e:    7148        Hq      STRB     r0,[r1,#5]
        0x00001250:    bd10        ..      POP      {r4,pc}
        0x00001252:    46c0        .F      MOV      r8,r8
    SX1276LoRaGetSpreadingFactor
        0x00001254:    b510        ..      PUSH     {r4,lr}
        0x00001256:    4c68        hL      LDR      r4,[pc,#416] ; [0x13f8] = 0x20000150
        0x00001258:    6821        !h      LDR      r1,[r4,#0]
        0x0000125a:    311e        .1      ADDS     r1,r1,#0x1e
        0x0000125c:    201e        .       MOVS     r0,#0x1e
        0x0000125e:    f000f8cf    ....    BL       SX1276Read ; 0x1400
        0x00001262:    6820         h      LDR      r0,[r4,#0]
        0x00001264:    7f80        ..      LDRB     r0,[r0,#0x1e]
        0x00001266:    0900        ..      LSRS     r0,r0,#4
        0x00001268:    4964        dI      LDR      r1,[pc,#400] ; [0x13fc] = 0x20000038
        0x0000126a:    7188        .q      STRB     r0,[r1,#6]
        0x0000126c:    bd10        ..      POP      {r4,pc}
        0x0000126e:    46c0        .F      MOV      r8,r8
    SX1276LoRaSetErrorCoding
        0x00001270:    b570        p.      PUSH     {r4-r6,lr}
        0x00001272:    4604        .F      MOV      r4,r0
        0x00001274:    4e60        `N      LDR      r6,[pc,#384] ; [0x13f8] = 0x20000150
        0x00001276:    6831        1h      LDR      r1,[r6,#0]
        0x00001278:    311d        .1      ADDS     r1,r1,#0x1d
        0x0000127a:    251d        .%      MOVS     r5,#0x1d
        0x0000127c:    4628        (F      MOV      r0,r5
        0x0000127e:    f000f8bf    ....    BL       SX1276Read ; 0x1400
        0x00001282:    6830        0h      LDR      r0,[r6,#0]
        0x00001284:    7f41        A.      LDRB     r1,[r0,#0x1d]
        0x00001286:    220e        ."      MOVS     r2,#0xe
        0x00001288:    4391        .C      BICS     r1,r1,r2
        0x0000128a:    0062        b.      LSLS     r2,r4,#1
        0x0000128c:    430a        .C      ORRS     r2,r2,r1
        0x0000128e:    7742        Bw      STRB     r2,[r0,#0x1d]
        0x00001290:    b2d1        ..      UXTB     r1,r2
        0x00001292:    4628        (F      MOV      r0,r5
        0x00001294:    f000f8d0    ....    BL       SX1276Write ; 0x1438
        0x00001298:    4858        XH      LDR      r0,[pc,#352] ; [0x13fc] = 0x20000038
        0x0000129a:    71c4        .q      STRB     r4,[r0,#7]
        0x0000129c:    bd70        p.      POP      {r4-r6,pc}
        0x0000129e:    46c0        .F      MOV      r8,r8
    SX1276LoRaSetNbTrigPeaks
        0x000012a0:    b570        p.      PUSH     {r4-r6,lr}
        0x000012a2:    4604        .F      MOV      r4,r0
        0x000012a4:    4e54        TN      LDR      r6,[pc,#336] ; [0x13f8] = 0x20000150
        0x000012a6:    6831        1h      LDR      r1,[r6,#0]
        0x000012a8:    3131        11      ADDS     r1,r1,#0x31
        0x000012aa:    2531        1%      MOVS     r5,#0x31
        0x000012ac:    4628        (F      MOV      r0,r5
        0x000012ae:    f000f8a7    ....    BL       SX1276Read ; 0x1400
        0x000012b2:    6830        0h      LDR      r0,[r6,#0]
        0x000012b4:    5d41        A]      LDRB     r1,[r0,r5]
        0x000012b6:    2207        ."      MOVS     r2,#7
        0x000012b8:    4391        .C      BICS     r1,r1,r2
        0x000012ba:    4321        !C      ORRS     r1,r1,r4
        0x000012bc:    5541        AU      STRB     r1,[r0,r5]
        0x000012be:    b2c9        ..      UXTB     r1,r1
        0x000012c0:    4628        (F      MOV      r0,r5
        0x000012c2:    f000f8b9    ....    BL       SX1276Write ; 0x1438
        0x000012c6:    bd70        p.      POP      {r4-r6,pc}
    SX1276LoRaSetRFFrequency
        0x000012c8:    b580        ..      PUSH     {r7,lr}
        0x000012ca:    494c        LI      LDR      r1,[pc,#304] ; [0x13fc] = 0x20000038
        0x000012cc:    6008        .`      STR      r0,[r1,#0]
        0x000012ce:    f7fff82b    ..+.    BL       __aeabi_i2d ; 0x328
        0x000012d2:    2200        ."      MOVS     r2,#0
        0x000012d4:    4b08        .K      LDR      r3,[pc,#32] ; [0x12f8] = 0x404e8480
        0x000012d6:    f7feffaf    ....    BL       __aeabi_ddiv ; 0x238
        0x000012da:    f7fff839    ..9.    BL       __aeabi_d2uiz ; 0x350
        0x000012de:    4946        FI      LDR      r1,[pc,#280] ; [0x13f8] = 0x20000150
        0x000012e0:    6809        .h      LDR      r1,[r1,#0]
        0x000012e2:    7208        .r      STRB     r0,[r1,#8]
        0x000012e4:    0a02        ..      LSRS     r2,r0,#8
        0x000012e6:    71ca        .q      STRB     r2,[r1,#7]
        0x000012e8:    0c00        ..      LSRS     r0,r0,#16
        0x000012ea:    7188        .q      STRB     r0,[r1,#6]
        0x000012ec:    1d89        ..      ADDS     r1,r1,#6
        0x000012ee:    2006        .       MOVS     r0,#6
        0x000012f0:    2203        ."      MOVS     r2,#3
        0x000012f2:    f000f8a9    ....    BL       SX1276WriteBuffer ; 0x1448
        0x000012f6:    bd80        ..      POP      {r7,pc}
    $d.1
    __arm_cp.0_1
        0x000012f8:    404e8480    ..N@    DCD    1078887552
    $t.4
    SX1276LoRaSetRFPower
        0x000012fc:    b5f8        ..      PUSH     {r3-r7,lr}
        0x000012fe:    4604        .F      MOV      r4,r0
        0x00001300:    4f3d        =O      LDR      r7,[pc,#244] ; [0x13f8] = 0x20000150
        0x00001302:    6839        9h      LDR      r1,[r7,#0]
        0x00001304:    3109        .1      ADDS     r1,r1,#9
        0x00001306:    2609        .&      MOVS     r6,#9
        0x00001308:    4630        0F      MOV      r0,r6
        0x0000130a:    f000f879    ..y.    BL       SX1276Read ; 0x1400
        0x0000130e:    6839        9h      LDR      r1,[r7,#0]
        0x00001310:    314d        M1      ADDS     r1,r1,#0x4d
        0x00001312:    254d        M%      MOVS     r5,#0x4d
        0x00001314:    4628        (F      MOV      r0,r5
        0x00001316:    f000f873    ..s.    BL       SX1276Read ; 0x1400
        0x0000131a:    6838        8h      LDR      r0,[r7,#0]
        0x0000131c:    5781        .W      LDRSB    r1,[r0,r6]
        0x0000131e:    2900        .)      CMP      r1,#0
        0x00001320:    d408        ..      BMI      0x1334 ; SX1276LoRaSetRFPower + 56
        0x00001322:    17e2        ..      ASRS     r2,r4,#31
        0x00001324:    4322        "C      ORRS     r2,r2,r4
        0x00001326:    2a0e        .*      CMP      r2,#0xe
        0x00001328:    db00        ..      BLT      0x132c ; SX1276LoRaSetRFPower + 48
        0x0000132a:    220e        ."      MOVS     r2,#0xe
        0x0000132c:    4611        .F      MOV      r1,r2
        0x0000132e:    3171        q1      ADDS     r1,r1,#0x71
        0x00001330:    4614        .F      MOV      r4,r2
        0x00001332:    e018        ..      B        0x1366 ; SX1276LoRaSetRFPower + 106
        0x00001334:    5d41        A]      LDRB     r1,[r0,r5]
        0x00001336:    2287        ."      MOVS     r2,#0x87
        0x00001338:    400a        .@      ANDS     r2,r2,r1
        0x0000133a:    2a87        .*      CMP      r2,#0x87
        0x0000133c:    d108        ..      BNE      0x1350 ; SX1276LoRaSetRFPower + 84
        0x0000133e:    2c05        .,      CMP      r4,#5
        0x00001340:    dc00        ..      BGT      0x1344 ; SX1276LoRaSetRFPower + 72
        0x00001342:    2405        .$      MOVS     r4,#5
        0x00001344:    2c14        .,      CMP      r4,#0x14
        0x00001346:    d300        ..      BCC      0x134a ; SX1276LoRaSetRFPower + 78
        0x00001348:    2414        .$      MOVS     r4,#0x14
        0x0000134a:    4622        "F      MOV      r2,r4
        0x0000134c:    320b        .2      ADDS     r2,r2,#0xb
        0x0000134e:    e007        ..      B        0x1360 ; SX1276LoRaSetRFPower + 100
        0x00001350:    2c02        .,      CMP      r4,#2
        0x00001352:    dc00        ..      BGT      0x1356 ; SX1276LoRaSetRFPower + 90
        0x00001354:    2402        .$      MOVS     r4,#2
        0x00001356:    2c11        .,      CMP      r4,#0x11
        0x00001358:    d300        ..      BCC      0x135c ; SX1276LoRaSetRFPower + 96
        0x0000135a:    2411        .$      MOVS     r4,#0x11
        0x0000135c:    4622        "F      MOV      r2,r4
        0x0000135e:    320e        .2      ADDS     r2,r2,#0xe
        0x00001360:    210f        .!      MOVS     r1,#0xf
        0x00001362:    43c9        .C      MVNS     r1,r1
        0x00001364:    4311        .C      ORRS     r1,r1,r2
        0x00001366:    7241        Ar      STRB     r1,[r0,#9]
        0x00001368:    b2c9        ..      UXTB     r1,r1
        0x0000136a:    2009        .       MOVS     r0,#9
        0x0000136c:    f000f864    ..d.    BL       SX1276Write ; 0x1438
        0x00001370:    4822        "H      LDR      r0,[pc,#136] ; [0x13fc] = 0x20000038
        0x00001372:    7104        .q      STRB     r4,[r0,#4]
        0x00001374:    bdf8        ..      POP      {r3-r7,pc}
        0x00001376:    46c0        .F      MOV      r8,r8
    SX1276LoRaSetRxPacketTimeout
        0x00001378:    4920         I      LDR      r1,[pc,#128] ; [0x13fc] = 0x20000038
        0x0000137a:    6148        Ha      STR      r0,[r1,#0x14]
        0x0000137c:    4770        pG      BX       lr
        0x0000137e:    46c0        .F      MOV      r8,r8
    SX1276LoRaSetSignalBandwidth
        0x00001380:    b570        p.      PUSH     {r4-r6,lr}
        0x00001382:    4604        .F      MOV      r4,r0
        0x00001384:    4e1c        .N      LDR      r6,[pc,#112] ; [0x13f8] = 0x20000150
        0x00001386:    6831        1h      LDR      r1,[r6,#0]
        0x00001388:    311d        .1      ADDS     r1,r1,#0x1d
        0x0000138a:    251d        .%      MOVS     r5,#0x1d
        0x0000138c:    4628        (F      MOV      r0,r5
        0x0000138e:    f000f837    ..7.    BL       SX1276Read ; 0x1400
        0x00001392:    6830        0h      LDR      r0,[r6,#0]
        0x00001394:    7f41        A.      LDRB     r1,[r0,#0x1d]
        0x00001396:    220f        ."      MOVS     r2,#0xf
        0x00001398:    400a        .@      ANDS     r2,r2,r1
        0x0000139a:    0121        !.      LSLS     r1,r4,#4
        0x0000139c:    1851        Q.      ADDS     r1,r2,r1
        0x0000139e:    7741        Aw      STRB     r1,[r0,#0x1d]
        0x000013a0:    b2c9        ..      UXTB     r1,r1
        0x000013a2:    4628        (F      MOV      r0,r5
        0x000013a4:    f000f848    ..H.    BL       SX1276Write ; 0x1438
        0x000013a8:    4814        .H      LDR      r0,[pc,#80] ; [0x13fc] = 0x20000038
        0x000013aa:    7144        Dq      STRB     r4,[r0,#5]
        0x000013ac:    bd70        p.      POP      {r4-r6,pc}
        0x000013ae:    46c0        .F      MOV      r8,r8
    SX1276LoRaSetSpreadingFactor
        0x000013b0:    b570        p.      PUSH     {r4-r6,lr}
        0x000013b2:    4604        .F      MOV      r4,r0
        0x000013b4:    2807        .(      CMP      r0,#7
        0x000013b6:    d301        ..      BCC      0x13bc ; SX1276LoRaSetSpreadingFactor + 12
        0x000013b8:    2003        .       MOVS     r0,#3
        0x000013ba:    e000        ..      B        0x13be ; SX1276LoRaSetSpreadingFactor + 14
        0x000013bc:    2005        .       MOVS     r0,#5
        0x000013be:    f7ffff6f    ..o.    BL       SX1276LoRaSetNbTrigPeaks ; 0x12a0
        0x000013c2:    4e0d        .N      LDR      r6,[pc,#52] ; [0x13f8] = 0x20000150
        0x000013c4:    6831        1h      LDR      r1,[r6,#0]
        0x000013c6:    311e        .1      ADDS     r1,r1,#0x1e
        0x000013c8:    251e        .%      MOVS     r5,#0x1e
        0x000013ca:    4628        (F      MOV      r0,r5
        0x000013cc:    f000f818    ....    BL       SX1276Read ; 0x1400
        0x000013d0:    6830        0h      LDR      r0,[r6,#0]
        0x000013d2:    7f81        ..      LDRB     r1,[r0,#0x1e]
        0x000013d4:    220f        ."      MOVS     r2,#0xf
        0x000013d6:    2c06        .,      CMP      r4,#6
        0x000013d8:    d800        ..      BHI      0x13dc ; SX1276LoRaSetSpreadingFactor + 44
        0x000013da:    2406        .$      MOVS     r4,#6
        0x000013dc:    4011        .@      ANDS     r1,r1,r2
        0x000013de:    2c0c        .,      CMP      r4,#0xc
        0x000013e0:    d300        ..      BCC      0x13e4 ; SX1276LoRaSetSpreadingFactor + 52
        0x000013e2:    240c        .$      MOVS     r4,#0xc
        0x000013e4:    0122        ".      LSLS     r2,r4,#4
        0x000013e6:    1889        ..      ADDS     r1,r1,r2
        0x000013e8:    7781        .w      STRB     r1,[r0,#0x1e]
        0x000013ea:    4628        (F      MOV      r0,r5
        0x000013ec:    f000f824    ..$.    BL       SX1276Write ; 0x1438
        0x000013f0:    4802        .H      LDR      r0,[pc,#8] ; [0x13fc] = 0x20000038
        0x000013f2:    7184        .q      STRB     r4,[r0,#6]
        0x000013f4:    bd70        p.      POP      {r4-r6,pc}
        0x000013f6:    46c0        .F      MOV      r8,r8
    $d.13
    __arm_cp.6_0
        0x000013f8:    20000150    P..     DCD    536871248
    __arm_cp.6_1
        0x000013fc:    20000038    8..     DCD    536870968
    $t.15
    SX1276Read
        0x00001400:    b580        ..      PUSH     {r7,lr}
        0x00001402:    2201        ."      MOVS     r2,#1
        0x00001404:    f000f802    ....    BL       SX1276ReadBuffer ; 0x140c
        0x00001408:    bd80        ..      POP      {r7,pc}
        0x0000140a:    0000        ..      MOVS     r0,r0
    SX1276ReadBuffer
        0x0000140c:    b570        p.      PUSH     {r4-r6,lr}
        0x0000140e:    4614        .F      MOV      r4,r2
        0x00001410:    460d        .F      MOV      r5,r1
        0x00001412:    4e18        .N      LDR      r6,[pc,#96] ; [0x1474] = 0x40030008
        0x00001414:    2101        .!      MOVS     r1,#1
        0x00001416:    6031        1`      STR      r1,[r6,#0]
        0x00001418:    217f        .!      MOVS     r1,#0x7f
        0x0000141a:    4008        .@      ANDS     r0,r0,r1
        0x0000141c:    f7fffe3a    ..:.    BL       SPI_Command ; 0x1094
        0x00001420:    2c00        .,      CMP      r4,#0
        0x00001422:    d005        ..      BEQ      0x1430 ; SX1276ReadBuffer + 36
        0x00001424:    f7fffe42    ..B.    BL       SPI_Readbyte ; 0x10ac
        0x00001428:    7028        (p      STRB     r0,[r5,#0]
        0x0000142a:    1c6d        m.      ADDS     r5,r5,#1
        0x0000142c:    1e64        d.      SUBS     r4,r4,#1
        0x0000142e:    e7f7        ..      B        0x1420 ; SX1276ReadBuffer + 20
        0x00001430:    2000        .       MOVS     r0,#0
        0x00001432:    6030        0`      STR      r0,[r6,#0]
        0x00001434:    bd70        p.      POP      {r4-r6,pc}
        0x00001436:    46c0        .F      MOV      r8,r8
    SX1276Write
        0x00001438:    b5e0        ..      PUSH     {r5-r7,lr}
        0x0000143a:    ab01        ..      ADD      r3,sp,#4
        0x0000143c:    7019        .p      STRB     r1,[r3,#0]
        0x0000143e:    2201        ."      MOVS     r2,#1
        0x00001440:    4619        .F      MOV      r1,r3
        0x00001442:    f000f801    ....    BL       SX1276WriteBuffer ; 0x1448
        0x00001446:    bd8c        ..      POP      {r2,r3,r7,pc}
    SX1276WriteBuffer
        0x00001448:    b570        p.      PUSH     {r4-r6,lr}
        0x0000144a:    4614        .F      MOV      r4,r2
        0x0000144c:    460d        .F      MOV      r5,r1
        0x0000144e:    4e09        .N      LDR      r6,[pc,#36] ; [0x1474] = 0x40030008
        0x00001450:    2101        .!      MOVS     r1,#1
        0x00001452:    6031        1`      STR      r1,[r6,#0]
        0x00001454:    2180        .!      MOVS     r1,#0x80
        0x00001456:    4308        .C      ORRS     r0,r0,r1
        0x00001458:    f7fffe1c    ....    BL       SPI_Command ; 0x1094
        0x0000145c:    2c00        .,      CMP      r4,#0
        0x0000145e:    d005        ..      BEQ      0x146c ; SX1276WriteBuffer + 36
        0x00001460:    7828        (x      LDRB     r0,[r5,#0]
        0x00001462:    f7fffe17    ....    BL       SPI_Command ; 0x1094
        0x00001466:    1c6d        m.      ADDS     r5,r5,#1
        0x00001468:    1e64        d.      SUBS     r4,r4,#1
        0x0000146a:    e7f7        ..      B        0x145c ; SX1276WriteBuffer + 20
        0x0000146c:    2000        .       MOVS     r0,#0
        0x0000146e:    6030        0`      STR      r0,[r6,#0]
        0x00001470:    bd70        p.      POP      {r4-r6,pc}
        0x00001472:    46c0        .F      MOV      r8,r8
    $d.11
    __arm_cp.5_0
        0x00001474:    40030008    ...@    DCD    1073938440
    $t.11
    SYS_ResetCPU
        0x00001478:    480a        .H      LDR      r0,[pc,#40] ; [0x14a4] = 0x50000008
        0x0000147a:    6801        .h      LDR      r1,[r0,#0]
        0x0000147c:    2202        ."      MOVS     r2,#2
        0x0000147e:    430a        .C      ORRS     r2,r2,r1
        0x00001480:    6002        .`      STR      r2,[r0,#0]
        0x00001482:    4770        pG      BX       lr
    SYS_ResetModule
        0x00001484:    b510        ..      PUSH     {r4,lr}
        0x00001486:    0e01        ..      LSRS     r1,r0,#24
        0x00001488:    4a06        .J      LDR      r2,[pc,#24] ; [0x14a4] = 0x50000008
        0x0000148a:    588b        .X      LDR      r3,[r1,r2]
        0x0000148c:    24ff        .$      MOVS     r4,#0xff
        0x0000148e:    0624        $.      LSLS     r4,r4,#24
        0x00001490:    43a0        .C      BICS     r0,r0,r4
        0x00001492:    2401        .$      MOVS     r4,#1
        0x00001494:    4084        .@      LSLS     r4,r4,r0
        0x00001496:    4323        #C      ORRS     r3,r3,r4
        0x00001498:    508b        .P      STR      r3,[r1,r2]
        0x0000149a:    5888        .X      LDR      r0,[r1,r2]
        0x0000149c:    43a0        .C      BICS     r0,r0,r4
        0x0000149e:    5088        .P      STR      r0,[r1,r2]
        0x000014a0:    bd10        ..      POP      {r4,pc}
        0x000014a2:    46c0        .F      MOV      r8,r8
    $d.14
    __arm_cp.7_0
        0x000014a4:    50000008    ...P    DCD    1342177288
    $t.3
    SendBack
        0x000014a8:    b5b0        ..      PUSH     {r4,r5,r7,lr}
        0x000014aa:    b090        ..      SUB      sp,sp,#0x40
        0x000014ac:    4605        .F      MOV      r5,r0
        0x000014ae:    466c        lF      MOV      r4,sp
        0x000014b0:    1da0        ..      ADDS     r0,r4,#6
        0x000014b2:    213a        :!      MOVS     r1,#0x3a
        0x000014b4:    f7fefe4d    ..M.    BL       __aeabi_memclr ; 0x152
        0x000014b8:    7065        ep      STRB     r5,[r4,#1]
        0x000014ba:    2002        .       MOVS     r0,#2
        0x000014bc:    7020         p      STRB     r0,[r4,#0]
        0x000014be:    f7fffe05    ....    BL       SX1276GetTimeOnAir ; 0x10cc
        0x000014c2:    4605        .F      MOV      r5,r0
        0x000014c4:    3014        .0      ADDS     r0,r0,#0x14
        0x000014c6:    f7ffff57    ..W.    BL       SX1276LoRaSetRxPacketTimeout ; 0x1378
        0x000014ca:    7165        eq      STRB     r5,[r4,#5]
        0x000014cc:    0a28        (.      LSRS     r0,r5,#8
        0x000014ce:    7120         q      STRB     r0,[r4,#4]
        0x000014d0:    0c28        (.      LSRS     r0,r5,#16
        0x000014d2:    70e0        .p      STRB     r0,[r4,#3]
        0x000014d4:    0e28        (.      LSRS     r0,r5,#24
        0x000014d6:    70a0        .p      STRB     r0,[r4,#2]
        0x000014d8:    4d2f        /M      LDR      r5,[pc,#188] ; [0x1598] = 0x40060040
        0x000014da:    6828        (h      LDR      r0,[r5,#0]
        0x000014dc:    1940        @.      ADDS     r0,r0,r5
        0x000014de:    30c0        .0      ADDS     r0,r0,#0xc0
        0x000014e0:    4621        !F      MOV      r1,r4
        0x000014e2:    f000fb1e    ....    BL       USBD_MemCopy ; 0x1b22
        0x000014e6:    2040        @       MOVS     r0,#0x40
        0x000014e8:    6068        h`      STR      r0,[r5,#4]
        0x000014ea:    b010        ..      ADD      sp,sp,#0x40
        0x000014ec:    bdb0        ..      POP      {r4,r5,r7,pc}
        0x000014ee:    46c0        .F      MOV      r8,r8
    SendBackDeviceSettingInfo
        0x000014f0:    b5f0        ..      PUSH     {r4-r7,lr}
        0x000014f2:    b093        ..      SUB      sp,sp,#0x4c
        0x000014f4:    a803        ..      ADD      r0,sp,#0xc
        0x000014f6:    2140        @!      MOVS     r1,#0x40
        0x000014f8:    9102        ..      STR      r1,[sp,#8]
        0x000014fa:    f7fefe2a    ..*.    BL       __aeabi_memclr ; 0x152
        0x000014fe:    f7fffe57    ..W.    BL       SX1276LoRaGetRFFrequency ; 0x11b0
        0x00001502:    4604        .F      MOV      r4,r0
        0x00001504:    f7fffe70    ..p.    BL       SX1276LoRaGetRFPower ; 0x11e8
        0x00001508:    9001        ..      STR      r0,[sp,#4]
        0x0000150a:    f7fffe95    ....    BL       SX1276LoRaGetSignalBandwidth ; 0x1238
        0x0000150e:    4606        .F      MOV      r6,r0
        0x00001510:    f7fffea0    ....    BL       SX1276LoRaGetSpreadingFactor ; 0x1254
        0x00001514:    4607        .F      MOV      r7,r0
        0x00001516:    f7fffe3d    ..=.    BL       SX1276LoRaGetErrorCoding ; 0x1194
        0x0000151a:    4605        .F      MOV      r5,r0
        0x0000151c:    f7fffe88    ....    BL       SX1276LoRaGetRxPacketTimeout ; 0x1230
        0x00001520:    4ab2        .J      LDR      r2,[pc,#712] ; [0x17ec] = 0x20000168
        0x00001522:    8c93        ..      LDRH     r3,[r2,#0x24]
        0x00001524:    491a        .I      LDR      r1,[pc,#104] ; [0x1590] = 0x3689cac0
        0x00001526:    428c        .B      CMP      r4,r1
        0x00001528:    d005        ..      BEQ      0x1536 ; SendBackDeviceSettingInfo + 70
        0x0000152a:    491a        .I      LDR      r1,[pc,#104] ; [0x1594] = 0x19cf0e40
        0x0000152c:    428c        .B      CMP      r4,r1
        0x0000152e:    d105        ..      BNE      0x153c ; SendBackDeviceSettingInfo + 76
        0x00001530:    a903        ..      ADD      r1,sp,#0xc
        0x00001532:    2401        .$      MOVS     r4,#1
        0x00001534:    e001        ..      B        0x153a ; SendBackDeviceSettingInfo + 74
        0x00001536:    a903        ..      ADD      r1,sp,#0xc
        0x00001538:    2402        .$      MOVS     r4,#2
        0x0000153a:    700c        .p      STRB     r4,[r1,#0]
        0x0000153c:    a903        ..      ADD      r1,sp,#0xc
        0x0000153e:    710d        .q      STRB     r5,[r1,#4]
        0x00001540:    70cf        .p      STRB     r7,[r1,#3]
        0x00001542:    708e        .p      STRB     r6,[r1,#2]
        0x00001544:    9c01        ..      LDR      r4,[sp,#4]
        0x00001546:    704c        Lp      STRB     r4,[r1,#1]
        0x00001548:    7288        .r      STRB     r0,[r1,#0xa]
        0x0000154a:    7e14        .~      LDRB     r4,[r2,#0x18]
        0x0000154c:    714c        Lq      STRB     r4,[r1,#5]
        0x0000154e:    0a04        ..      LSRS     r4,r0,#8
        0x00001550:    724c        Lr      STRB     r4,[r1,#9]
        0x00001552:    0c04        ..      LSRS     r4,r0,#16
        0x00001554:    720c        .r      STRB     r4,[r1,#8]
        0x00001556:    0e00        ..      LSRS     r0,r0,#24
        0x00001558:    71c8        .q      STRB     r0,[r1,#7]
        0x0000155a:    7e50        P~      LDRB     r0,[r2,#0x19]
        0x0000155c:    7188        .q      STRB     r0,[r1,#6]
        0x0000155e:    3218        .2      ADDS     r2,r2,#0x18
        0x00001560:    7a10        .z      LDRB     r0,[r2,#8]
        0x00001562:    72c8        .r      STRB     r0,[r1,#0xb]
        0x00001564:    7a50        Pz      LDRB     r0,[r2,#9]
        0x00001566:    7308        .s      STRB     r0,[r1,#0xc]
        0x00001568:    7a90        .z      LDRB     r0,[r2,#0xa]
        0x0000156a:    7348        Hs      STRB     r0,[r1,#0xd]
        0x0000156c:    7ad0        .z      LDRB     r0,[r2,#0xb]
        0x0000156e:    740b        .t      STRB     r3,[r1,#0x10]
        0x00001570:    0a1b        ..      LSRS     r3,r3,#8
        0x00001572:    73cb        .s      STRB     r3,[r1,#0xf]
        0x00001574:    7388        .s      STRB     r0,[r1,#0xe]
        0x00001576:    7d90        .}      LDRB     r0,[r2,#0x16]
        0x00001578:    7448        Ht      STRB     r0,[r1,#0x11]
        0x0000157a:    4c07        .L      LDR      r4,[pc,#28] ; [0x1598] = 0x40060040
        0x0000157c:    6820         h      LDR      r0,[r4,#0]
        0x0000157e:    1900        ..      ADDS     r0,r0,r4
        0x00001580:    30c0        .0      ADDS     r0,r0,#0xc0
        0x00001582:    f000face    ....    BL       USBD_MemCopy ; 0x1b22
        0x00001586:    9802        ..      LDR      r0,[sp,#8]
        0x00001588:    6060        ``      STR      r0,[r4,#4]
        0x0000158a:    b013        ..      ADD      sp,sp,#0x4c
        0x0000158c:    bdf0        ..      POP      {r4-r7,pc}
        0x0000158e:    46c0        .F      MOV      r8,r8
    $d.1
    __arm_cp.0_1
        0x00001590:    3689cac0    ...6    DCD    915000000
    __arm_cp.0_2
        0x00001594:    19cf0e40    @...    DCD    433000000
    __arm_cp.0_3
        0x00001598:    40060040    @..@    DCD    1074135104
    $t.4
    SendChar_ToUART
        0x0000159c:    2101        .!      MOVS     r1,#1
        0x0000159e:    05ca        ..      LSLS     r2,r1,#23
        0x000015a0:    4906        .I      LDR      r1,[pc,#24] ; [0x15bc] = 0x40150000
        0x000015a2:    698b        .i      LDR      r3,[r1,#0x18]
        0x000015a4:    4213        .B      TST      r3,r2
        0x000015a6:    d1fc        ..      BNE      0x15a2 ; SendChar_ToUART + 6
        0x000015a8:    280a        .(      CMP      r0,#0xa
        0x000015aa:    d104        ..      BNE      0x15b6 ; SendChar_ToUART + 26
        0x000015ac:    230d        .#      MOVS     r3,#0xd
        0x000015ae:    600b        .`      STR      r3,[r1,#0]
        0x000015b0:    698b        .i      LDR      r3,[r1,#0x18]
        0x000015b2:    4213        .B      TST      r3,r2
        0x000015b4:    d1fc        ..      BNE      0x15b0 ; SendChar_ToUART + 20
        0x000015b6:    6008        .`      STR      r0,[r1,#0]
        0x000015b8:    4770        pG      BX       lr
        0x000015ba:    46c0        .F      MOV      r8,r8
    $d.5
    __arm_cp.2_0
        0x000015bc:    40150000    ...@    DCD    1075118080
    $t.2
    SystemInit
        0x000015c0:    4770        pG      BX       lr
        0x000015c2:    0000        ..      MOVS     r0,r0
    TMR1_IRQHandler
        0x000015c4:    b5b0        ..      PUSH     {r4,r5,r7,lr}
        0x000015c6:    4886        .H      LDR      r0,[pc,#536] ; [0x17e0] = 0x40010028
        0x000015c8:    6801        .h      LDR      r1,[r0,#0]
        0x000015ca:    07c9        ..      LSLS     r1,r1,#31
        0x000015cc:    d100        ..      BNE      0x15d0 ; TMR1_IRQHandler + 12
        0x000015ce:    e0f8        ..      B        0x17c2 ; TMR1_IRQHandler + 510
        0x000015d0:    2101        .!      MOVS     r1,#1
        0x000015d2:    6001        .`      STR      r1,[r0,#0]
        0x000015d4:    4883        .H      LDR      r0,[pc,#524] ; [0x17e4] = 0x200000fc
        0x000015d6:    7803        .x      LDRB     r3,[r0,#0]
        0x000015d8:    4a83        .J      LDR      r2,[pc,#524] ; [0x17e8] = 0x50004218
        0x000015da:    2b01        .+      CMP      r3,#1
        0x000015dc:    d11c        ..      BNE      0x1618 ; TMR1_IRQHandler + 84
        0x000015de:    6813        .h      LDR      r3,[r2,#0]
        0x000015e0:    2b01        .+      CMP      r3,#1
        0x000015e2:    d10a        ..      BNE      0x15fa ; TMR1_IRQHandler + 54
        0x000015e4:    6883        .h      LDR      r3,[r0,#8]
        0x000015e6:    1c5b        [.      ADDS     r3,r3,#1
        0x000015e8:    6083        .`      STR      r3,[r0,#8]
        0x000015ea:    4c80        .L      LDR      r4,[pc,#512] ; [0x17ec] = 0x20000168
        0x000015ec:    69e4        .i      LDR      r4,[r4,#0x1c]
        0x000015ee:    42a3        .B      CMP      r3,r4
        0x000015f0:    d303        ..      BCC      0x15fa ; TMR1_IRQHandler + 54
        0x000015f2:    2300        .#      MOVS     r3,#0
        0x000015f4:    6083        .`      STR      r3,[r0,#8]
        0x000015f6:    4b7e        ~K      LDR      r3,[pc,#504] ; [0x17f0] = 0x20000000
        0x000015f8:    7019        .p      STRB     r1,[r3,#0]
        0x000015fa:    6813        .h      LDR      r3,[r2,#0]
        0x000015fc:    2b00        .+      CMP      r3,#0
        0x000015fe:    d10b        ..      BNE      0x1618 ; TMR1_IRQHandler + 84
        0x00001600:    68c3        .h      LDR      r3,[r0,#0xc]
        0x00001602:    1c5b        [.      ADDS     r3,r3,#1
        0x00001604:    60c3        .`      STR      r3,[r0,#0xc]
        0x00001606:    4c79        yL      LDR      r4,[pc,#484] ; [0x17ec] = 0x20000168
        0x00001608:    69e4        .i      LDR      r4,[r4,#0x1c]
        0x0000160a:    42a3        .B      CMP      r3,r4
        0x0000160c:    d304        ..      BCC      0x1618 ; TMR1_IRQHandler + 84
        0x0000160e:    2300        .#      MOVS     r3,#0
        0x00001610:    60c3        .`      STR      r3,[r0,#0xc]
        0x00001612:    4b77        wK      LDR      r3,[pc,#476] ; [0x17f0] = 0x20000000
        0x00001614:    2402        .$      MOVS     r4,#2
        0x00001616:    701c        .p      STRB     r4,[r3,#0]
        0x00001618:    7844        Dx      LDRB     r4,[r0,#1]
        0x0000161a:    4b76        vK      LDR      r3,[pc,#472] ; [0x17f4] = 0x50004298
        0x0000161c:    2c01        .,      CMP      r4,#1
        0x0000161e:    d11c        ..      BNE      0x165a ; TMR1_IRQHandler + 150
        0x00001620:    685c        \h      LDR      r4,[r3,#4]
        0x00001622:    2c01        .,      CMP      r4,#1
        0x00001624:    d10a        ..      BNE      0x163c ; TMR1_IRQHandler + 120
        0x00001626:    6904        .i      LDR      r4,[r0,#0x10]
        0x00001628:    1c64        d.      ADDS     r4,r4,#1
        0x0000162a:    6104        .a      STR      r4,[r0,#0x10]
        0x0000162c:    4d6f        oM      LDR      r5,[pc,#444] ; [0x17ec] = 0x20000168
        0x0000162e:    69ed        .i      LDR      r5,[r5,#0x1c]
        0x00001630:    42ac        .B      CMP      r4,r5
        0x00001632:    d303        ..      BCC      0x163c ; TMR1_IRQHandler + 120
        0x00001634:    2400        .$      MOVS     r4,#0
        0x00001636:    6104        .a      STR      r4,[r0,#0x10]
        0x00001638:    4c6d        mL      LDR      r4,[pc,#436] ; [0x17f0] = 0x20000000
        0x0000163a:    7061        ap      STRB     r1,[r4,#1]
        0x0000163c:    685c        \h      LDR      r4,[r3,#4]
        0x0000163e:    2c00        .,      CMP      r4,#0
        0x00001640:    d10b        ..      BNE      0x165a ; TMR1_IRQHandler + 150
        0x00001642:    6944        Di      LDR      r4,[r0,#0x14]
        0x00001644:    1c64        d.      ADDS     r4,r4,#1
        0x00001646:    6144        Da      STR      r4,[r0,#0x14]
        0x00001648:    4d68        hM      LDR      r5,[pc,#416] ; [0x17ec] = 0x20000168
        0x0000164a:    69ed        .i      LDR      r5,[r5,#0x1c]
        0x0000164c:    42ac        .B      CMP      r4,r5
        0x0000164e:    d304        ..      BCC      0x165a ; TMR1_IRQHandler + 150
        0x00001650:    2400        .$      MOVS     r4,#0
        0x00001652:    6144        Da      STR      r4,[r0,#0x14]
        0x00001654:    4c66        fL      LDR      r4,[pc,#408] ; [0x17f0] = 0x20000000
        0x00001656:    2502        .%      MOVS     r5,#2
        0x00001658:    7065        ep      STRB     r5,[r4,#1]
        0x0000165a:    7884        .x      LDRB     r4,[r0,#2]
        0x0000165c:    2c01        .,      CMP      r4,#1
        0x0000165e:    d11c        ..      BNE      0x169a ; TMR1_IRQHandler + 214
        0x00001660:    681c        .h      LDR      r4,[r3,#0]
        0x00001662:    2c01        .,      CMP      r4,#1
        0x00001664:    d10a        ..      BNE      0x167c ; TMR1_IRQHandler + 184
        0x00001666:    6984        .i      LDR      r4,[r0,#0x18]
        0x00001668:    1c64        d.      ADDS     r4,r4,#1
        0x0000166a:    6184        .a      STR      r4,[r0,#0x18]
        0x0000166c:    4d5f        _M      LDR      r5,[pc,#380] ; [0x17ec] = 0x20000168
        0x0000166e:    69ed        .i      LDR      r5,[r5,#0x1c]
        0x00001670:    42ac        .B      CMP      r4,r5
        0x00001672:    d303        ..      BCC      0x167c ; TMR1_IRQHandler + 184
        0x00001674:    2400        .$      MOVS     r4,#0
        0x00001676:    6184        .a      STR      r4,[r0,#0x18]
        0x00001678:    4c5d        ]L      LDR      r4,[pc,#372] ; [0x17f0] = 0x20000000
        0x0000167a:    70a1        .p      STRB     r1,[r4,#2]
        0x0000167c:    681b        .h      LDR      r3,[r3,#0]
        0x0000167e:    2b00        .+      CMP      r3,#0
        0x00001680:    d10b        ..      BNE      0x169a ; TMR1_IRQHandler + 214
        0x00001682:    69c3        .i      LDR      r3,[r0,#0x1c]
        0x00001684:    1c5b        [.      ADDS     r3,r3,#1
        0x00001686:    61c3        .a      STR      r3,[r0,#0x1c]
        0x00001688:    4c58        XL      LDR      r4,[pc,#352] ; [0x17ec] = 0x20000168
        0x0000168a:    69e4        .i      LDR      r4,[r4,#0x1c]
        0x0000168c:    42a3        .B      CMP      r3,r4
        0x0000168e:    d304        ..      BCC      0x169a ; TMR1_IRQHandler + 214
        0x00001690:    2300        .#      MOVS     r3,#0
        0x00001692:    61c3        .a      STR      r3,[r0,#0x1c]
        0x00001694:    4b56        VK      LDR      r3,[pc,#344] ; [0x17f0] = 0x20000000
        0x00001696:    2402        .$      MOVS     r4,#2
        0x00001698:    709c        .p      STRB     r4,[r3,#2]
        0x0000169a:    78c3        .x      LDRB     r3,[r0,#3]
        0x0000169c:    2b01        .+      CMP      r3,#1
        0x0000169e:    d11c        ..      BNE      0x16da ; TMR1_IRQHandler + 278
        0x000016a0:    6e53        Sn      LDR      r3,[r2,#0x64]
        0x000016a2:    2b01        .+      CMP      r3,#1
        0x000016a4:    d10a        ..      BNE      0x16bc ; TMR1_IRQHandler + 248
        0x000016a6:    6a03        .j      LDR      r3,[r0,#0x20]
        0x000016a8:    1c5b        [.      ADDS     r3,r3,#1
        0x000016aa:    6203        .b      STR      r3,[r0,#0x20]
        0x000016ac:    4c4f        OL      LDR      r4,[pc,#316] ; [0x17ec] = 0x20000168
        0x000016ae:    69e4        .i      LDR      r4,[r4,#0x1c]
        0x000016b0:    42a3        .B      CMP      r3,r4
        0x000016b2:    d303        ..      BCC      0x16bc ; TMR1_IRQHandler + 248
        0x000016b4:    2300        .#      MOVS     r3,#0
        0x000016b6:    6203        .b      STR      r3,[r0,#0x20]
        0x000016b8:    4b4d        MK      LDR      r3,[pc,#308] ; [0x17f0] = 0x20000000
        0x000016ba:    70d9        .p      STRB     r1,[r3,#3]
        0x000016bc:    6e53        Sn      LDR      r3,[r2,#0x64]
        0x000016be:    2b00        .+      CMP      r3,#0
        0x000016c0:    d10b        ..      BNE      0x16da ; TMR1_IRQHandler + 278
        0x000016c2:    6a43        Cj      LDR      r3,[r0,#0x24]
        0x000016c4:    1c5b        [.      ADDS     r3,r3,#1
        0x000016c6:    6243        Cb      STR      r3,[r0,#0x24]
        0x000016c8:    4c48        HL      LDR      r4,[pc,#288] ; [0x17ec] = 0x20000168
        0x000016ca:    69e4        .i      LDR      r4,[r4,#0x1c]
        0x000016cc:    42a3        .B      CMP      r3,r4
        0x000016ce:    d304        ..      BCC      0x16da ; TMR1_IRQHandler + 278
        0x000016d0:    2300        .#      MOVS     r3,#0
        0x000016d2:    6243        Cb      STR      r3,[r0,#0x24]
        0x000016d4:    4b46        FK      LDR      r3,[pc,#280] ; [0x17f0] = 0x20000000
        0x000016d6:    2402        .$      MOVS     r4,#2
        0x000016d8:    70dc        .p      STRB     r4,[r3,#3]
        0x000016da:    7903        .y      LDRB     r3,[r0,#4]
        0x000016dc:    2b01        .+      CMP      r3,#1
        0x000016de:    d11c        ..      BNE      0x171a ; TMR1_IRQHandler + 342
        0x000016e0:    6c93        .l      LDR      r3,[r2,#0x48]
        0x000016e2:    2b01        .+      CMP      r3,#1
        0x000016e4:    d10a        ..      BNE      0x16fc ; TMR1_IRQHandler + 312
        0x000016e6:    6a83        .j      LDR      r3,[r0,#0x28]
        0x000016e8:    1c5b        [.      ADDS     r3,r3,#1
        0x000016ea:    6283        .b      STR      r3,[r0,#0x28]
        0x000016ec:    4c3f        ?L      LDR      r4,[pc,#252] ; [0x17ec] = 0x20000168
        0x000016ee:    69e4        .i      LDR      r4,[r4,#0x1c]
        0x000016f0:    42a3        .B      CMP      r3,r4
        0x000016f2:    d303        ..      BCC      0x16fc ; TMR1_IRQHandler + 312
        0x000016f4:    2300        .#      MOVS     r3,#0
        0x000016f6:    6283        .b      STR      r3,[r0,#0x28]
        0x000016f8:    4b3d        =K      LDR      r3,[pc,#244] ; [0x17f0] = 0x20000000
        0x000016fa:    7119        .q      STRB     r1,[r3,#4]
        0x000016fc:    6c93        .l      LDR      r3,[r2,#0x48]
        0x000016fe:    2b00        .+      CMP      r3,#0
        0x00001700:    d10b        ..      BNE      0x171a ; TMR1_IRQHandler + 342
        0x00001702:    6ac3        .j      LDR      r3,[r0,#0x2c]
        0x00001704:    1c5b        [.      ADDS     r3,r3,#1
        0x00001706:    62c3        .b      STR      r3,[r0,#0x2c]
        0x00001708:    4c38        8L      LDR      r4,[pc,#224] ; [0x17ec] = 0x20000168
        0x0000170a:    69e4        .i      LDR      r4,[r4,#0x1c]
        0x0000170c:    42a3        .B      CMP      r3,r4
        0x0000170e:    d304        ..      BCC      0x171a ; TMR1_IRQHandler + 342
        0x00001710:    2300        .#      MOVS     r3,#0
        0x00001712:    62c3        .b      STR      r3,[r0,#0x2c]
        0x00001714:    4b36        6K      LDR      r3,[pc,#216] ; [0x17f0] = 0x20000000
        0x00001716:    2402        .$      MOVS     r4,#2
        0x00001718:    711c        .q      STRB     r4,[r3,#4]
        0x0000171a:    7943        Cy      LDRB     r3,[r0,#5]
        0x0000171c:    2b01        .+      CMP      r3,#1
        0x0000171e:    d11c        ..      BNE      0x175a ; TMR1_IRQHandler + 406
        0x00001720:    6953        Si      LDR      r3,[r2,#0x14]
        0x00001722:    2b01        .+      CMP      r3,#1
        0x00001724:    d10a        ..      BNE      0x173c ; TMR1_IRQHandler + 376
        0x00001726:    6b03        .k      LDR      r3,[r0,#0x30]
        0x00001728:    1c5b        [.      ADDS     r3,r3,#1
        0x0000172a:    6303        .c      STR      r3,[r0,#0x30]
        0x0000172c:    4c2f        /L      LDR      r4,[pc,#188] ; [0x17ec] = 0x20000168
        0x0000172e:    69e4        .i      LDR      r4,[r4,#0x1c]
        0x00001730:    42a3        .B      CMP      r3,r4
        0x00001732:    d303        ..      BCC      0x173c ; TMR1_IRQHandler + 376
        0x00001734:    2300        .#      MOVS     r3,#0
        0x00001736:    6303        .c      STR      r3,[r0,#0x30]
        0x00001738:    4b2d        -K      LDR      r3,[pc,#180] ; [0x17f0] = 0x20000000
        0x0000173a:    7159        Yq      STRB     r1,[r3,#5]
        0x0000173c:    6953        Si      LDR      r3,[r2,#0x14]
        0x0000173e:    2b00        .+      CMP      r3,#0
        0x00001740:    d10b        ..      BNE      0x175a ; TMR1_IRQHandler + 406
        0x00001742:    6b43        Ck      LDR      r3,[r0,#0x34]
        0x00001744:    1c5b        [.      ADDS     r3,r3,#1
        0x00001746:    6343        Cc      STR      r3,[r0,#0x34]
        0x00001748:    4c28        (L      LDR      r4,[pc,#160] ; [0x17ec] = 0x20000168
        0x0000174a:    69e4        .i      LDR      r4,[r4,#0x1c]
        0x0000174c:    42a3        .B      CMP      r3,r4
        0x0000174e:    d304        ..      BCC      0x175a ; TMR1_IRQHandler + 406
        0x00001750:    2300        .#      MOVS     r3,#0
        0x00001752:    6343        Cc      STR      r3,[r0,#0x34]
        0x00001754:    4b26        &K      LDR      r3,[pc,#152] ; [0x17f0] = 0x20000000
        0x00001756:    2402        .$      MOVS     r4,#2
        0x00001758:    715c        \q      STRB     r4,[r3,#5]
        0x0000175a:    7983        .y      LDRB     r3,[r0,#6]
        0x0000175c:    2b01        .+      CMP      r3,#1
        0x0000175e:    d11c        ..      BNE      0x179a ; TMR1_IRQHandler + 470
        0x00001760:    6913        .i      LDR      r3,[r2,#0x10]
        0x00001762:    2b01        .+      CMP      r3,#1
        0x00001764:    d10a        ..      BNE      0x177c ; TMR1_IRQHandler + 440
        0x00001766:    6b83        .k      LDR      r3,[r0,#0x38]
        0x00001768:    1c5b        [.      ADDS     r3,r3,#1
        0x0000176a:    6383        .c      STR      r3,[r0,#0x38]
        0x0000176c:    4c1f        .L      LDR      r4,[pc,#124] ; [0x17ec] = 0x20000168
        0x0000176e:    69e4        .i      LDR      r4,[r4,#0x1c]
        0x00001770:    42a3        .B      CMP      r3,r4
        0x00001772:    d303        ..      BCC      0x177c ; TMR1_IRQHandler + 440
        0x00001774:    2300        .#      MOVS     r3,#0
        0x00001776:    6383        .c      STR      r3,[r0,#0x38]
        0x00001778:    4b1d        .K      LDR      r3,[pc,#116] ; [0x17f0] = 0x20000000
        0x0000177a:    7199        .q      STRB     r1,[r3,#6]
        0x0000177c:    6913        .i      LDR      r3,[r2,#0x10]
        0x0000177e:    2b00        .+      CMP      r3,#0
        0x00001780:    d10b        ..      BNE      0x179a ; TMR1_IRQHandler + 470
        0x00001782:    6bc3        .k      LDR      r3,[r0,#0x3c]
        0x00001784:    1c5b        [.      ADDS     r3,r3,#1
        0x00001786:    63c3        .c      STR      r3,[r0,#0x3c]
        0x00001788:    4c18        .L      LDR      r4,[pc,#96] ; [0x17ec] = 0x20000168
        0x0000178a:    69e4        .i      LDR      r4,[r4,#0x1c]
        0x0000178c:    42a3        .B      CMP      r3,r4
        0x0000178e:    d304        ..      BCC      0x179a ; TMR1_IRQHandler + 470
        0x00001790:    2300        .#      MOVS     r3,#0
        0x00001792:    63c3        .c      STR      r3,[r0,#0x3c]
        0x00001794:    4b16        .K      LDR      r3,[pc,#88] ; [0x17f0] = 0x20000000
        0x00001796:    2402        .$      MOVS     r4,#2
        0x00001798:    719c        .q      STRB     r4,[r3,#6]
        0x0000179a:    79c3        .y      LDRB     r3,[r0,#7]
        0x0000179c:    2b01        .+      CMP      r3,#1
        0x0000179e:    d110        ..      BNE      0x17c2 ; TMR1_IRQHandler + 510
        0x000017a0:    68d3        .h      LDR      r3,[r2,#0xc]
        0x000017a2:    2b01        .+      CMP      r3,#1
        0x000017a4:    d10a        ..      BNE      0x17bc ; TMR1_IRQHandler + 504
        0x000017a6:    6c03        .l      LDR      r3,[r0,#0x40]
        0x000017a8:    1c5b        [.      ADDS     r3,r3,#1
        0x000017aa:    6403        .d      STR      r3,[r0,#0x40]
        0x000017ac:    4c0f        .L      LDR      r4,[pc,#60] ; [0x17ec] = 0x20000168
        0x000017ae:    69e4        .i      LDR      r4,[r4,#0x1c]
        0x000017b0:    42a3        .B      CMP      r3,r4
        0x000017b2:    d303        ..      BCC      0x17bc ; TMR1_IRQHandler + 504
        0x000017b4:    2300        .#      MOVS     r3,#0
        0x000017b6:    6403        .d      STR      r3,[r0,#0x40]
        0x000017b8:    4b0d        .K      LDR      r3,[pc,#52] ; [0x17f0] = 0x20000000
        0x000017ba:    71d9        .q      STRB     r1,[r3,#7]
        0x000017bc:    68d1        .h      LDR      r1,[r2,#0xc]
        0x000017be:    2900        .)      CMP      r1,#0
        0x000017c0:    d000        ..      BEQ      0x17c4 ; TMR1_IRQHandler + 512
        0x000017c2:    bdb0        ..      POP      {r4,r5,r7,pc}
        0x000017c4:    6c41        Al      LDR      r1,[r0,#0x44]
        0x000017c6:    1c49        I.      ADDS     r1,r1,#1
        0x000017c8:    6441        Ad      STR      r1,[r0,#0x44]
        0x000017ca:    4a08        .J      LDR      r2,[pc,#32] ; [0x17ec] = 0x20000168
        0x000017cc:    69d2        .i      LDR      r2,[r2,#0x1c]
        0x000017ce:    4291        .B      CMP      r1,r2
        0x000017d0:    d3f7        ..      BCC      0x17c2 ; TMR1_IRQHandler + 510
        0x000017d2:    2100        .!      MOVS     r1,#0
        0x000017d4:    6441        Ad      STR      r1,[r0,#0x44]
        0x000017d6:    4806        .H      LDR      r0,[pc,#24] ; [0x17f0] = 0x20000000
        0x000017d8:    2102        .!      MOVS     r1,#2
        0x000017da:    71c1        .q      STRB     r1,[r0,#7]
        0x000017dc:    bdb0        ..      POP      {r4,r5,r7,pc}
        0x000017de:    46c0        .F      MOV      r8,r8
    $d.37
    __arm_cp.18_0
        0x000017e0:    40010028    (..@    DCD    1073807400
    __arm_cp.18_1
        0x000017e4:    200000fc    ...     DCD    536871164
    __arm_cp.18_2
        0x000017e8:    50004218    .B.P    DCD    1342194200
    __arm_cp.18_3
        0x000017ec:    20000168    h..     DCD    536871272
    __arm_cp.18_4
        0x000017f0:    20000000    ...     DCD    536870912
    __arm_cp.18_5
        0x000017f4:    50004298    .B.P    DCD    1342194328
    $t.0
    UART1_IRQHandler
        0x000017f8:    b570        p.      PUSH     {r4-r6,lr}
        0x000017fa:    243b        ;$      MOVS     r4,#0x3b
        0x000017fc:    4d10        .M      LDR      r5,[pc,#64] ; [0x1840] = 0x2000019c
        0x000017fe:    5d28        (]      LDRB     r0,[r5,r4]
        0x00001800:    2800        .(      CMP      r0,#0
        0x00001802:    d114        ..      BNE      0x182e ; UART1_IRQHandler + 54
        0x00001804:    4e0f        .N      LDR      r6,[pc,#60] ; [0x1844] = 0x4015001c
        0x00001806:    6831        1h      LDR      r1,[r6,#0]
        0x00001808:    6830        0h      LDR      r0,[r6,#0]
        0x0000180a:    05c9        ..      LSLS     r1,r1,#23
        0x0000180c:    d409        ..      BMI      0x1822 ; UART1_IRQHandler + 42
        0x0000180e:    0580        ..      LSLS     r0,r0,#22
        0x00001810:    d50c        ..      BPL      0x182c ; UART1_IRQHandler + 52
        0x00001812:    480e        .H      LDR      r0,[pc,#56] ; [0x184c] = 0x200000ec
        0x00001814:    6800        .h      LDR      r0,[r0,#0]
        0x00001816:    4780        .G      BLX      r0
        0x00001818:    1f30        0.      SUBS     r0,r6,#4
        0x0000181a:    6800        .h      LDR      r0,[r0,#0]
        0x0000181c:    00c0        ..      LSLS     r0,r0,#3
        0x0000181e:    d5fb        ..      BPL      0x1818 ; UART1_IRQHandler + 32
        0x00001820:    e004        ..      B        0x182c ; UART1_IRQHandler + 52
        0x00001822:    07c0        ..      LSLS     r0,r0,#31
        0x00001824:    d002        ..      BEQ      0x182c ; UART1_IRQHandler + 52
        0x00001826:    4808        .H      LDR      r0,[pc,#32] ; [0x1848] = 0x200000e8
        0x00001828:    6800        .h      LDR      r0,[r0,#0]
        0x0000182a:    4780        .G      BLX      r0
        0x0000182c:    5d28        (]      LDRB     r0,[r5,r4]
        0x0000182e:    2801        .(      CMP      r0,#1
        0x00001830:    d105        ..      BNE      0x183e ; UART1_IRQHandler + 70
        0x00001832:    4804        .H      LDR      r0,[pc,#16] ; [0x1844] = 0x4015001c
        0x00001834:    6800        .h      LDR      r0,[r0,#0]
        0x00001836:    05c0        ..      LSLS     r0,r0,#23
        0x00001838:    d501        ..      BPL      0x183e ; UART1_IRQHandler + 70
        0x0000183a:    f7fffa5d    ..].    BL       Modbus_Master_Rece_Handler ; 0xcf8
        0x0000183e:    bd70        p.      POP      {r4-r6,pc}
    $d.1
    __arm_cp.0_0
        0x00001840:    2000019c    ...     DCD    536871324
    __arm_cp.0_1
        0x00001844:    4015001c    ...@    DCD    1075118108
    __arm_cp.0_2
        0x00001848:    200000e8    ...     DCD    536871144
    __arm_cp.0_3
        0x0000184c:    200000ec    ...     DCD    536871148
    $t.2
    UART_Close
        0x00001850:    2100        .!      MOVS     r1,#0
        0x00001852:    6041        A`      STR      r1,[r0,#4]
        0x00001854:    4770        pG      BX       lr
    UART_Read
        0x00001856:    b5b0        ..      PUSH     {r4,r5,r7,lr}
        0x00001858:    2300        .#      MOVS     r3,#0
        0x0000185a:    4293        .B      CMP      r3,r2
        0x0000185c:    d00c        ..      BEQ      0x1878 ; UART_Read + 34
        0x0000185e:    2401        .$      MOVS     r4,#1
        0x00001860:    07a4        ..      LSLS     r4,r4,#30
        0x00001862:    6985        .i      LDR      r5,[r0,#0x18]
        0x00001864:    046d        m.      LSLS     r5,r5,#17
        0x00001866:    d502        ..      BPL      0x186e ; UART_Read + 24
        0x00001868:    1e64        d.      SUBS     r4,r4,#1
        0x0000186a:    d1fa        ..      BNE      0x1862 ; UART_Read + 12
        0x0000186c:    e003        ..      B        0x1876 ; UART_Read + 32
        0x0000186e:    6804        .h      LDR      r4,[r0,#0]
        0x00001870:    54cc        .T      STRB     r4,[r1,r3]
        0x00001872:    1c5b        [.      ADDS     r3,r3,#1
        0x00001874:    e7f1        ..      B        0x185a ; UART_Read + 4
        0x00001876:    461a        .F      MOV      r2,r3
        0x00001878:    4610        .F      MOV      r0,r2
        0x0000187a:    bdb0        ..      POP      {r4,r5,r7,pc}
    USBD_CtrlIn
        0x0000187c:    b570        p.      PUSH     {r4-r6,lr}
        0x0000187e:    4cd9        .L      LDR      r4,[pc,#868] ; [0x1be4] = 0x20000068
        0x00001880:    6a60        `j      LDR      r0,[r4,#0x24]
        0x00001882:    4d1d        .M      LDR      r5,[pc,#116] ; [0x18f8] = 0x40060008
        0x00001884:    2800        .(      CMP      r0,#0
        0x00001886:    d015        ..      BEQ      0x18b4 ; USBD_CtrlIn + 56
        0x00001888:    6a62        bj      LDR      r2,[r4,#0x24]
        0x0000188a:    4ec0        .N      LDR      r6,[pc,#768] ; [0x1b8c] = 0x20000058
        0x0000188c:    6833        3h      LDR      r3,[r6,#0]
        0x0000188e:    69a8        .i      LDR      r0,[r5,#0x18]
        0x00001890:    1828        (.      ADDS     r0,r5,r0
        0x00001892:    30f8        .0      ADDS     r0,r0,#0xf8
        0x00001894:    6a21        !j      LDR      r1,[r4,#0x20]
        0x00001896:    429a        .B      CMP      r2,r3
        0x00001898:    d925        %.      BLS      0x18e6 ; USBD_CtrlIn + 106
        0x0000189a:    6832        2h      LDR      r2,[r6,#0]
        0x0000189c:    f000f938    ..8.    BL       USBD_MemCopy ; 0x1b10
        0x000018a0:    6830        0h      LDR      r0,[r6,#0]
        0x000018a2:    61e8        .a      STR      r0,[r5,#0x1c]
        0x000018a4:    6a20         j      LDR      r0,[r4,#0x20]
        0x000018a6:    6831        1h      LDR      r1,[r6,#0]
        0x000018a8:    1840        @.      ADDS     r0,r0,r1
        0x000018aa:    6220         b      STR      r0,[r4,#0x20]
        0x000018ac:    6830        0h      LDR      r0,[r6,#0]
        0x000018ae:    6a61        aj      LDR      r1,[r4,#0x24]
        0x000018b0:    1a08        ..      SUBS     r0,r1,r0
        0x000018b2:    e01f        ..      B        0x18f4 ; USBD_CtrlIn + 120
        0x000018b4:    2040        @       MOVS     r0,#0x40
        0x000018b6:    5c20         \      LDRB     r0,[r4,r0]
        0x000018b8:    2800        .(      CMP      r0,#0
        0x000018ba:    d10d        ..      BNE      0x18d8 ; USBD_CtrlIn + 92
        0x000018bc:    4620         F      MOV      r0,r4
        0x000018be:    3040        @0      ADDS     r0,r0,#0x40
        0x000018c0:    7840        @x      LDRB     r0,[r0,#1]
        0x000018c2:    2805        .(      CMP      r0,#5
        0x000018c4:    d108        ..      BNE      0x18d8 ; USBD_CtrlIn + 92
        0x000018c6:    6828        (h      LDR      r0,[r5,#0]
        0x000018c8:    6b21        !k      LDR      r1,[r4,#0x30]
        0x000018ca:    4288        .B      CMP      r0,r1
        0x000018cc:    d004        ..      BEQ      0x18d8 ; USBD_CtrlIn + 92
        0x000018ce:    6828        (h      LDR      r0,[r5,#0]
        0x000018d0:    2800        .(      CMP      r0,#0
        0x000018d2:    d101        ..      BNE      0x18d8 ; USBD_CtrlIn + 92
        0x000018d4:    6b20         k      LDR      r0,[r4,#0x30]
        0x000018d6:    6028        (`      STR      r0,[r5,#0]
        0x000018d8:    7860        `x      LDRB     r0,[r4,#1]
        0x000018da:    2800        .(      CMP      r0,#0
        0x000018dc:    d002        ..      BEQ      0x18e4 ; USBD_CtrlIn + 104
        0x000018de:    2000        .       MOVS     r0,#0
        0x000018e0:    61e8        .a      STR      r0,[r5,#0x1c]
        0x000018e2:    7060        `p      STRB     r0,[r4,#1]
        0x000018e4:    bd70        p.      POP      {r4-r6,pc}
        0x000018e6:    6a62        bj      LDR      r2,[r4,#0x24]
        0x000018e8:    f000f912    ....    BL       USBD_MemCopy ; 0x1b10
        0x000018ec:    6a60        `j      LDR      r0,[r4,#0x24]
        0x000018ee:    61e8        .a      STR      r0,[r5,#0x1c]
        0x000018f0:    2000        .       MOVS     r0,#0
        0x000018f2:    6220         b      STR      r0,[r4,#0x20]
        0x000018f4:    6260        `b      STR      r0,[r4,#0x24]
        0x000018f6:    bd70        p.      POP      {r4-r6,pc}
    $d.22
    __arm_cp.9_1
        0x000018f8:    40060008    ...@    DCD    1074135048
    $t.23
    USBD_CtrlOut
        0x000018fc:    b570        p.      PUSH     {r4-r6,lr}
        0x000018fe:    4eb9        .N      LDR      r6,[pc,#740] ; [0x1be4] = 0x20000068
        0x00001900:    69f1        .i      LDR      r1,[r6,#0x1c]
        0x00001902:    2007        .       MOVS     r0,#7
        0x00001904:    02c0        ..      LSLS     r0,r0,#11
        0x00001906:    4d11        .M      LDR      r5,[pc,#68] ; [0x194c] = 0x4006000c
        0x00001908:    682a        *h      LDR      r2,[r5,#0]
        0x0000190a:    4002        .@      ANDS     r2,r2,r0
        0x0000190c:    4291        .B      CMP      r1,r2
        0x0000190e:    d103        ..      BNE      0x1918 ; USBD_CtrlOut + 28
        0x00001910:    489e        .H      LDR      r0,[pc,#632] ; [0x1b8c] = 0x20000058
        0x00001912:    6800        .h      LDR      r0,[r0,#0]
        0x00001914:    62a8        .b      STR      r0,[r5,#0x28]
        0x00001916:    bd70        p.      POP      {r4-r6,pc}
        0x00001918:    6829        )h      LDR      r1,[r5,#0]
        0x0000191a:    4001        .@      ANDS     r1,r1,r0
        0x0000191c:    61f1        .a      STR      r1,[r6,#0x1c]
        0x0000191e:    6bb0        .k      LDR      r0,[r6,#0x38]
        0x00001920:    6bf1        .k      LDR      r1,[r6,#0x3c]
        0x00001922:    4288        .B      CMP      r0,r1
        0x00001924:    d211        ..      BCS      0x194a ; USBD_CtrlOut + 78
        0x00001926:    6aac        .j      LDR      r4,[r5,#0x28]
        0x00001928:    6a68        hj      LDR      r0,[r5,#0x24]
        0x0000192a:    1829        ).      ADDS     r1,r5,r0
        0x0000192c:    31f4        .1      ADDS     r1,r1,#0xf4
        0x0000192e:    6b70        pk      LDR      r0,[r6,#0x34]
        0x00001930:    4622        "F      MOV      r2,r4
        0x00001932:    f000f8ed    ....    BL       USBD_MemCopy ; 0x1b10
        0x00001936:    6bb0        .k      LDR      r0,[r6,#0x38]
        0x00001938:    1900        ..      ADDS     r0,r0,r4
        0x0000193a:    63b0        .c      STR      r0,[r6,#0x38]
        0x0000193c:    6b70        pk      LDR      r0,[r6,#0x34]
        0x0000193e:    1900        ..      ADDS     r0,r0,r4
        0x00001940:    6370        pc      STR      r0,[r6,#0x34]
        0x00001942:    6bb0        .k      LDR      r0,[r6,#0x38]
        0x00001944:    6bf1        .k      LDR      r1,[r6,#0x3c]
        0x00001946:    4288        .B      CMP      r0,r1
        0x00001948:    d3e2        ..      BCC      0x1910 ; USBD_CtrlOut + 20
        0x0000194a:    bd70        p.      POP      {r4-r6,pc}
    $d.24
    __arm_cp.10_1
        0x0000194c:    4006000c    ...@    DCD    1074135052
    $t.15
    USBD_GetDescriptor
        0x00001950:    b5f8        ..      PUSH     {r3-r7,lr}
        0x00001952:    4ea4        .N      LDR      r6,[pc,#656] ; [0x1be4] = 0x20000068
        0x00001954:    2700        .'      MOVS     r7,#0
        0x00001956:    7077        wp      STRB     r7,[r6,#1]
        0x00001958:    4631        1F      MOV      r1,r6
        0x0000195a:    3140        @1      ADDS     r1,r1,#0x40
        0x0000195c:    78c8        .x      LDRB     r0,[r1,#3]
        0x0000195e:    88c9        ..      LDRH     r1,[r1,#6]
        0x00001960:    2822        "(      CMP      r0,#0x22
        0x00001962:    d03c        <.      BEQ      0x19de ; USBD_GetDescriptor + 142
        0x00001964:    2802        .(      CMP      r0,#2
        0x00001966:    d00b        ..      BEQ      0x1980 ; USBD_GetDescriptor + 48
        0x00001968:    2803        .(      CMP      r0,#3
        0x0000196a:    d017        ..      BEQ      0x199c ; USBD_GetDescriptor + 76
        0x0000196c:    2821        !(      CMP      r0,#0x21
        0x0000196e:    d00e        ..      BEQ      0x198e ; USBD_GetDescriptor + 62
        0x00001970:    2801        .(      CMP      r0,#1
        0x00001972:    d12b        +.      BNE      0x19cc ; USBD_GetDescriptor + 124
        0x00001974:    2912        .)      CMP      r1,#0x12
        0x00001976:    d300        ..      BCC      0x197a ; USBD_GetDescriptor + 42
        0x00001978:    2112        .!      MOVS     r1,#0x12
        0x0000197a:    69b0        .i      LDR      r0,[r6,#0x18]
        0x0000197c:    6800        .h      LDR      r0,[r0,#0]
        0x0000197e:    e049        I.      B        0x1a14 ; USBD_GetDescriptor + 196
        0x00001980:    69b0        .i      LDR      r0,[r6,#0x18]
        0x00001982:    6844        Dh      LDR      r4,[r0,#4]
        0x00001984:    78a0        .x      LDRB     r0,[r4,#2]
        0x00001986:    78e2        .x      LDRB     r2,[r4,#3]
        0x00001988:    0212        ..      LSLS     r2,r2,#8
        0x0000198a:    1815        ..      ADDS     r5,r2,r0
        0x0000198c:    e010        ..      B        0x19b0 ; USBD_GetDescriptor + 96
        0x0000198e:    2909        .)      CMP      r1,#9
        0x00001990:    d300        ..      BCC      0x1994 ; USBD_GetDescriptor + 68
        0x00001992:    2109        .!      MOVS     r1,#9
        0x00001994:    69b0        .i      LDR      r0,[r6,#0x18]
        0x00001996:    6840        @h      LDR      r0,[r0,#4]
        0x00001998:    3012        .0      ADDS     r0,r0,#0x12
        0x0000199a:    e03b        ;.      B        0x1a14 ; USBD_GetDescriptor + 196
        0x0000199c:    2042        B       MOVS     r0,#0x42
        0x0000199e:    5c30        0\      LDRB     r0,[r6,r0]
        0x000019a0:    4a91        .J      LDR      r2,[pc,#580] ; [0x1be8] = 0x4006002c
        0x000019a2:    2803        .(      CMP      r0,#3
        0x000019a4:    d840        @.      BHI      0x1a28 ; USBD_GetDescriptor + 216
        0x000019a6:    0080        ..      LSLS     r0,r0,#2
        0x000019a8:    69b2        .i      LDR      r2,[r6,#0x18]
        0x000019aa:    6892        .h      LDR      r2,[r2,#8]
        0x000019ac:    5814        .X      LDR      r4,[r2,r0]
        0x000019ae:    7825        %x      LDRB     r5,[r4,#0]
        0x000019b0:    42a9        .B      CMP      r1,r5
        0x000019b2:    d909        ..      BLS      0x19c8 ; USBD_GetDescriptor + 120
        0x000019b4:    4875        uH      LDR      r0,[pc,#468] ; [0x1b8c] = 0x20000058
        0x000019b6:    6801        .h      LDR      r1,[r0,#0]
        0x000019b8:    4628        (F      MOV      r0,r5
        0x000019ba:    f7fefce7    ....    BL       __aeabi_uidiv ; 0x38c
        0x000019be:    2900        .)      CMP      r1,#0
        0x000019c0:    d101        ..      BNE      0x19c6 ; USBD_GetDescriptor + 118
        0x000019c2:    2001        .       MOVS     r0,#1
        0x000019c4:    7070        pp      STRB     r0,[r6,#1]
        0x000019c6:    4629        )F      MOV      r1,r5
        0x000019c8:    4620         F      MOV      r0,r4
        0x000019ca:    e023        #.      B        0x1a14 ; USBD_GetDescriptor + 196
        0x000019cc:    4886        .H      LDR      r0,[pc,#536] ; [0x1be8] = 0x4006002c
        0x000019ce:    6801        .h      LDR      r1,[r0,#0]
        0x000019d0:    2202        ."      MOVS     r2,#2
        0x000019d2:    4311        .C      ORRS     r1,r1,r2
        0x000019d4:    6001        .`      STR      r1,[r0,#0]
        0x000019d6:    6901        .i      LDR      r1,[r0,#0x10]
        0x000019d8:    4311        .C      ORRS     r1,r1,r2
        0x000019da:    6101        .a      STR      r1,[r0,#0x10]
        0x000019dc:    bdf8        ..      POP      {r3-r7,pc}
        0x000019de:    69b5        .i      LDR      r5,[r6,#0x18]
        0x000019e0:    6868        hh      LDR      r0,[r5,#4]
        0x000019e2:    7882        .x      LDRB     r2,[r0,#2]
        0x000019e4:    78c3        .x      LDRB     r3,[r0,#3]
        0x000019e6:    021b        ..      LSLS     r3,r3,#8
        0x000019e8:    189a        ..      ADDS     r2,r3,r2
        0x000019ea:    1880        ..      ADDS     r0,r0,r2
        0x000019ec:    4602        .F      MOV      r2,r0
        0x000019ee:    3a09        .:      SUBS     r2,r2,#9
        0x000019f0:    7812        .x      LDRB     r2,[r2,#0]
        0x000019f2:    3808        .8      SUBS     r0,r0,#8
        0x000019f4:    7800        .x      LDRB     r0,[r0,#0]
        0x000019f6:    0200        ..      LSLS     r0,r0,#8
        0x000019f8:    1884        ..      ADDS     r4,r0,r2
        0x000019fa:    42a1        .B      CMP      r1,r4
        0x000019fc:    d909        ..      BLS      0x1a12 ; USBD_GetDescriptor + 194
        0x000019fe:    4863        cH      LDR      r0,[pc,#396] ; [0x1b8c] = 0x20000058
        0x00001a00:    6801        .h      LDR      r1,[r0,#0]
        0x00001a02:    4620         F      MOV      r0,r4
        0x00001a04:    f7fefcc2    ....    BL       __aeabi_uidiv ; 0x38c
        0x00001a08:    2900        .)      CMP      r1,#0
        0x00001a0a:    d101        ..      BNE      0x1a10 ; USBD_GetDescriptor + 192
        0x00001a0c:    2001        .       MOVS     r0,#1
        0x00001a0e:    7070        pp      STRB     r0,[r6,#1]
        0x00001a10:    4621        !F      MOV      r1,r4
        0x00001a12:    68e8        .h      LDR      r0,[r5,#0xc]
        0x00001a14:    f000f88e    ....    BL       USBD_PrepareCtrlIn ; 0x1b34
        0x00001a18:    63b7        .c      STR      r7,[r6,#0x38]
        0x00001a1a:    63f7        .c      STR      r7,[r6,#0x3c]
        0x00001a1c:    6377        wc      STR      r7,[r6,#0x34]
        0x00001a1e:    485b        [H      LDR      r0,[pc,#364] ; [0x1b8c] = 0x20000058
        0x00001a20:    6800        .h      LDR      r0,[r0,#0]
        0x00001a22:    4971        qI      LDR      r1,[pc,#452] ; [0x1be8] = 0x4006002c
        0x00001a24:    6088        .`      STR      r0,[r1,#8]
        0x00001a26:    bdf8        ..      POP      {r3-r7,pc}
        0x00001a28:    6810        .h      LDR      r0,[r2,#0]
        0x00001a2a:    2102        .!      MOVS     r1,#2
        0x00001a2c:    4308        .C      ORRS     r0,r0,r1
        0x00001a2e:    6010        .`      STR      r0,[r2,#0]
        0x00001a30:    6910        .i      LDR      r0,[r2,#0x10]
        0x00001a32:    4308        .C      ORRS     r0,r0,r1
        0x00001a34:    6110        .a      STR      r0,[r2,#0x10]
        0x00001a36:    bdf8        ..      POP      {r3-r7,pc}
    USBD_IRQHandler
        0x00001a38:    b5f8        ..      PUSH     {r3-r7,lr}
        0x00001a3a:    4c33        3L      LDR      r4,[pc,#204] ; [0x1b08] = 0x40060004
        0x00001a3c:    6825        %h      LDR      r5,[r4,#0]
        0x00001a3e:    68e6        .h      LDR      r6,[r4,#0xc]
        0x00001a40:    0768        h.      LSLS     r0,r5,#29
        0x00001a42:    d50b        ..      BPL      0x1a5c ; USBD_IRQHandler + 36
        0x00001a44:    2004        .       MOVS     r0,#4
        0x00001a46:    6020         `      STR      r0,[r4,#0]
        0x00001a48:    6921        !i      LDR      r1,[r4,#0x10]
        0x00001a4a:    68e0        .h      LDR      r0,[r4,#0xc]
        0x00001a4c:    07c9        ..      LSLS     r1,r1,#31
        0x00001a4e:    d002        ..      BEQ      0x1a56 ; USBD_IRQHandler + 30
        0x00001a50:    2190        .!      MOVS     r1,#0x90
        0x00001a52:    4308        .C      ORRS     r0,r0,r1
        0x00001a54:    e001        ..      B        0x1a5a ; USBD_IRQHandler + 34
        0x00001a56:    2180        .!      MOVS     r1,#0x80
        0x00001a58:    4388        .C      BICS     r0,r0,r1
        0x00001a5a:    60e0        .`      STR      r0,[r4,#0xc]
        0x00001a5c:    0728        (.      LSLS     r0,r5,#28
        0x00001a5e:    d501        ..      BPL      0x1a64 ; USBD_IRQHandler + 44
        0x00001a60:    2008        .       MOVS     r0,#8
        0x00001a62:    6020         `      STR      r0,[r4,#0]
        0x00001a64:    07e8        ..      LSLS     r0,r5,#31
        0x00001a66:    d01d        ..      BEQ      0x1aa4 ; USBD_IRQHandler + 108
        0x00001a68:    2701        .'      MOVS     r7,#1
        0x00001a6a:    6027        '`      STR      r7,[r4,#0]
        0x00001a6c:    07f0        ..      LSLS     r0,r6,#31
        0x00001a6e:    d008        ..      BEQ      0x1a82 ; USBD_IRQHandler + 74
        0x00001a70:    68e0        .h      LDR      r0,[r4,#0xc]
        0x00001a72:    2190        .!      MOVS     r1,#0x90
        0x00001a74:    4301        .C      ORRS     r1,r1,r0
        0x00001a76:    60e1        .`      STR      r1,[r4,#0xc]
        0x00001a78:    f000f9ca    ....    BL       USBD_SwReset ; 0x1e10
        0x00001a7c:    4823        #H      LDR      r0,[pc,#140] ; [0x1b0c] = 0x2000271c
        0x00001a7e:    2100        .!      MOVS     r1,#0
        0x00001a80:    7001        .p      STRB     r1,[r0,#0]
        0x00001a82:    07b0        ..      LSLS     r0,r6,#30
        0x00001a84:    d505        ..      BPL      0x1a92 ; USBD_IRQHandler + 90
        0x00001a86:    4821        !H      LDR      r0,[pc,#132] ; [0x1b0c] = 0x2000271c
        0x00001a88:    7007        .p      STRB     r7,[r0,#0]
        0x00001a8a:    68e0        .h      LDR      r0,[r4,#0xc]
        0x00001a8c:    2110        .!      MOVS     r1,#0x10
        0x00001a8e:    4388        .C      BICS     r0,r0,r1
        0x00001a90:    60e0        .`      STR      r0,[r4,#0xc]
        0x00001a92:    0770        p.      LSLS     r0,r6,#29
        0x00001a94:    d506        ..      BPL      0x1aa4 ; USBD_IRQHandler + 108
        0x00001a96:    68e0        .h      LDR      r0,[r4,#0xc]
        0x00001a98:    2190        .!      MOVS     r1,#0x90
        0x00001a9a:    4301        .C      ORRS     r1,r1,r0
        0x00001a9c:    60e1        .`      STR      r1,[r4,#0xc]
        0x00001a9e:    481b        .H      LDR      r0,[pc,#108] ; [0x1b0c] = 0x2000271c
        0x00001aa0:    2100        .!      MOVS     r1,#0
        0x00001aa2:    7001        .p      STRB     r1,[r0,#0]
        0x00001aa4:    07a8        ..      LSLS     r0,r5,#30
        0x00001aa6:    d52d        -.      BPL      0x1b04 ; USBD_IRQHandler + 204
        0x00001aa8:    2d00        .-      CMP      r5,#0
        0x00001aaa:    d50a        ..      BPL      0x1ac2 ; USBD_IRQHandler + 138
        0x00001aac:    2001        .       MOVS     r0,#1
        0x00001aae:    07c1        ..      LSLS     r1,r0,#31
        0x00001ab0:    6021        !`      STR      r1,[r4,#0]
        0x00001ab2:    6aa1        .j      LDR      r1,[r4,#0x28]
        0x00001ab4:    4301        .C      ORRS     r1,r1,r0
        0x00001ab6:    62a1        .b      STR      r1,[r4,#0x28]
        0x00001ab8:    6ba1        .k      LDR      r1,[r4,#0x38]
        0x00001aba:    4301        .C      ORRS     r1,r1,r0
        0x00001abc:    63a1        .c      STR      r1,[r4,#0x38]
        0x00001abe:    f000f869    ..i.    BL       USBD_ProcessSetupPacket ; 0x1b94
        0x00001ac2:    2601        .&      MOVS     r6,#1
        0x00001ac4:    03e8        ..      LSLS     r0,r5,#15
        0x00001ac6:    d503        ..      BPL      0x1ad0 ; USBD_IRQHandler + 152
        0x00001ac8:    0430        0.      LSLS     r0,r6,#16
        0x00001aca:    6020         `      STR      r0,[r4,#0]
        0x00001acc:    f7fffed6    ....    BL       USBD_CtrlIn ; 0x187c
        0x00001ad0:    03a8        ..      LSLS     r0,r5,#14
        0x00001ad2:    d503        ..      BPL      0x1adc ; USBD_IRQHandler + 164
        0x00001ad4:    0470        p.      LSLS     r0,r6,#17
        0x00001ad6:    6020         `      STR      r0,[r4,#0]
        0x00001ad8:    f7ffff10    ....    BL       USBD_CtrlOut ; 0x18fc
        0x00001adc:    0368        h.      LSLS     r0,r5,#13
        0x00001ade:    d503        ..      BPL      0x1ae8 ; USBD_IRQHandler + 176
        0x00001ae0:    04b0        ..      LSLS     r0,r6,#18
        0x00001ae2:    6020         `      STR      r0,[r4,#0]
        0x00001ae4:    f7fff88b    ....    BL       HID_SetInReport ; 0xbfe
        0x00001ae8:    0328        (.      LSLS     r0,r5,#12
        0x00001aea:    d503        ..      BPL      0x1af4 ; USBD_IRQHandler + 188
        0x00001aec:    04f0        ..      LSLS     r0,r6,#19
        0x00001aee:    6020         `      STR      r0,[r4,#0]
        0x00001af0:    f7fefefc    ....    BL       EP3_Handler ; 0x8ec
        0x00001af4:    02e8        ..      LSLS     r0,r5,#11
        0x00001af6:    d501        ..      BPL      0x1afc ; USBD_IRQHandler + 196
        0x00001af8:    0530        0.      LSLS     r0,r6,#20
        0x00001afa:    6020         `      STR      r0,[r4,#0]
        0x00001afc:    02a8        ..      LSLS     r0,r5,#10
        0x00001afe:    d501        ..      BPL      0x1b04 ; USBD_IRQHandler + 204
        0x00001b00:    0570        p.      LSLS     r0,r6,#21
        0x00001b02:    6020         `      STR      r0,[r4,#0]
        0x00001b04:    bdf8        ..      POP      {r3-r7,pc}
        0x00001b06:    46c0        .F      MOV      r8,r8
    $d.1
    __arm_cp.0_0
        0x00001b08:    40060004    ...@    DCD    1074135044
    __arm_cp.0_1
        0x00001b0c:    2000271c    .'.     DCD    536880924
    $t.6
    USBD_MemCopy
        0x00001b10:    2a00        .*      CMP      r2,#0
        0x00001b12:    d005        ..      BEQ      0x1b20 ; USBD_MemCopy + 16
        0x00001b14:    780b        .x      LDRB     r3,[r1,#0]
        0x00001b16:    7003        .p      STRB     r3,[r0,#0]
        0x00001b18:    1c40        @.      ADDS     r0,r0,#1
        0x00001b1a:    1c49        I.      ADDS     r1,r1,#1
        0x00001b1c:    1e52        R.      SUBS     r2,r2,#1
        0x00001b1e:    e7f7        ..      B        USBD_MemCopy ; 0x1b10
        0x00001b20:    4770        pG      BX       lr
    USBD_MemCopy
        0x00001b22:    2200        ."      MOVS     r2,#0
        0x00001b24:    2a40        @*      CMP      r2,#0x40
        0x00001b26:    d003        ..      BEQ      0x1b30 ; USBD_MemCopy + 14
        0x00001b28:    5c8b        .\      LDRB     r3,[r1,r2]
        0x00001b2a:    5483        .T      STRB     r3,[r0,r2]
        0x00001b2c:    1c52        R.      ADDS     r2,r2,#1
        0x00001b2e:    e7f9        ..      B        0x1b24 ; USBD_MemCopy + 2
        0x00001b30:    4770        pG      BX       lr
        0x00001b32:    0000        ..      MOVS     r0,r0
    USBD_PrepareCtrlIn
        0x00001b34:    b570        p.      PUSH     {r4-r6,lr}
        0x00001b36:    460c        .F      MOV      r4,r1
        0x00001b38:    4601        .F      MOV      r1,r0
        0x00001b3a:    4eb4        .N      LDR      r6,[pc,#720] ; [0x1e0c] = 0x20000058
        0x00001b3c:    6830        0h      LDR      r0,[r6,#0]
        0x00001b3e:    4d14        .M      LDR      r5,[pc,#80] ; [0x1b90] = 0x40060020
        0x00001b40:    42a0        .B      CMP      r0,r4
        0x00001b42:    d212        ..      BCS      0x1b6a ; USBD_PrepareCtrlIn + 54
        0x00001b44:    6830        0h      LDR      r0,[r6,#0]
        0x00001b46:    6832        2h      LDR      r2,[r6,#0]
        0x00001b48:    1aa2        ..      SUBS     r2,r4,r2
        0x00001b4a:    4bbd        .K      LDR      r3,[pc,#756] ; [0x1e40] = 0x20000068
        0x00001b4c:    625a        Zb      STR      r2,[r3,#0x24]
        0x00001b4e:    68aa        .h      LDR      r2,[r5,#8]
        0x00001b50:    2480        .$      MOVS     r4,#0x80
        0x00001b52:    4314        .C      ORRS     r4,r4,r2
        0x00001b54:    60ac        .`      STR      r4,[r5,#8]
        0x00001b56:    1808        ..      ADDS     r0,r1,r0
        0x00001b58:    6218        .b      STR      r0,[r3,#0x20]
        0x00001b5a:    6828        (h      LDR      r0,[r5,#0]
        0x00001b5c:    1828        (.      ADDS     r0,r5,r0
        0x00001b5e:    30e0        .0      ADDS     r0,r0,#0xe0
        0x00001b60:    6832        2h      LDR      r2,[r6,#0]
        0x00001b62:    f7ffffd5    ....    BL       USBD_MemCopy ; 0x1b10
        0x00001b66:    6834        4h      LDR      r4,[r6,#0]
        0x00001b68:    e00d        ..      B        0x1b86 ; USBD_PrepareCtrlIn + 82
        0x00001b6a:    48b5        .H      LDR      r0,[pc,#724] ; [0x1e40] = 0x20000068
        0x00001b6c:    2200        ."      MOVS     r2,#0
        0x00001b6e:    6242        Bb      STR      r2,[r0,#0x24]
        0x00001b70:    68ab        .h      LDR      r3,[r5,#8]
        0x00001b72:    2680        .&      MOVS     r6,#0x80
        0x00001b74:    431e        .C      ORRS     r6,r6,r3
        0x00001b76:    60ae        .`      STR      r6,[r5,#8]
        0x00001b78:    6202        .b      STR      r2,[r0,#0x20]
        0x00001b7a:    6828        (h      LDR      r0,[r5,#0]
        0x00001b7c:    1828        (.      ADDS     r0,r5,r0
        0x00001b7e:    30e0        .0      ADDS     r0,r0,#0xe0
        0x00001b80:    4622        "F      MOV      r2,r4
        0x00001b82:    f7ffffc5    ....    BL       USBD_MemCopy ; 0x1b10
        0x00001b86:    606c        l`      STR      r4,[r5,#4]
        0x00001b88:    bd70        p.      POP      {r4-r6,pc}
        0x00001b8a:    46c0        .F      MOV      r8,r8
    $d.18
    __arm_cp.7_0
        0x00001b8c:    20000058    X..     DCD    536871000
    __arm_cp.7_1
        0x00001b90:    40060020     ..@    DCD    1074135072
    $t.7
    USBD_ProcessSetupPacket
        0x00001b94:    b5b0        ..      PUSH     {r4,r5,r7,lr}
        0x00001b96:    4daa        .M      LDR      r5,[pc,#680] ; [0x1e40] = 0x20000068
        0x00001b98:    2000        .       MOVS     r0,#0
        0x00001b9a:    61e8        .a      STR      r0,[r5,#0x1c]
        0x00001b9c:    4628        (F      MOV      r0,r5
        0x00001b9e:    3040        @0      ADDS     r0,r0,#0x40
        0x00001ba0:    4c11        .L      LDR      r4,[pc,#68] ; [0x1be8] = 0x4006002c
        0x00001ba2:    4621        !F      MOV      r1,r4
        0x00001ba4:    31d4        .1      ADDS     r1,r1,#0xd4
        0x00001ba6:    2208        ."      MOVS     r2,#8
        0x00001ba8:    f7ffffb2    ....    BL       USBD_MemCopy ; 0x1b10
        0x00001bac:    2040        @       MOVS     r0,#0x40
        0x00001bae:    5c29        )\      LDRB     r1,[r5,r0]
        0x00001bb0:    2060        `       MOVS     r0,#0x60
        0x00001bb2:    4008        .@      ANDS     r0,r0,r1
        0x00001bb4:    2840        @(      CMP      r0,#0x40
        0x00001bb6:    d008        ..      BEQ      0x1bca ; USBD_ProcessSetupPacket + 54
        0x00001bb8:    2820         (      CMP      r0,#0x20
        0x00001bba:    d004        ..      BEQ      0x1bc6 ; USBD_ProcessSetupPacket + 50
        0x00001bbc:    2800        .(      CMP      r0,#0
        0x00001bbe:    d109        ..      BNE      0x1bd4 ; USBD_ProcessSetupPacket + 64
        0x00001bc0:    f000f814    ....    BL       USBD_StandardRequest ; 0x1bec
        0x00001bc4:    bdb0        ..      POP      {r4,r5,r7,pc}
        0x00001bc6:    68a8        .h      LDR      r0,[r5,#8]
        0x00001bc8:    e000        ..      B        0x1bcc ; USBD_ProcessSetupPacket + 56
        0x00001bca:    6868        hh      LDR      r0,[r5,#4]
        0x00001bcc:    2800        .(      CMP      r0,#0
        0x00001bce:    d008        ..      BEQ      0x1be2 ; USBD_ProcessSetupPacket + 78
        0x00001bd0:    4780        .G      BLX      r0
        0x00001bd2:    bdb0        ..      POP      {r4,r5,r7,pc}
        0x00001bd4:    6820         h      LDR      r0,[r4,#0]
        0x00001bd6:    2102        .!      MOVS     r1,#2
        0x00001bd8:    4308        .C      ORRS     r0,r0,r1
        0x00001bda:    6020         `      STR      r0,[r4,#0]
        0x00001bdc:    6920         i      LDR      r0,[r4,#0x10]
        0x00001bde:    4308        .C      ORRS     r0,r0,r1
        0x00001be0:    6120         a      STR      r0,[r4,#0x10]
        0x00001be2:    bdb0        ..      POP      {r4,r5,r7,pc}
    $d.8
    __arm_cp.4_0
        0x00001be4:    20000068    h..     DCD    536871016
    __arm_cp.4_1
        0x00001be8:    4006002c    ,..@    DCD    1074135084
    $t.9
    USBD_StandardRequest
        0x00001bec:    b5f8        ..      PUSH     {r3-r7,lr}
        0x00001bee:    4c94        .L      LDR      r4,[pc,#592] ; [0x1e40] = 0x20000068
        0x00001bf0:    2500        .%      MOVS     r5,#0
        0x00001bf2:    6265        eb      STR      r5,[r4,#0x24]
        0x00001bf4:    6225        %b      STR      r5,[r4,#0x20]
        0x00001bf6:    2040        @       MOVS     r0,#0x40
        0x00001bf8:    5c21        !\      LDRB     r1,[r4,r0]
        0x00001bfa:    b248        H.      SXTB     r0,r1
        0x00001bfc:    4622        "F      MOV      r2,r4
        0x00001bfe:    3240        @2      ADDS     r2,r2,#0x40
        0x00001c00:    7852        Rx      LDRB     r2,[r2,#1]
        0x00001c02:    2800        .(      CMP      r0,#0
        0x00001c04:    d435        5.      BMI      0x1c72 ; USBD_StandardRequest + 134
        0x00001c06:    1e50        P.      SUBS     r0,r2,#1
        0x00001c08:    4d7f        .M      LDR      r5,[pc,#508] ; [0x1e08] = 0x4006001c
        0x00001c0a:    280a        .(      CMP      r0,#0xa
        0x00001c0c:    d853        S.      BHI      0x1cb6 ; USBD_StandardRequest + 202
        0x00001c0e:    46c0        .F      MOV      r8,r8
        0x00001c10:    4478        xD      ADD      r0,r0,pc
        0x00001c12:    7900        .y      LDRB     r0,[r0,#4]
        0x00001c14:    0040        @.      LSLS     r0,r0,#1
        0x00001c16:    4487        .D      ADD      pc,pc,r0
    $d.10
        0x00001c18:    4e5a4e05    .NZN    DCD    1314541061
        0x00001c1c:    4e4e4e56    VNNN    DCD    1313754710
        0x00001c20:    00774e72    rNw.    DCD    7818866
    $t.11
        0x00001c24:    2042        B       MOVS     r0,#0x42
        0x00001c26:    5c20         \      LDRB     r0,[r4,r0]
        0x00001c28:    2801        .(      CMP      r0,#1
        0x00001c2a:    d100        ..      BNE      0x1c2e ; USBD_StandardRequest + 66
        0x00001c2c:    e0ae        ..      B        0x1d8c ; USBD_StandardRequest + 416
        0x00001c2e:    2800        .(      CMP      r0,#0
        0x00001c30:    d000        ..      BEQ      0x1c34 ; USBD_StandardRequest + 72
        0x00001c32:    e0af        ..      B        0x1d94 ; USBD_StandardRequest + 424
        0x00001c34:    2044        D       MOVS     r0,#0x44
        0x00001c36:    5c20         \      LDRB     r0,[r4,r0]
        0x00001c38:    210f        .!      MOVS     r1,#0xf
        0x00001c3a:    4008        .@      ANDS     r0,r0,r1
        0x00001c3c:    462a        *F      MOV      r2,r5
        0x00001c3e:    3210        .2      ADDS     r2,r2,#0x10
        0x00001c40:    2300        .#      MOVS     r3,#0
        0x00001c42:    2b06        .+      CMP      r3,#6
        0x00001c44:    d100        ..      BNE      0x1c48 ; USBD_StandardRequest + 92
        0x00001c46:    e0a5        ..      B        0x1d94 ; USBD_StandardRequest + 424
        0x00001c48:    1f16        ..      SUBS     r6,r2,#4
        0x00001c4a:    6837        7h      LDR      r7,[r6,#0]
        0x00001c4c:    400f        .@      ANDS     r7,r7,r1
        0x00001c4e:    4287        .B      CMP      r7,r0
        0x00001c50:    d10c        ..      BNE      0x1c6c ; USBD_StandardRequest + 128
        0x00001c52:    6967        gi      LDR      r7,[r4,#0x14]
        0x00001c54:    40df        .@      LSRS     r7,r7,r3
        0x00001c56:    07ff        ..      LSLS     r7,r7,#31
        0x00001c58:    d108        ..      BNE      0x1c6c ; USBD_StandardRequest + 128
        0x00001c5a:    6817        .h      LDR      r7,[r2,#0]
        0x00001c5c:    2502        .%      MOVS     r5,#2
        0x00001c5e:    43af        .C      BICS     r7,r7,r5
        0x00001c60:    6017        .`      STR      r7,[r2,#0]
        0x00001c62:    6835        5h      LDR      r5,[r6,#0]
        0x00001c64:    2780        .'      MOVS     r7,#0x80
        0x00001c66:    43bd        .C      BICS     r5,r5,r7
        0x00001c68:    6035        5`      STR      r5,[r6,#0]
        0x00001c6a:    4d67        gM      LDR      r5,[pc,#412] ; [0x1e08] = 0x4006001c
        0x00001c6c:    3210        .2      ADDS     r2,r2,#0x10
        0x00001c6e:    1c5b        [.      ADDS     r3,r3,#1
        0x00001c70:    e7e7        ..      B        0x1c42 ; USBD_StandardRequest + 86
        0x00001c72:    2001        .       MOVS     r0,#1
        0x00001c74:    41c2        .A      RORS     r2,r2,r0
        0x00001c76:    2a05        .*      CMP      r2,#5
        0x00001c78:    d900        ..      BLS      0x1c7c ; USBD_StandardRequest + 144
        0x00001c7a:    e07e        ~.      B        0x1d7a ; USBD_StandardRequest + 398
        0x00001c7c:    447a        zD      ADD      r2,r2,pc
        0x00001c7e:    7912        .y      LDRB     r2,[r2,#4]
        0x00001c80:    0052        R.      LSLS     r2,r2,#1
        0x00001c82:    4497        .D      ADD      pc,pc,r2
    $d.12
        0x00001c84:    5e7a7a02    .zz^    DCD    1585084930
        0x00001c88:    6849        Ih      DCW    26697
    $t.13
        0x00001c8a:    4f5f        _O      LDR      r7,[pc,#380] ; [0x1e08] = 0x4006001c
        0x00001c8c:    2982        .)      CMP      r1,#0x82
        0x00001c8e:    d100        ..      BNE      0x1c92 ; USBD_StandardRequest + 166
        0x00001c90:    e087        ..      B        0x1da2 ; USBD_StandardRequest + 438
        0x00001c92:    2981        .)      CMP      r1,#0x81
        0x00001c94:    d100        ..      BNE      0x1c98 ; USBD_StandardRequest + 172
        0x00001c96:    e0a0        ..      B        0x1dda ; USBD_StandardRequest + 494
        0x00001c98:    2980        .)      CMP      r1,#0x80
        0x00001c9a:    d000        ..      BEQ      0x1c9e ; USBD_StandardRequest + 178
        0x00001c9c:    e0a1        ..      B        0x1de2 ; USBD_StandardRequest + 502
        0x00001c9e:    69a0        .i      LDR      r0,[r4,#0x18]
        0x00001ca0:    6840        @h      LDR      r0,[r0,#4]
        0x00001ca2:    79c0        .y      LDRB     r0,[r0,#7]
        0x00001ca4:    0641        A.      LSLS     r1,r0,#25
        0x00001ca6:    0fcd        ..      LSRS     r5,r1,#31
        0x00001ca8:    0680        ..      LSLS     r0,r0,#26
        0x00001caa:    d400        ..      BMI      0x1cae ; USBD_StandardRequest + 194
        0x00001cac:    e095        ..      B        0x1dda ; USBD_StandardRequest + 494
        0x00001cae:    7820         x      LDRB     r0,[r4,#0]
        0x00001cb0:    0040        @.      LSLS     r0,r0,#1
        0x00001cb2:    1945        E.      ADDS     r5,r0,r5
        0x00001cb4:    e091        ..      B        0x1dda ; USBD_StandardRequest + 494
        0x00001cb6:    6928        (i      LDR      r0,[r5,#0x10]
        0x00001cb8:    2102        .!      MOVS     r1,#2
        0x00001cba:    4308        .C      ORRS     r0,r0,r1
        0x00001cbc:    6128        (a      STR      r0,[r5,#0x10]
        0x00001cbe:    6a28        (j      LDR      r0,[r5,#0x20]
        0x00001cc0:    4308        .C      ORRS     r0,r0,r1
        0x00001cc2:    6228        (b      STR      r0,[r5,#0x20]
        0x00001cc4:    bdf8        ..      POP      {r3-r7,pc}
        0x00001cc6:    2042        B       MOVS     r0,#0x42
        0x00001cc8:    5c20         \      LDRB     r0,[r4,r0]
        0x00001cca:    6320         c      STR      r0,[r4,#0x30]
        0x00001ccc:    e062        b.      B        0x1d94 ; USBD_StandardRequest + 424
        0x00001cce:    2042        B       MOVS     r0,#0x42
        0x00001cd0:    5c20         \      LDRB     r0,[r4,r0]
        0x00001cd2:    2801        .(      CMP      r0,#1
        0x00001cd4:    d05c        \.      BEQ      0x1d90 ; USBD_StandardRequest + 420
        0x00001cd6:    2800        .(      CMP      r0,#0
        0x00001cd8:    d15c        \.      BNE      0x1d94 ; USBD_StandardRequest + 424
        0x00001cda:    2044        D       MOVS     r0,#0x44
        0x00001cdc:    5c20         \      LDRB     r0,[r4,r0]
        0x00001cde:    220f        ."      MOVS     r2,#0xf
        0x00001ce0:    4010        .@      ANDS     r0,r0,r2
        0x00001ce2:    2307        .#      MOVS     r3,#7
        0x00001ce4:    4629        )F      MOV      r1,r5
        0x00001ce6:    1e5b        [.      SUBS     r3,r3,#1
        0x00001ce8:    d054        T.      BEQ      0x1d94 ; USBD_StandardRequest + 424
        0x00001cea:    68cc        .h      LDR      r4,[r1,#0xc]
        0x00001cec:    3110        .1      ADDS     r1,r1,#0x10
        0x00001cee:    4014        .@      ANDS     r4,r4,r2
        0x00001cf0:    4284        .B      CMP      r4,r0
        0x00001cf2:    d1f8        ..      BNE      0x1ce6 ; USBD_StandardRequest + 250
        0x00001cf4:    6808        .h      LDR      r0,[r1,#0]
        0x00001cf6:    2202        ."      MOVS     r2,#2
        0x00001cf8:    4302        .C      ORRS     r2,r2,r0
        0x00001cfa:    600a        .`      STR      r2,[r1,#0]
        0x00001cfc:    e04a        J.      B        0x1d94 ; USBD_StandardRequest + 424
        0x00001cfe:    2042        B       MOVS     r0,#0x42
        0x00001d00:    5c20         \      LDRB     r0,[r4,r0]
        0x00001d02:    62a0        .b      STR      r0,[r4,#0x28]
        0x00001d04:    6920         i      LDR      r0,[r4,#0x10]
        0x00001d06:    e003        ..      B        0x1d10 ; USBD_StandardRequest + 292
        0x00001d08:    2042        B       MOVS     r0,#0x42
        0x00001d0a:    5c20         \      LDRB     r0,[r4,r0]
        0x00001d0c:    62e0        .b      STR      r0,[r4,#0x2c]
        0x00001d0e:    68e0        .h      LDR      r0,[r4,#0xc]
        0x00001d10:    2800        .(      CMP      r0,#0
        0x00001d12:    d03f        ?.      BEQ      0x1d94 ; USBD_StandardRequest + 424
        0x00001d14:    4780        .G      BLX      r0
        0x00001d16:    e03d        =.      B        0x1d94 ; USBD_StandardRequest + 424
        0x00001d18:    6aa2        .j      LDR      r2,[r4,#0x28]
        0x00001d1a:    493b        ;I      LDR      r1,[pc,#236] ; [0x1e08] = 0x4006001c
        0x00001d1c:    684b        Kh      LDR      r3,[r1,#4]
        0x00001d1e:    185b        [.      ADDS     r3,r3,r1
        0x00001d20:    26e4        .&      MOVS     r6,#0xe4
        0x00001d22:    559a        .U      STRB     r2,[r3,r6]
        0x00001d24:    69ca        .i      LDR      r2,[r1,#0x1c]
        0x00001d26:    2380        .#      MOVS     r3,#0x80
        0x00001d28:    431a        .C      ORRS     r2,r2,r3
        0x00001d2a:    61ca        .a      STR      r2,[r1,#0x1c]
        0x00001d2c:    618d        .a      STR      r5,[r1,#0x18]
        0x00001d2e:    68ca        .h      LDR      r2,[r1,#0xc]
        0x00001d30:    431a        .C      ORRS     r2,r2,r3
        0x00001d32:    60ca        .`      STR      r2,[r1,#0xc]
        0x00001d34:    6088        .`      STR      r0,[r1,#8]
        0x00001d36:    63a5        .c      STR      r5,[r4,#0x38]
        0x00001d38:    63e5        .c      STR      r5,[r4,#0x3c]
        0x00001d3a:    6365        ec      STR      r5,[r4,#0x34]
        0x00001d3c:    4833        3H      LDR      r0,[pc,#204] ; [0x1e0c] = 0x20000058
        0x00001d3e:    6800        .h      LDR      r0,[r0,#0]
        0x00001d40:    e007        ..      B        0x1d52 ; USBD_StandardRequest + 358
        0x00001d42:    f7fffe05    ....    BL       USBD_GetDescriptor ; 0x1950
        0x00001d46:    63a5        .c      STR      r5,[r4,#0x38]
        0x00001d48:    63e5        .c      STR      r5,[r4,#0x3c]
        0x00001d4a:    6365        ec      STR      r5,[r4,#0x34]
        0x00001d4c:    482f        /H      LDR      r0,[pc,#188] ; [0x1e0c] = 0x20000058
        0x00001d4e:    6800        .h      LDR      r0,[r0,#0]
        0x00001d50:    492d        -I      LDR      r1,[pc,#180] ; [0x1e08] = 0x4006001c
        0x00001d52:    6188        .a      STR      r0,[r1,#0x18]
        0x00001d54:    bdf8        ..      POP      {r3-r7,pc}
        0x00001d56:    6ae1        .j      LDR      r1,[r4,#0x2c]
        0x00001d58:    4a2b        +J      LDR      r2,[pc,#172] ; [0x1e08] = 0x4006001c
        0x00001d5a:    6853        Sh      LDR      r3,[r2,#4]
        0x00001d5c:    189b        ..      ADDS     r3,r3,r2
        0x00001d5e:    26e4        .&      MOVS     r6,#0xe4
        0x00001d60:    5599        .U      STRB     r1,[r3,r6]
        0x00001d62:    68d1        .h      LDR      r1,[r2,#0xc]
        0x00001d64:    2380        .#      MOVS     r3,#0x80
        0x00001d66:    430b        .C      ORRS     r3,r3,r1
        0x00001d68:    60d3        .`      STR      r3,[r2,#0xc]
        0x00001d6a:    6090        .`      STR      r0,[r2,#8]
        0x00001d6c:    63a5        .c      STR      r5,[r4,#0x38]
        0x00001d6e:    63e5        .c      STR      r5,[r4,#0x3c]
        0x00001d70:    6365        ec      STR      r5,[r4,#0x34]
        0x00001d72:    4826        &H      LDR      r0,[pc,#152] ; [0x1e0c] = 0x20000058
        0x00001d74:    6800        .h      LDR      r0,[r0,#0]
        0x00001d76:    6190        .a      STR      r0,[r2,#0x18]
        0x00001d78:    bdf8        ..      POP      {r3-r7,pc}
        0x00001d7a:    4823        #H      LDR      r0,[pc,#140] ; [0x1e08] = 0x4006001c
        0x00001d7c:    6901        .i      LDR      r1,[r0,#0x10]
        0x00001d7e:    2202        ."      MOVS     r2,#2
        0x00001d80:    4311        .C      ORRS     r1,r1,r2
        0x00001d82:    6101        .a      STR      r1,[r0,#0x10]
        0x00001d84:    6a01        .j      LDR      r1,[r0,#0x20]
        0x00001d86:    4311        .C      ORRS     r1,r1,r2
        0x00001d88:    6201        .b      STR      r1,[r0,#0x20]
        0x00001d8a:    bdf8        ..      POP      {r3-r7,pc}
        0x00001d8c:    2000        .       MOVS     r0,#0
        0x00001d8e:    e000        ..      B        0x1d92 ; USBD_StandardRequest + 422
        0x00001d90:    2001        .       MOVS     r0,#1
        0x00001d92:    7020         p      STRB     r0,[r4,#0]
        0x00001d94:    68e8        .h      LDR      r0,[r5,#0xc]
        0x00001d96:    2180        .!      MOVS     r1,#0x80
        0x00001d98:    4301        .C      ORRS     r1,r1,r0
        0x00001d9a:    60e9        .`      STR      r1,[r5,#0xc]
        0x00001d9c:    2000        .       MOVS     r0,#0
        0x00001d9e:    60a8        .`      STR      r0,[r5,#8]
        0x00001da0:    bdf8        ..      POP      {r3-r7,pc}
        0x00001da2:    2044        D       MOVS     r0,#0x44
        0x00001da4:    5c21        !\      LDRB     r1,[r4,r0]
        0x00001da6:    200f        .       MOVS     r0,#0xf
        0x00001da8:    9000        ..      STR      r0,[sp,#0]
        0x00001daa:    4001        .@      ANDS     r1,r1,r0
        0x00001dac:    2600        .&      MOVS     r6,#0
        0x00001dae:    2307        .#      MOVS     r3,#7
        0x00001db0:    4638        8F      MOV      r0,r7
        0x00001db2:    1e5b        [.      SUBS     r3,r3,#1
        0x00001db4:    463d        =F      MOV      r5,r7
        0x00001db6:    d00c        ..      BEQ      0x1dd2 ; USBD_StandardRequest + 486
        0x00001db8:    1c75        u.      ADDS     r5,r6,#1
        0x00001dba:    68c2        .h      LDR      r2,[r0,#0xc]
        0x00001dbc:    3010        .0      ADDS     r0,r0,#0x10
        0x00001dbe:    9f00        ..      LDR      r7,[sp,#0]
        0x00001dc0:    403a        :@      ANDS     r2,r2,r7
        0x00001dc2:    0136        6.      LSLS     r6,r6,#4
        0x00001dc4:    4f10        .O      LDR      r7,[pc,#64] ; [0x1e08] = 0x4006001c
        0x00001dc6:    19bf        ..      ADDS     r7,r7,r6
        0x00001dc8:    370c        .7      ADDS     r7,r7,#0xc
        0x00001dca:    428a        .B      CMP      r2,r1
        0x00001dcc:    462e        .F      MOV      r6,r5
        0x00001dce:    4605        .F      MOV      r5,r0
        0x00001dd0:    d1ef        ..      BNE      0x1db2 ; USBD_StandardRequest + 454
        0x00001dd2:    6828        (h      LDR      r0,[r5,#0]
        0x00001dd4:    0780        ..      LSLS     r0,r0,#30
        0x00001dd6:    0fc5        ..      LSRS     r5,r0,#31
        0x00001dd8:    4f0b        .O      LDR      r7,[pc,#44] ; [0x1e08] = 0x4006001c
        0x00001dda:    6878        xh      LDR      r0,[r7,#4]
        0x00001ddc:    1838        8.      ADDS     r0,r7,r0
        0x00001dde:    21e4        .!      MOVS     r1,#0xe4
        0x00001de0:    5445        ET      STRB     r5,[r0,r1]
        0x00001de2:    6878        xh      LDR      r0,[r7,#4]
        0x00001de4:    1838        8.      ADDS     r0,r7,r0
        0x00001de6:    21e5        .!      MOVS     r1,#0xe5
        0x00001de8:    2200        ."      MOVS     r2,#0
        0x00001dea:    5442        BT      STRB     r2,[r0,r1]
        0x00001dec:    68f8        .h      LDR      r0,[r7,#0xc]
        0x00001dee:    2180        .!      MOVS     r1,#0x80
        0x00001df0:    4301        .C      ORRS     r1,r1,r0
        0x00001df2:    60f9        .`      STR      r1,[r7,#0xc]
        0x00001df4:    2002        .       MOVS     r0,#2
        0x00001df6:    60b8        .`      STR      r0,[r7,#8]
        0x00001df8:    63a2        .c      STR      r2,[r4,#0x38]
        0x00001dfa:    63e2        .c      STR      r2,[r4,#0x3c]
        0x00001dfc:    6362        bc      STR      r2,[r4,#0x34]
        0x00001dfe:    4803        .H      LDR      r0,[pc,#12] ; [0x1e0c] = 0x20000058
        0x00001e00:    6800        .h      LDR      r0,[r0,#0]
        0x00001e02:    61b8        .a      STR      r0,[r7,#0x18]
        0x00001e04:    bdf8        ..      POP      {r3-r7,pc}
        0x00001e06:    46c0        .F      MOV      r8,r8
    $d.14
    __arm_cp.5_1
        0x00001e08:    4006001c    ...@    DCD    1074135068
    __arm_cp.5_2
        0x00001e0c:    20000058    X..     DCD    536871000
    $t.25
    USBD_SwReset
        0x00001e10:    b5b0        ..      PUSH     {r4,r5,r7,lr}
        0x00001e12:    490b        .I      LDR      r1,[pc,#44] ; [0x1e40] = 0x20000068
        0x00001e14:    2000        .       MOVS     r0,#0
        0x00001e16:    6248        Hb      STR      r0,[r1,#0x24]
        0x00001e18:    6388        .c      STR      r0,[r1,#0x38]
        0x00001e1a:    6408        .d      STR      r0,[r1,#0x40]
        0x00001e1c:    6448        Hd      STR      r0,[r1,#0x44]
        0x00001e1e:    6208        .b      STR      r0,[r1,#0x20]
        0x00001e20:    6348        Hc      STR      r0,[r1,#0x34]
        0x00001e22:    6148        Ha      STR      r0,[r1,#0x14]
        0x00001e24:    63c8        .c      STR      r0,[r1,#0x3c]
        0x00001e26:    2208        ."      MOVS     r2,#8
        0x00001e28:    4906        .I      LDR      r1,[pc,#24] ; [0x1e44] = 0x40060008
        0x00001e2a:    2a68        h*      CMP      r2,#0x68
        0x00001e2c:    d006        ..      BEQ      0x1e3c ; USBD_SwReset + 44
        0x00001e2e:    188b        ..      ADDS     r3,r1,r2
        0x00001e30:    699c        .i      LDR      r4,[r3,#0x18]
        0x00001e32:    2580        .%      MOVS     r5,#0x80
        0x00001e34:    43ac        .C      BICS     r4,r4,r5
        0x00001e36:    619c        .a      STR      r4,[r3,#0x18]
        0x00001e38:    3210        .2      ADDS     r2,r2,#0x10
        0x00001e3a:    e7f6        ..      B        0x1e2a ; USBD_SwReset + 26
        0x00001e3c:    6008        .`      STR      r0,[r1,#0]
        0x00001e3e:    bdb0        ..      POP      {r4,r5,r7,pc}
    $d.26
    __arm_cp.11_0
        0x00001e40:    20000068    h..     DCD    536871016
    __arm_cp.11_1
        0x00001e44:    40060008    ...@    DCD    1074135048
    $t.6
    Update_DataFlash_ID_From_PC
        0x00001e48:    b5f8        ..      PUSH     {r3-r7,lr}
        0x00001e4a:    460c        .F      MOV      r4,r1
        0x00001e4c:    4605        .F      MOV      r5,r0
        0x00001e4e:    4fad        .O      LDR      r7,[pc,#692] ; [0x2104] = 0x20000168
        0x00001e50:    7e38        8~      LDRB     r0,[r7,#0x18]
        0x00001e52:    42a8        .B      CMP      r0,r5
        0x00001e54:    d101        ..      BNE      0x1e5a ; Update_DataFlash_ID_From_PC + 18
        0x00001e56:    2500        .%      MOVS     r5,#0
        0x00001e58:    e00b        ..      B        0x1e72 ; Update_DataFlash_ID_From_PC + 42
        0x00001e5a:    2600        .&      MOVS     r6,#0
        0x00001e5c:    4630        0F      MOV      r0,r6
        0x00001e5e:    4629        )F      MOV      r1,r5
        0x00001e60:    f7fff8aa    ....    BL       SIM_EEPROM_WRITE ; 0xfb8
        0x00001e64:    4630        0F      MOV      r0,r6
        0x00001e66:    f7fff897    ....    BL       SIM_EEPROM_READ ; 0xf98
        0x00001e6a:    7638        8v      STRB     r0,[r7,#0x18]
        0x00001e6c:    1b45        E.      SUBS     r5,r0,r5
        0x00001e6e:    1e68        h.      SUBS     r0,r5,#1
        0x00001e70:    4185        .A      SBCS     r5,r5,r0
        0x00001e72:    7e78        x~      LDRB     r0,[r7,#0x19]
        0x00001e74:    42a0        .B      CMP      r0,r4
        0x00001e76:    d00b        ..      BEQ      0x1e90 ; Update_DataFlash_ID_From_PC + 72
        0x00001e78:    2601        .&      MOVS     r6,#1
        0x00001e7a:    4630        0F      MOV      r0,r6
        0x00001e7c:    4621        !F      MOV      r1,r4
        0x00001e7e:    f7fff89b    ....    BL       SIM_EEPROM_WRITE ; 0xfb8
        0x00001e82:    4630        0F      MOV      r0,r6
        0x00001e84:    f7fff888    ....    BL       SIM_EEPROM_READ ; 0xf98
        0x00001e88:    7678        xv      STRB     r0,[r7,#0x19]
        0x00001e8a:    42a0        .B      CMP      r0,r4
        0x00001e8c:    d000        ..      BEQ      0x1e90 ; Update_DataFlash_ID_From_PC + 72
        0x00001e8e:    2502        .%      MOVS     r5,#2
        0x00001e90:    4628        (F      MOV      r0,r5
        0x00001e92:    bdf8        ..      POP      {r3-r7,pc}
    Update_DataFlash_InputType_From_PC
        0x00001e94:    b5fe        ..      PUSH     {r1-r7,lr}
        0x00001e96:    460c        .F      MOV      r4,r1
        0x00001e98:    4605        .F      MOV      r5,r0
        0x00001e9a:    4f9a        .O      LDR      r7,[pc,#616] ; [0x2104] = 0x20000168
        0x00001e9c:    7eb8        .~      LDRB     r0,[r7,#0x1a]
        0x00001e9e:    42a8        .B      CMP      r0,r5
        0x00001ea0:    d101        ..      BNE      0x1ea6 ; Update_DataFlash_InputType_From_PC + 18
        0x00001ea2:    2500        .%      MOVS     r5,#0
        0x00001ea4:    e00b        ..      B        0x1ebe ; Update_DataFlash_InputType_From_PC + 42
        0x00001ea6:    2602        .&      MOVS     r6,#2
        0x00001ea8:    4630        0F      MOV      r0,r6
        0x00001eaa:    4629        )F      MOV      r1,r5
        0x00001eac:    f7fff884    ....    BL       SIM_EEPROM_WRITE ; 0xfb8
        0x00001eb0:    4630        0F      MOV      r0,r6
        0x00001eb2:    f7fff871    ..q.    BL       SIM_EEPROM_READ ; 0xf98
        0x00001eb6:    76b8        .v      STRB     r0,[r7,#0x1a]
        0x00001eb8:    1b45        E.      SUBS     r5,r0,r5
        0x00001eba:    1e68        h.      SUBS     r0,r5,#1
        0x00001ebc:    4185        .A      SBCS     r5,r5,r0
        0x00001ebe:    69f8        .i      LDR      r0,[r7,#0x1c]
        0x00001ec0:    42a0        .B      CMP      r0,r4
        0x00001ec2:    d029        ).      BEQ      0x1f18 ; Update_DataFlash_InputType_From_PC + 132
        0x00001ec4:    0e21        !.      LSRS     r1,r4,#24
        0x00001ec6:    2004        .       MOVS     r0,#4
        0x00001ec8:    9002        ..      STR      r0,[sp,#8]
        0x00001eca:    4e14        .N      LDR      r6,[pc,#80] ; [0x1f1c] = 0xfb9
        0x00001ecc:    47b0        .G      BLX      r6
        0x00001ece:    0c20         .      LSRS     r0,r4,#16
        0x00001ed0:    b2c1        ..      UXTB     r1,r0
        0x00001ed2:    2705        .'      MOVS     r7,#5
        0x00001ed4:    4638        8F      MOV      r0,r7
        0x00001ed6:    47b0        .G      BLX      r6
        0x00001ed8:    0a20         .      LSRS     r0,r4,#8
        0x00001eda:    b2c1        ..      UXTB     r1,r0
        0x00001edc:    2006        .       MOVS     r0,#6
        0x00001ede:    9001        ..      STR      r0,[sp,#4]
        0x00001ee0:    47b0        .G      BLX      r6
        0x00001ee2:    b2e1        ..      UXTB     r1,r4
        0x00001ee4:    2007        .       MOVS     r0,#7
        0x00001ee6:    9000        ..      STR      r0,[sp,#0]
        0x00001ee8:    47b0        .G      BLX      r6
        0x00001eea:    490d        .I      LDR      r1,[pc,#52] ; [0x1f20] = 0xf99
        0x00001eec:    9802        ..      LDR      r0,[sp,#8]
        0x00001eee:    4788        .G      BLX      r1
        0x00001ef0:    4606        .F      MOV      r6,r0
        0x00001ef2:    4638        8F      MOV      r0,r7
        0x00001ef4:    490a        .I      LDR      r1,[pc,#40] ; [0x1f20] = 0xf99
        0x00001ef6:    4788        .G      BLX      r1
        0x00001ef8:    0631        1.      LSLS     r1,r6,#24
        0x00001efa:    0400        ..      LSLS     r0,r0,#16
        0x00001efc:    1846        F.      ADDS     r6,r0,r1
        0x00001efe:    9801        ..      LDR      r0,[sp,#4]
        0x00001f00:    4f07        .O      LDR      r7,[pc,#28] ; [0x1f20] = 0xf99
        0x00001f02:    47b8        .G      BLX      r7
        0x00001f04:    0200        ..      LSLS     r0,r0,#8
        0x00001f06:    1836        6.      ADDS     r6,r6,r0
        0x00001f08:    9800        ..      LDR      r0,[sp,#0]
        0x00001f0a:    47b8        .G      BLX      r7
        0x00001f0c:    1830        0.      ADDS     r0,r6,r0
        0x00001f0e:    497d        }I      LDR      r1,[pc,#500] ; [0x2104] = 0x20000168
        0x00001f10:    61c8        .a      STR      r0,[r1,#0x1c]
        0x00001f12:    42a0        .B      CMP      r0,r4
        0x00001f14:    d000        ..      BEQ      0x1f18 ; Update_DataFlash_InputType_From_PC + 132
        0x00001f16:    2502        .%      MOVS     r5,#2
        0x00001f18:    4628        (F      MOV      r0,r5
        0x00001f1a:    bdfe        ..      POP      {r1-r7,pc}
    $d.5
    __arm_cp.2_1
        0x00001f1c:    00000fb9    ....    DCD    4025
    __arm_cp.2_2
        0x00001f20:    00000f99    ....    DCD    3993
    $t.10
    Update_DataFlash_ModbusConfig_From_PC
        0x00001f24:    b5fe        ..      PUSH     {r1-r7,lr}
        0x00001f26:    461f        .F      MOV      r7,r3
        0x00001f28:    9201        ..      STR      r2,[sp,#4]
        0x00001f2a:    460d        .F      MOV      r5,r1
        0x00001f2c:    4602        .F      MOV      r2,r0
        0x00001f2e:    2620         &      MOVS     r6,#0x20
        0x00001f30:    4974        tI      LDR      r1,[pc,#464] ; [0x2104] = 0x20000168
        0x00001f32:    5d88        .]      LDRB     r0,[r1,r6]
        0x00001f34:    42a8        .B      CMP      r0,r5
        0x00001f36:    9202        ..      STR      r2,[sp,#8]
        0x00001f38:    d101        ..      BNE      0x1f3e ; Update_DataFlash_ModbusConfig_From_PC + 26
        0x00001f3a:    2500        .%      MOVS     r5,#0
        0x00001f3c:    e00d        ..      B        0x1f5a ; Update_DataFlash_ModbusConfig_From_PC + 54
        0x00001f3e:    2408        .$      MOVS     r4,#8
        0x00001f40:    4620         F      MOV      r0,r4
        0x00001f42:    4629        )F      MOV      r1,r5
        0x00001f44:    f7fff838    ..8.    BL       SIM_EEPROM_WRITE ; 0xfb8
        0x00001f48:    4620         F      MOV      r0,r4
        0x00001f4a:    f7fff825    ..%.    BL       SIM_EEPROM_READ ; 0xf98
        0x00001f4e:    9a02        ..      LDR      r2,[sp,#8]
        0x00001f50:    496c        lI      LDR      r1,[pc,#432] ; [0x2104] = 0x20000168
        0x00001f52:    5588        .U      STRB     r0,[r1,r6]
        0x00001f54:    1b45        E.      SUBS     r5,r0,r5
        0x00001f56:    1e68        h.      SUBS     r0,r5,#1
        0x00001f58:    4185        .A      SBCS     r5,r5,r0
        0x00001f5a:    2623        #&      MOVS     r6,#0x23
        0x00001f5c:    5d88        .]      LDRB     r0,[r1,r6]
        0x00001f5e:    42b8        .B      CMP      r0,r7
        0x00001f60:    d00d        ..      BEQ      0x1f7e ; Update_DataFlash_ModbusConfig_From_PC + 90
        0x00001f62:    240b        .$      MOVS     r4,#0xb
        0x00001f64:    4620         F      MOV      r0,r4
        0x00001f66:    4639        9F      MOV      r1,r7
        0x00001f68:    f7fff826    ..&.    BL       SIM_EEPROM_WRITE ; 0xfb8
        0x00001f6c:    4620         F      MOV      r0,r4
        0x00001f6e:    f7fff813    ....    BL       SIM_EEPROM_READ ; 0xf98
        0x00001f72:    4964        dI      LDR      r1,[pc,#400] ; [0x2104] = 0x20000168
        0x00001f74:    5588        .U      STRB     r0,[r1,r6]
        0x00001f76:    42b8        .B      CMP      r0,r7
        0x00001f78:    d000        ..      BEQ      0x1f7c ; Update_DataFlash_ModbusConfig_From_PC + 88
        0x00001f7a:    2502        .%      MOVS     r5,#2
        0x00001f7c:    9a02        ..      LDR      r2,[sp,#8]
        0x00001f7e:    9f08        ..      LDR      r7,[sp,#0x20]
        0x00001f80:    2622        "&      MOVS     r6,#0x22
        0x00001f82:    5d88        .]      LDRB     r0,[r1,r6]
        0x00001f84:    4290        .B      CMP      r0,r2
        0x00001f86:    d00d        ..      BEQ      0x1fa4 ; Update_DataFlash_ModbusConfig_From_PC + 128
        0x00001f88:    240a        .$      MOVS     r4,#0xa
        0x00001f8a:    4620         F      MOV      r0,r4
        0x00001f8c:    4611        .F      MOV      r1,r2
        0x00001f8e:    f7fff813    ....    BL       SIM_EEPROM_WRITE ; 0xfb8
        0x00001f92:    4620         F      MOV      r0,r4
        0x00001f94:    f7fff800    ....    BL       SIM_EEPROM_READ ; 0xf98
        0x00001f98:    495a        ZI      LDR      r1,[pc,#360] ; [0x2104] = 0x20000168
        0x00001f9a:    5588        .U      STRB     r0,[r1,r6]
        0x00001f9c:    9a02        ..      LDR      r2,[sp,#8]
        0x00001f9e:    4290        .B      CMP      r0,r2
        0x00001fa0:    d000        ..      BEQ      0x1fa4 ; Update_DataFlash_ModbusConfig_From_PC + 128
        0x00001fa2:    2503        .%      MOVS     r5,#3
        0x00001fa4:    8c88        ..      LDRH     r0,[r1,#0x24]
        0x00001fa6:    42b8        .B      CMP      r0,r7
        0x00001fa8:    d014        ..      BEQ      0x1fd4 ; Update_DataFlash_ModbusConfig_From_PC + 176
        0x00001faa:    0a39        9.      LSRS     r1,r7,#8
        0x00001fac:    240c        .$      MOVS     r4,#0xc
        0x00001fae:    4620         F      MOV      r0,r4
        0x00001fb0:    f7fff802    ....    BL       SIM_EEPROM_WRITE ; 0xfb8
        0x00001fb4:    b2f9        ..      UXTB     r1,r7
        0x00001fb6:    260d        .&      MOVS     r6,#0xd
        0x00001fb8:    4630        0F      MOV      r0,r6
        0x00001fba:    f7fefffd    ....    BL       SIM_EEPROM_WRITE ; 0xfb8
        0x00001fbe:    4620         F      MOV      r0,r4
        0x00001fc0:    f7feffea    ....    BL       SIM_EEPROM_READ ; 0xf98
        0x00001fc4:    4604        .F      MOV      r4,r0
        0x00001fc6:    4630        0F      MOV      r0,r6
        0x00001fc8:    f7feffe6    ....    BL       SIM_EEPROM_READ ; 0xf98
        0x00001fcc:    0221        !.      LSLS     r1,r4,#8
        0x00001fce:    1808        ..      ADDS     r0,r1,r0
        0x00001fd0:    494c        LI      LDR      r1,[pc,#304] ; [0x2104] = 0x20000168
        0x00001fd2:    8488        ..      STRH     r0,[r1,#0x24]
        0x00001fd4:    2621        !&      MOVS     r6,#0x21
        0x00001fd6:    5d88        .]      LDRB     r0,[r1,r6]
        0x00001fd8:    9f01        ..      LDR      r7,[sp,#4]
        0x00001fda:    42b8        .B      CMP      r0,r7
        0x00001fdc:    d00e        ..      BEQ      0x1ffc ; Update_DataFlash_ModbusConfig_From_PC + 216
        0x00001fde:    2409        .$      MOVS     r4,#9
        0x00001fe0:    4620         F      MOV      r0,r4
        0x00001fe2:    9502        ..      STR      r5,[sp,#8]
        0x00001fe4:    460d        .F      MOV      r5,r1
        0x00001fe6:    4639        9F      MOV      r1,r7
        0x00001fe8:    f7feffe6    ....    BL       SIM_EEPROM_WRITE ; 0xfb8
        0x00001fec:    4620         F      MOV      r0,r4
        0x00001fee:    f7feffd3    ....    BL       SIM_EEPROM_READ ; 0xf98
        0x00001ff2:    55a8        .U      STRB     r0,[r5,r6]
        0x00001ff4:    9d02        ..      LDR      r5,[sp,#8]
        0x00001ff6:    42b8        .B      CMP      r0,r7
        0x00001ff8:    d000        ..      BEQ      0x1ffc ; Update_DataFlash_ModbusConfig_From_PC + 216
        0x00001ffa:    2505        .%      MOVS     r5,#5
        0x00001ffc:    4628        (F      MOV      r0,r5
        0x00001ffe:    bdfe        ..      POP      {r1-r7,pc}
    Update_DataFlash_RFConfig_From_PC
        0x00002000:    b5fe        ..      PUSH     {r1-r7,lr}
        0x00002002:    9301        ..      STR      r3,[sp,#4]
        0x00002004:    9200        ..      STR      r2,[sp,#0]
        0x00002006:    460f        .F      MOV      r7,r1
        0x00002008:    4604        .F      MOV      r4,r0
        0x0000200a:    2626        &&      MOVS     r6,#0x26
        0x0000200c:    493d        =I      LDR      r1,[pc,#244] ; [0x2104] = 0x20000168
        0x0000200e:    5d88        .]      LDRB     r0,[r1,r6]
        0x00002010:    42a0        .B      CMP      r0,r4
        0x00002012:    d102        ..      BNE      0x201a ; Update_DataFlash_RFConfig_From_PC + 26
        0x00002014:    2000        .       MOVS     r0,#0
        0x00002016:    9002        ..      STR      r0,[sp,#8]
        0x00002018:    e00d        ..      B        0x2036 ; Update_DataFlash_RFConfig_From_PC + 54
        0x0000201a:    250e        .%      MOVS     r5,#0xe
        0x0000201c:    4628        (F      MOV      r0,r5
        0x0000201e:    4621        !F      MOV      r1,r4
        0x00002020:    f7feffca    ....    BL       SIM_EEPROM_WRITE ; 0xfb8
        0x00002024:    4628        (F      MOV      r0,r5
        0x00002026:    f7feffb7    ....    BL       SIM_EEPROM_READ ; 0xf98
        0x0000202a:    4936        6I      LDR      r1,[pc,#216] ; [0x2104] = 0x20000168
        0x0000202c:    5588        .U      STRB     r0,[r1,r6]
        0x0000202e:    1b02        ..      SUBS     r2,r0,r4
        0x00002030:    1e50        P.      SUBS     r0,r2,#1
        0x00002032:    4182        .A      SBCS     r2,r2,r0
        0x00002034:    9202        ..      STR      r2,[sp,#8]
        0x00002036:    2627        '&      MOVS     r6,#0x27
        0x00002038:    5d88        .]      LDRB     r0,[r1,r6]
        0x0000203a:    42b8        .B      CMP      r0,r7
        0x0000203c:    9c01        ..      LDR      r4,[sp,#4]
        0x0000203e:    d00d        ..      BEQ      0x205c ; Update_DataFlash_RFConfig_From_PC + 92
        0x00002040:    250f        .%      MOVS     r5,#0xf
        0x00002042:    4628        (F      MOV      r0,r5
        0x00002044:    4639        9F      MOV      r1,r7
        0x00002046:    f7feffb7    ....    BL       SIM_EEPROM_WRITE ; 0xfb8
        0x0000204a:    4628        (F      MOV      r0,r5
        0x0000204c:    f7feffa4    ....    BL       SIM_EEPROM_READ ; 0xf98
        0x00002050:    492c        ,I      LDR      r1,[pc,#176] ; [0x2104] = 0x20000168
        0x00002052:    5588        .U      STRB     r0,[r1,r6]
        0x00002054:    42b8        .B      CMP      r0,r7
        0x00002056:    d001        ..      BEQ      0x205c ; Update_DataFlash_RFConfig_From_PC + 92
        0x00002058:    2002        .       MOVS     r0,#2
        0x0000205a:    9002        ..      STR      r0,[sp,#8]
        0x0000205c:    9f00        ..      LDR      r7,[sp,#0]
        0x0000205e:    2628        (&      MOVS     r6,#0x28
        0x00002060:    5d88        .]      LDRB     r0,[r1,r6]
        0x00002062:    42b8        .B      CMP      r0,r7
        0x00002064:    d00d        ..      BEQ      0x2082 ; Update_DataFlash_RFConfig_From_PC + 130
        0x00002066:    2510        .%      MOVS     r5,#0x10
        0x00002068:    4628        (F      MOV      r0,r5
        0x0000206a:    4639        9F      MOV      r1,r7
        0x0000206c:    f7feffa4    ....    BL       SIM_EEPROM_WRITE ; 0xfb8
        0x00002070:    4628        (F      MOV      r0,r5
        0x00002072:    f7feff91    ....    BL       SIM_EEPROM_READ ; 0xf98
        0x00002076:    4923        #I      LDR      r1,[pc,#140] ; [0x2104] = 0x20000168
        0x00002078:    5588        .U      STRB     r0,[r1,r6]
        0x0000207a:    42b8        .B      CMP      r0,r7
        0x0000207c:    d001        ..      BEQ      0x2082 ; Update_DataFlash_RFConfig_From_PC + 130
        0x0000207e:    2003        .       MOVS     r0,#3
        0x00002080:    9002        ..      STR      r0,[sp,#8]
        0x00002082:    9e08        ..      LDR      r6,[sp,#0x20]
        0x00002084:    2729        )'      MOVS     r7,#0x29
        0x00002086:    5dc8        .]      LDRB     r0,[r1,r7]
        0x00002088:    42a0        .B      CMP      r0,r4
        0x0000208a:    d00d        ..      BEQ      0x20a8 ; Update_DataFlash_RFConfig_From_PC + 168
        0x0000208c:    2511        .%      MOVS     r5,#0x11
        0x0000208e:    4628        (F      MOV      r0,r5
        0x00002090:    4621        !F      MOV      r1,r4
        0x00002092:    f7feff91    ....    BL       SIM_EEPROM_WRITE ; 0xfb8
        0x00002096:    4628        (F      MOV      r0,r5
        0x00002098:    f7feff7e    ..~.    BL       SIM_EEPROM_READ ; 0xf98
        0x0000209c:    4919        .I      LDR      r1,[pc,#100] ; [0x2104] = 0x20000168
        0x0000209e:    55c8        .U      STRB     r0,[r1,r7]
        0x000020a0:    42a0        .B      CMP      r0,r4
        0x000020a2:    d001        ..      BEQ      0x20a8 ; Update_DataFlash_RFConfig_From_PC + 168
        0x000020a4:    2004        .       MOVS     r0,#4
        0x000020a6:    9002        ..      STR      r0,[sp,#8]
        0x000020a8:    9f09        ..      LDR      r7,[sp,#0x24]
        0x000020aa:    242a        *$      MOVS     r4,#0x2a
        0x000020ac:    5d08        .]      LDRB     r0,[r1,r4]
        0x000020ae:    42b0        .B      CMP      r0,r6
        0x000020b0:    d00d        ..      BEQ      0x20ce ; Update_DataFlash_RFConfig_From_PC + 206
        0x000020b2:    2512        .%      MOVS     r5,#0x12
        0x000020b4:    4628        (F      MOV      r0,r5
        0x000020b6:    4631        1F      MOV      r1,r6
        0x000020b8:    f7feff7e    ..~.    BL       SIM_EEPROM_WRITE ; 0xfb8
        0x000020bc:    4628        (F      MOV      r0,r5
        0x000020be:    f7feff6b    ..k.    BL       SIM_EEPROM_READ ; 0xf98
        0x000020c2:    4910        .I      LDR      r1,[pc,#64] ; [0x2104] = 0x20000168
        0x000020c4:    5508        .U      STRB     r0,[r1,r4]
        0x000020c6:    42b0        .B      CMP      r0,r6
        0x000020c8:    d001        ..      BEQ      0x20ce ; Update_DataFlash_RFConfig_From_PC + 206
        0x000020ca:    2005        .       MOVS     r0,#5
        0x000020cc:    9002        ..      STR      r0,[sp,#8]
        0x000020ce:    8d88        ..      LDRH     r0,[r1,#0x2c]
        0x000020d0:    42b8        .B      CMP      r0,r7
        0x000020d2:    d014        ..      BEQ      0x20fe ; Update_DataFlash_RFConfig_From_PC + 254
        0x000020d4:    460c        .F      MOV      r4,r1
        0x000020d6:    0a39        9.      LSRS     r1,r7,#8
        0x000020d8:    2513        .%      MOVS     r5,#0x13
        0x000020da:    4628        (F      MOV      r0,r5
        0x000020dc:    f7feff6c    ..l.    BL       SIM_EEPROM_WRITE ; 0xfb8
        0x000020e0:    b2f9        ..      UXTB     r1,r7
        0x000020e2:    2614        .&      MOVS     r6,#0x14
        0x000020e4:    4630        0F      MOV      r0,r6
        0x000020e6:    f7feff67    ..g.    BL       SIM_EEPROM_WRITE ; 0xfb8
        0x000020ea:    4628        (F      MOV      r0,r5
        0x000020ec:    f7feff54    ..T.    BL       SIM_EEPROM_READ ; 0xf98
        0x000020f0:    4605        .F      MOV      r5,r0
        0x000020f2:    4630        0F      MOV      r0,r6
        0x000020f4:    f7feff50    ..P.    BL       SIM_EEPROM_READ ; 0xf98
        0x000020f8:    0229        ).      LSLS     r1,r5,#8
        0x000020fa:    1808        ..      ADDS     r0,r1,r0
        0x000020fc:    85a0        ..      STRH     r0,[r4,#0x2c]
        0x000020fe:    9802        ..      LDR      r0,[sp,#8]
        0x00002100:    bdfe        ..      POP      {r1-r7,pc}
        0x00002102:    46c0        .F      MOV      r8,r8
    $d.9
    __arm_cp.4_0
        0x00002104:    20000168    h..     DCD    536871272
    $t.0
    UseModbus
        0x00002108:    b5e0        ..      PUSH     {r5-r7,lr}
        0x0000210a:    2000        .       MOVS     r0,#0
        0x0000210c:    9000        ..      STR      r0,[sp,#0]
        0x0000210e:    21e1        .!      MOVS     r1,#0xe1
        0x00002110:    024b        K.      LSLS     r3,r1,#9
        0x00002112:    2101        .!      MOVS     r1,#1
        0x00002114:    4602        .F      MOV      r2,r0
        0x00002116:    f000f853    ..S.    BL       eMBInit ; 0x21c0
        0x0000211a:    2800        .(      CMP      r0,#0
        0x0000211c:    d000        ..      BEQ      0x2120 ; UseModbus + 24
        0x0000211e:    bd8c        ..      POP      {r2,r3,r7,pc}
        0x00002120:    2001        .       MOVS     r0,#1
        0x00002122:    4a05        .J      LDR      r2,[pc,#20] ; [0x2138] = 0x2a38
        0x00002124:    2303        .#      MOVS     r3,#3
        0x00002126:    4601        .F      MOV      r1,r0
        0x00002128:    f000f8a8    ....    BL       eMBSetSlaveID ; 0x227c
        0x0000212c:    2800        .(      CMP      r0,#0
        0x0000212e:    d1f6        ..      BNE      0x211e ; UseModbus + 22
        0x00002130:    f000f83a    ..:.    BL       eMBEnable ; 0x21a8
        0x00002134:    bd8c        ..      POP      {r2,r3,r7,pc}
        0x00002136:    46c0        .F      MOV      r8,r8
    $d.1
    __arm_cp.0_0
        0x00002138:    00002a38    8*..    DCD    10808
    $t.0
    WDT_IRQHandler
        0x0000213c:    b510        ..      PUSH     {r4,lr}
        0x0000213e:    4c13        .L      LDR      r4,[pc,#76] ; [0x218c] = 0x20000060
        0x00002140:    6821        !h      LDR      r1,[r4,#0]
        0x00002142:    4813        .H      LDR      r0,[pc,#76] ; [0x2190] = 0x40004000
        0x00002144:    2900        .)      CMP      r1,#0
        0x00002146:    d105        ..      BNE      0x2154 ; WDT_IRQHandler + 24
        0x00002148:    6801        .h      LDR      r1,[r0,#0]
        0x0000214a:    2201        ."      MOVS     r2,#1
        0x0000214c:    430a        .C      ORRS     r2,r2,r1
        0x0000214e:    212c        ,!      MOVS     r1,#0x2c
        0x00002150:    438a        .C      BICS     r2,r2,r1
        0x00002152:    6002        .`      STR      r2,[r0,#0]
        0x00002154:    6801        .h      LDR      r1,[r0,#0]
        0x00002156:    0709        ..      LSLS     r1,r1,#28
        0x00002158:    d508        ..      BPL      0x216c ; WDT_IRQHandler + 48
        0x0000215a:    6801        .h      LDR      r1,[r0,#0]
        0x0000215c:    2208        ."      MOVS     r2,#8
        0x0000215e:    430a        .C      ORRS     r2,r2,r1
        0x00002160:    2124        $!      MOVS     r1,#0x24
        0x00002162:    438a        .C      BICS     r2,r2,r1
        0x00002164:    6002        .`      STR      r2,[r0,#0]
        0x00002166:    6821        !h      LDR      r1,[r4,#0]
        0x00002168:    1c49        I.      ADDS     r1,r1,#1
        0x0000216a:    6021        !`      STR      r1,[r4,#0]
        0x0000216c:    6801        .h      LDR      r1,[r0,#0]
        0x0000216e:    0689        ..      LSLS     r1,r1,#26
        0x00002170:    d50a        ..      BPL      0x2188 ; WDT_IRQHandler + 76
        0x00002172:    6801        .h      LDR      r1,[r0,#0]
        0x00002174:    2220         "      MOVS     r2,#0x20
        0x00002176:    430a        .C      ORRS     r2,r2,r1
        0x00002178:    210c        .!      MOVS     r1,#0xc
        0x0000217a:    438a        .C      BICS     r2,r2,r1
        0x0000217c:    6002        .`      STR      r2,[r0,#0]
        0x0000217e:    a005        ..      ADR      r0,{pc}+0x16 ; 0x2194
        0x00002180:    f000fc42    ..B.    BL       puts ; 0x2a08
        0x00002184:    2001        .       MOVS     r0,#1
        0x00002186:    6060        ``      STR      r0,[r4,#4]
        0x00002188:    bd10        ..      POP      {r4,pc}
        0x0000218a:    46c0        .F      MOV      r8,r8
    $d.1
    __arm_cp.0_0
        0x0000218c:    20000060    `..     DCD    536871008
    __arm_cp.0_1
        0x00002190:    40004000    .@.@    DCD    1073758208
        0x00002194:    54445720     WDT    DCD    1413764896
        0x00002198:    6b615720     Wak    DCD    1801541408
        0x0000219c:    70552065    e Up    DCD    1884627045
        0x000021a0:    21212121    !!!!    DCD    555819297
        0x000021a4:    00000020     ...    DCD    32
    $t.6
    eMBEnable
        0x000021a8:    b510        ..      PUSH     {r4,lr}
        0x000021aa:    4c1d        .L      LDR      r4,[pc,#116] ; [0x2220] = 0x20000054
        0x000021ac:    7820         x      LDRB     r0,[r4,#0]
        0x000021ae:    2801        .(      CMP      r0,#1
        0x000021b0:    d104        ..      BNE      0x21bc ; eMBEnable + 20
        0x000021b2:    f000f857    ..W.    BL       eMBRTUStart ; 0x2264
        0x000021b6:    2000        .       MOVS     r0,#0
        0x000021b8:    7020         p      STRB     r0,[r4,#0]
        0x000021ba:    bd10        ..      POP      {r4,pc}
        0x000021bc:    2006        .       MOVS     r0,#6
        0x000021be:    bd10        ..      POP      {r4,pc}
    eMBInit
        0x000021c0:    b5f8        ..      PUSH     {r3-r7,lr}
        0x000021c2:    4604        .F      MOV      r4,r0
        0x000021c4:    2002        .       MOVS     r0,#2
        0x000021c6:    2900        .)      CMP      r1,#0
        0x000021c8:    d006        ..      BEQ      0x21d8 ; eMBInit + 24
        0x000021ca:    08cd        ..      LSRS     r5,r1,#3
        0x000021cc:    2d1e        .-      CMP      r5,#0x1e
        0x000021ce:    d803        ..      BHI      0x21d8 ; eMBInit + 24
        0x000021d0:    4d0f        .M      LDR      r5,[pc,#60] ; [0x2210] = 0x200000e0
        0x000021d2:    7029        )p      STRB     r1,[r5,#0]
        0x000021d4:    2c00        .,      CMP      r4,#0
        0x000021d6:    d000        ..      BEQ      0x21da ; eMBInit + 26
        0x000021d8:    bdf8        ..      POP      {r3-r7,pc}
        0x000021da:    9c06        ..      LDR      r4,[sp,#0x18]
        0x000021dc:    480d        .H      LDR      r0,[pc,#52] ; [0x2214] = 0x24ad
        0x000021de:    4e0e        .N      LDR      r6,[pc,#56] ; [0x2218] = 0x24d5
        0x000021e0:    4f0e        .O      LDR      r7,[pc,#56] ; [0x221c] = 0x2459
        0x000021e2:    60af        .`      STR      r7,[r5,#8]
        0x000021e4:    60ee        .`      STR      r6,[r5,#0xc]
        0x000021e6:    6128        (a      STR      r0,[r5,#0x10]
        0x000021e8:    4608        .F      MOV      r0,r1
        0x000021ea:    4611        .F      MOV      r1,r2
        0x000021ec:    461a        .F      MOV      r2,r3
        0x000021ee:    4623        #F      MOV      r3,r4
        0x000021f0:    f000f818    ....    BL       eMBRTUInit ; 0x2224
        0x000021f4:    2800        .(      CMP      r0,#0
        0x000021f6:    d1ef        ..      BNE      0x21d8 ; eMBInit + 24
        0x000021f8:    f000f8ba    ....    BL       xMBPortEventInit ; 0x2370
        0x000021fc:    2800        .(      CMP      r0,#0
        0x000021fe:    d004        ..      BEQ      0x220a ; eMBInit + 74
        0x00002200:    4807        .H      LDR      r0,[pc,#28] ; [0x2220] = 0x20000054
        0x00002202:    2101        .!      MOVS     r1,#1
        0x00002204:    7001        .p      STRB     r1,[r0,#0]
        0x00002206:    2000        .       MOVS     r0,#0
        0x00002208:    bdf8        ..      POP      {r3-r7,pc}
        0x0000220a:    2003        .       MOVS     r0,#3
        0x0000220c:    bdf8        ..      POP      {r3-r7,pc}
        0x0000220e:    46c0        .F      MOV      r8,r8
    $d.1
    __arm_cp.0_0
        0x00002210:    200000e0    ...     DCD    536871136
    __arm_cp.0_1
        0x00002214:    000024ad    .$..    DCD    9389
    __arm_cp.0_2
        0x00002218:    000024d5    .$..    DCD    9429
    __arm_cp.0_3
        0x0000221c:    00002459    Y$..    DCD    9305
    __arm_cp.0_4
        0x00002220:    20000054    T..     DCD    536870996
    $t.0
    eMBRTUInit
        0x00002224:    b510        ..      PUSH     {r4,lr}
        0x00002226:    4614        .F      MOV      r4,r2
        0x00002228:    4608        .F      MOV      r0,r1
        0x0000222a:    b672        r.      CPSID    i
        0x0000222c:    2208        ."      MOVS     r2,#8
        0x0000222e:    4621        !F      MOV      r1,r4
        0x00002230:    f000f8b4    ....    BL       xMBPortSerialInit ; 0x239c
        0x00002234:    2801        .(      CMP      r0,#1
        0x00002236:    d10e        ..      BNE      0x2256 ; eMBRTUInit + 50
        0x00002238:    204b        K       MOVS     r0,#0x4b
        0x0000223a:    0200        ..      LSLS     r0,r0,#8
        0x0000223c:    4284        .B      CMP      r4,r0
        0x0000223e:    d901        ..      BLS      0x2244 ; eMBRTUInit + 32
        0x00002240:    2023        #       MOVS     r0,#0x23
        0x00002242:    e003        ..      B        0x224c ; eMBRTUInit + 40
        0x00002244:    0061        a.      LSLS     r1,r4,#1
        0x00002246:    4806        .H      LDR      r0,[pc,#24] ; [0x2260] = 0x177fa0
        0x00002248:    f7fef8a0    ....    BL       __aeabi_uidiv ; 0x38c
        0x0000224c:    b280        ..      UXTH     r0,r0
        0x0000224e:    f000f8d1    ....    BL       xMBPortTimersInit ; 0x23f4
        0x00002252:    2801        .(      CMP      r0,#1
        0x00002254:    d001        ..      BEQ      0x225a ; eMBRTUInit + 54
        0x00002256:    2003        .       MOVS     r0,#3
        0x00002258:    e000        ..      B        0x225c ; eMBRTUInit + 56
        0x0000225a:    2000        .       MOVS     r0,#0
        0x0000225c:    b662        b.      CPSIE    i
        0x0000225e:    bd10        ..      POP      {r4,pc}
    $d.1
    __arm_cp.0_0
        0x00002260:    00177fa0    ....    DCD    1540000
    $t.2
    eMBRTUStart
        0x00002264:    b580        ..      PUSH     {r7,lr}
        0x00002266:    b672        r.      CPSID    i
        0x00002268:    48ae        .H      LDR      r0,[pc,#696] ; [0x2524] = 0x200000d4
        0x0000226a:    2100        .!      MOVS     r1,#0
        0x0000226c:    7001        .p      STRB     r1,[r0,#0]
        0x0000226e:    2001        .       MOVS     r0,#1
        0x00002270:    f000f838    ..8.    BL       vMBPortSerialEnable ; 0x22e4
        0x00002274:    f000f870    ..p.    BL       vMBPortTimersEnable ; 0x2358
        0x00002278:    b662        b.      CPSIE    i
        0x0000227a:    bd80        ..      POP      {r7,pc}
    eMBSetSlaveID
        0x0000227c:    b570        p.      PUSH     {r4-r6,lr}
        0x0000227e:    2b1d        .+      CMP      r3,#0x1d
        0x00002280:    d813        ..      BHI      0x22aa ; eMBSetSlaveID + 46
        0x00002282:    461c        .F      MOV      r4,r3
        0x00002284:    4e0a        .N      LDR      r6,[pc,#40] ; [0x22b0] = 0x200000b0
        0x00002286:    2302        .#      MOVS     r3,#2
        0x00002288:    8033        3.      STRH     r3,[r6,#0]
        0x0000228a:    70b0        .p      STRB     r0,[r6,#2]
        0x0000228c:    2500        .%      MOVS     r5,#0
        0x0000228e:    2900        .)      CMP      r1,#0
        0x00002290:    d000        ..      BEQ      0x2294 ; eMBSetSlaveID + 24
        0x00002292:    43e9        .C      MVNS     r1,r5
        0x00002294:    70f1        .p      STRB     r1,[r6,#3]
        0x00002296:    2c00        .,      CMP      r4,#0
        0x00002298:    d008        ..      BEQ      0x22ac ; eMBSetSlaveID + 48
        0x0000229a:    1d30        0.      ADDS     r0,r6,#4
        0x0000229c:    4611        .F      MOV      r1,r2
        0x0000229e:    4622        "F      MOV      r2,r4
        0x000022a0:    f7fdff3e    ..>.    BL       __aeabi_memcpy ; 0x120
        0x000022a4:    1ca0        ..      ADDS     r0,r4,#2
        0x000022a6:    8030        0.      STRH     r0,[r6,#0]
        0x000022a8:    e000        ..      B        0x22ac ; eMBSetSlaveID + 48
        0x000022aa:    2504        .%      MOVS     r5,#4
        0x000022ac:    4628        (F      MOV      r0,r5
        0x000022ae:    bd70        p.      POP      {r4-r6,pc}
    $d.1
    __arm_cp.0_0
        0x000022b0:    200000b0    ...     DCD    536871088
    $t.14
    fputc
        0x000022b4:    b510        ..      PUSH     {r4,lr}
        0x000022b6:    4604        .F      MOV      r4,r0
        0x000022b8:    f7fff970    ..p.    BL       SendChar_ToUART ; 0x159c
        0x000022bc:    4620         F      MOV      r0,r4
        0x000022be:    bd10        ..      POP      {r4,pc}
    main
        0x000022c0:    e7fe        ..      B        main ; 0x22c0
    rbPush
        0x000022c2:    b510        ..      PUSH     {r4,lr}
        0x000022c4:    6844        Dh      LDR      r4,[r0,#4]
        0x000022c6:    6882        .h      LDR      r2,[r0,#8]
        0x000022c8:    1c53        S.      ADDS     r3,r2,#1
        0x000022ca:    42a3        .B      CMP      r3,r4
        0x000022cc:    d101        ..      BNE      0x22d2 ; rbPush + 16
        0x000022ce:    8a04        ..      LDRH     r4,[r0,#0x10]
        0x000022d0:    1b1b        ..      SUBS     r3,r3,r4
        0x000022d2:    68c4        .h      LDR      r4,[r0,#0xc]
        0x000022d4:    42a3        .B      CMP      r3,r4
        0x000022d6:    d002        ..      BEQ      0x22de ; rbPush + 28
        0x000022d8:    7011        .p      STRB     r1,[r2,#0]
        0x000022da:    6083        .`      STR      r3,[r0,#8]
        0x000022dc:    bd10        ..      POP      {r4,pc}
        0x000022de:    2101        .!      MOVS     r1,#1
        0x000022e0:    7481        .t      STRB     r1,[r0,#0x12]
        0x000022e2:    bd10        ..      POP      {r4,pc}
    vMBPortSerialEnable
        0x000022e4:    b510        ..      PUSH     {r4,lr}
        0x000022e6:    b672        r.      CPSID    i
        0x000022e8:    4a12        .J      LDR      r2,[pc,#72] ; [0x2334] = 0x40150004
        0x000022ea:    4b13        .K      LDR      r3,[pc,#76] ; [0x2338] = 0x50004220
        0x000022ec:    2800        .(      CMP      r0,#0
        0x000022ee:    d006        ..      BEQ      0x22fe ; vMBPortSerialEnable + 26
        0x000022f0:    6810        .h      LDR      r0,[r2,#0]
        0x000022f2:    2401        .$      MOVS     r4,#1
        0x000022f4:    4304        .C      ORRS     r4,r4,r0
        0x000022f6:    6014        .`      STR      r4,[r2,#0]
        0x000022f8:    2000        .       MOVS     r0,#0
        0x000022fa:    6018        .`      STR      r0,[r3,#0]
        0x000022fc:    e004        ..      B        0x2308 ; vMBPortSerialEnable + 36
        0x000022fe:    2001        .       MOVS     r0,#1
        0x00002300:    6018        .`      STR      r0,[r3,#0]
        0x00002302:    6813        .h      LDR      r3,[r2,#0]
        0x00002304:    4383        .C      BICS     r3,r3,r0
        0x00002306:    6013        .`      STR      r3,[r2,#0]
        0x00002308:    1e48        H.      SUBS     r0,r1,#1
        0x0000230a:    4181        .A      SBCS     r1,r1,r0
        0x0000230c:    0048        H.      LSLS     r0,r1,#1
        0x0000230e:    6811        .h      LDR      r1,[r2,#0]
        0x00002310:    2302        .#      MOVS     r3,#2
        0x00002312:    4399        .C      BICS     r1,r1,r3
        0x00002314:    1808        ..      ADDS     r0,r1,r0
        0x00002316:    6010        .`      STR      r0,[r2,#0]
        0x00002318:    2001        .       MOVS     r0,#1
        0x0000231a:    0341        A.      LSLS     r1,r0,#13
        0x0000231c:    4a4d        MJ      LDR      r2,[pc,#308] ; [0x2454] = 0xe000e100
        0x0000231e:    6011        .`      STR      r1,[r2,#0]
        0x00002320:    21ff        .!      MOVS     r1,#0xff
        0x00002322:    0209        ..      LSLS     r1,r1,#8
        0x00002324:    4a05        .J      LDR      r2,[pc,#20] ; [0x233c] = 0xe000e40c
        0x00002326:    6813        .h      LDR      r3,[r2,#0]
        0x00002328:    438b        .C      BICS     r3,r3,r1
        0x0000232a:    03c0        ..      LSLS     r0,r0,#15
        0x0000232c:    1818        ..      ADDS     r0,r3,r0
        0x0000232e:    6010        .`      STR      r0,[r2,#0]
        0x00002330:    b662        b.      CPSIE    i
        0x00002332:    bd10        ..      POP      {r4,pc}
    $d.1
    __arm_cp.0_0
        0x00002334:    40150004    ...@    DCD    1075118084
    __arm_cp.0_1
        0x00002338:    50004220     B.P    DCD    1342194208
    __arm_cp.0_3
        0x0000233c:    e000e40c    ....    DCD    3758154764
    $t.4
    vMBPortTimersDisable
        0x00002340:    2001        .       MOVS     r0,#1
        0x00002342:    0781        ..      LSLS     r1,r0,#30
        0x00002344:    4a42        BJ      LDR      r2,[pc,#264] ; [0x2450] = 0x40110000
        0x00002346:    6813        .h      LDR      r3,[r2,#0]
        0x00002348:    438b        .C      BICS     r3,r3,r1
        0x0000234a:    6013        .`      STR      r3,[r2,#0]
        0x0000234c:    0680        ..      LSLS     r0,r0,#26
        0x0000234e:    6811        .h      LDR      r1,[r2,#0]
        0x00002350:    4301        .C      ORRS     r1,r1,r0
        0x00002352:    6011        .`      STR      r1,[r2,#0]
        0x00002354:    4770        pG      BX       lr
        0x00002356:    46c0        .F      MOV      r8,r8
    vMBPortTimersEnable
        0x00002358:    2001        .       MOVS     r0,#1
        0x0000235a:    0681        ..      LSLS     r1,r0,#26
        0x0000235c:    4a3c        <J      LDR      r2,[pc,#240] ; [0x2450] = 0x40110000
        0x0000235e:    6813        .h      LDR      r3,[r2,#0]
        0x00002360:    430b        .C      ORRS     r3,r3,r1
        0x00002362:    6013        .`      STR      r3,[r2,#0]
        0x00002364:    0780        ..      LSLS     r0,r0,#30
        0x00002366:    6811        .h      LDR      r1,[r2,#0]
        0x00002368:    4301        .C      ORRS     r1,r1,r0
        0x0000236a:    6011        .`      STR      r1,[r2,#0]
        0x0000236c:    4770        pG      BX       lr
        0x0000236e:    46c0        .F      MOV      r8,r8
    xMBPortEventInit
        0x00002370:    4805        .H      LDR      r0,[pc,#20] ; [0x2388] = 0x200000f8
        0x00002372:    2100        .!      MOVS     r1,#0
        0x00002374:    7001        .p      STRB     r1,[r0,#0]
        0x00002376:    2001        .       MOVS     r0,#1
        0x00002378:    4770        pG      BX       lr
        0x0000237a:    46c0        .F      MOV      r8,r8
    xMBPortEventPost
        0x0000237c:    4902        .I      LDR      r1,[pc,#8] ; [0x2388] = 0x200000f8
        0x0000237e:    7048        Hp      STRB     r0,[r1,#1]
        0x00002380:    2001        .       MOVS     r0,#1
        0x00002382:    7008        .p      STRB     r0,[r1,#0]
        0x00002384:    4770        pG      BX       lr
        0x00002386:    46c0        .F      MOV      r8,r8
    $d.3
    __arm_cp.1_0
        0x00002388:    200000f8    ...     DCD    536871160
    $t.8
    xMBPortSerialGetByte
        0x0000238c:    4918        .I      LDR      r1,[pc,#96] ; [0x23f0] = 0x40150000
        0x0000238e:    698a        .i      LDR      r2,[r1,#0x18]
        0x00002390:    0412        ..      LSLS     r2,r2,#16
        0x00002392:    d4fc        ..      BMI      0x238e ; xMBPortSerialGetByte + 2
        0x00002394:    6809        .h      LDR      r1,[r1,#0]
        0x00002396:    7001        .p      STRB     r1,[r0,#0]
        0x00002398:    2001        .       MOVS     r0,#1
        0x0000239a:    4770        pG      BX       lr
    xMBPortSerialInit
        0x0000239c:    b5f8        ..      PUSH     {r3-r7,lr}
        0x0000239e:    9300        ..      STR      r3,[sp,#0]
        0x000023a0:    4616        .F      MOV      r6,r2
        0x000023a2:    460f        .F      MOV      r7,r1
        0x000023a4:    4605        .F      MOV      r5,r0
        0x000023a6:    2401        .$      MOVS     r4,#1
        0x000023a8:    0221        !.      LSLS     r1,r4,#8
        0x000023aa:    480c        .H      LDR      r0,[pc,#48] ; [0x23dc] = 0x50004000
        0x000023ac:    4622        "F      MOV      r2,r4
        0x000023ae:    f7fefc0d    ....    BL       GPIO_SetMode ; 0xbcc
        0x000023b2:    2d00        .-      CMP      r5,#0
        0x000023b4:    d001        ..      BEQ      0x23ba ; xMBPortSerialInit + 30
        0x000023b6:    2400        .$      MOVS     r4,#0
        0x000023b8:    e00d        ..      B        0x23d6 ; xMBPortSerialInit + 58
        0x000023ba:    9b00        ..      LDR      r3,[sp,#0]
        0x000023bc:    2b02        .+      CMP      r3,#2
        0x000023be:    d80a        ..      BHI      0x23d6 ; xMBPortSerialInit + 58
        0x000023c0:    2081        .       MOVS     r0,#0x81
        0x000023c2:    0240        @.      LSLS     r0,r0,#9
        0x000023c4:    06db        ..      LSLS     r3,r3,#27
        0x000023c6:    0e1b        ..      LSRS     r3,r3,#24
        0x000023c8:    40d8        .@      LSRS     r0,r0,r3
        0x000023ca:    b2c3        ..      UXTB     r3,r0
        0x000023cc:    4808        .H      LDR      r0,[pc,#32] ; [0x23f0] = 0x40150000
        0x000023ce:    4639        9F      MOV      r1,r7
        0x000023d0:    4632        2F      MOV      r2,r6
        0x000023d2:    f7fefd57    ..W.    BL       SB_Uart_Driver_Init ; 0xe84
        0x000023d6:    4620         F      MOV      r0,r4
        0x000023d8:    bdf8        ..      POP      {r3-r7,pc}
        0x000023da:    46c0        .F      MOV      r8,r8
    $d.5
    __arm_cp.2_0
        0x000023dc:    50004000    .@.P    DCD    1342193664
    $t.6
    xMBPortSerialPutByte
        0x000023e0:    4903        .I      LDR      r1,[pc,#12] ; [0x23f0] = 0x40150000
        0x000023e2:    6008        .`      STR      r0,[r1,#0]
        0x000023e4:    6988        .i      LDR      r0,[r1,#0x18]
        0x000023e6:    0240        @.      LSLS     r0,r0,#9
        0x000023e8:    d4fc        ..      BMI      0x23e4 ; xMBPortSerialPutByte + 4
        0x000023ea:    2001        .       MOVS     r0,#1
        0x000023ec:    4770        pG      BX       lr
        0x000023ee:    46c0        .F      MOV      r8,r8
    $d.7
    __arm_cp.3_0
        0x000023f0:    40150000    ...@    DCD    1075118080
    $t.0
    xMBPortTimersInit
        0x000023f4:    b5b0        ..      PUSH     {r4,r5,r7,lr}
        0x000023f6:    4604        .F      MOV      r4,r0
        0x000023f8:    4d13        .M      LDR      r5,[pc,#76] ; [0x2448] = 0x5f000004
        0x000023fa:    4628        (F      MOV      r0,r5
        0x000023fc:    f7fef8d6    ....    BL       CLK_EnableModuleClock ; 0x5ac
        0x00002400:    2007        .       MOVS     r0,#7
        0x00002402:    0401        ..      LSLS     r1,r0,#16
        0x00002404:    2200        ."      MOVS     r2,#0
        0x00002406:    4628        (F      MOV      r0,r5
        0x00002408:    f7fef8e2    ....    BL       CLK_SetModuleClock ; 0x5d0
        0x0000240c:    480f        .H      LDR      r0,[pc,#60] ; [0x244c] = 0x4000004
        0x0000240e:    f7fff839    ..9.    BL       SYS_ResetModule ; 0x1484
        0x00002412:    2003        .       MOVS     r0,#3
        0x00002414:    06c0        ..      LSLS     r0,r0,#27
        0x00002416:    490e        .I      LDR      r1,[pc,#56] ; [0x2450] = 0x40110000
        0x00002418:    680a        .h      LDR      r2,[r1,#0]
        0x0000241a:    4382        .C      BICS     r2,r2,r0
        0x0000241c:    600a        .`      STR      r2,[r1,#0]
        0x0000241e:    2001        .       MOVS     r0,#1
        0x00002420:    06c2        ..      LSLS     r2,r0,#27
        0x00002422:    680b        .h      LDR      r3,[r1,#0]
        0x00002424:    4313        .C      ORRS     r3,r3,r2
        0x00002426:    600b        .`      STR      r3,[r1,#0]
        0x00002428:    680a        .h      LDR      r2,[r1,#0]
        0x0000242a:    23ff        .#      MOVS     r3,#0xff
        0x0000242c:    439a        .C      BICS     r2,r2,r3
        0x0000242e:    600a        .`      STR      r2,[r1,#0]
        0x00002430:    224b        K"      MOVS     r2,#0x4b
        0x00002432:    00d2        ..      LSLS     r2,r2,#3
        0x00002434:    4362        bC      MULS     r2,r4,r2
        0x00002436:    604a        J`      STR      r2,[r1,#4]
        0x00002438:    0742        B.      LSLS     r2,r0,#29
        0x0000243a:    680b        .h      LDR      r3,[r1,#0]
        0x0000243c:    4313        .C      ORRS     r3,r3,r2
        0x0000243e:    600b        .`      STR      r3,[r1,#0]
        0x00002440:    0281        ..      LSLS     r1,r0,#10
        0x00002442:    4a04        .J      LDR      r2,[pc,#16] ; [0x2454] = 0xe000e100
        0x00002444:    6011        .`      STR      r1,[r2,#0]
        0x00002446:    bdb0        ..      POP      {r4,r5,r7,pc}
    $d.1
    __arm_cp.0_0
        0x00002448:    5f000004    ..._    DCD    1593835524
    __arm_cp.0_1
        0x0000244c:    04000004    ....    DCD    67108868
    __arm_cp.0_2
        0x00002450:    40110000    ...@    DCD    1074855936
    __arm_cp.0_3
        0x00002454:    e000e100    ....    DCD    3758153984
    $t.9
    xMBRTUReceiveFSM
        0x00002458:    b5e0        ..      PUSH     {r5-r7,lr}
        0x0000245a:    a801        ..      ADD      r0,sp,#4
        0x0000245c:    f7ffff96    ....    BL       xMBPortSerialGetByte ; 0x238c
        0x00002460:    4830        0H      LDR      r0,[pc,#192] ; [0x2524] = 0x200000d4
        0x00002462:    7801        .x      LDRB     r1,[r0,#0]
        0x00002464:    2903        .)      CMP      r1,#3
        0x00002466:    d81d        ..      BHI      0x24a4 ; xMBRTUReceiveFSM + 76
        0x00002468:    4479        yD      ADD      r1,r1,pc
        0x0000246a:    7909        .y      LDRB     r1,[r1,#4]
        0x0000246c:    0049        I.      LSLS     r1,r1,#1
        0x0000246e:    448f        .D      ADD      pc,pc,r1
    $d.10
        0x00002470:    170b0117    ....    DCD    386597143
    $t.11
        0x00002474:    2100        .!      MOVS     r1,#0
        0x00002476:    8041        A.      STRH     r1,[r0,#2]
        0x00002478:    8841        A.      LDRH     r1,[r0,#2]
        0x0000247a:    1c4a        J.      ADDS     r2,r1,#1
        0x0000247c:    8042        B.      STRH     r2,[r0,#2]
        0x0000247e:    4a0a        .J      LDR      r2,[pc,#40] ; [0x24a8] = 0x20002734
        0x00002480:    9b01        ..      LDR      r3,[sp,#4]
        0x00002482:    5453        ST      STRB     r3,[r2,r1]
        0x00002484:    2102        .!      MOVS     r1,#2
        0x00002486:    e00a        ..      B        0x249e ; xMBRTUReceiveFSM + 70
        0x00002488:    8841        A.      LDRH     r1,[r0,#2]
        0x0000248a:    29ff        .)      CMP      r1,#0xff
        0x0000248c:    d806        ..      BHI      0x249c ; xMBRTUReceiveFSM + 68
        0x0000248e:    8841        A.      LDRH     r1,[r0,#2]
        0x00002490:    1c4a        J.      ADDS     r2,r1,#1
        0x00002492:    8042        B.      STRH     r2,[r0,#2]
        0x00002494:    4804        .H      LDR      r0,[pc,#16] ; [0x24a8] = 0x20002734
        0x00002496:    9a01        ..      LDR      r2,[sp,#4]
        0x00002498:    5442        BT      STRB     r2,[r0,r1]
        0x0000249a:    e001        ..      B        0x24a0 ; xMBRTUReceiveFSM + 72
        0x0000249c:    2103        .!      MOVS     r1,#3
        0x0000249e:    7001        .p      STRB     r1,[r0,#0]
        0x000024a0:    f7ffff5a    ..Z.    BL       vMBPortTimersEnable ; 0x2358
        0x000024a4:    2000        .       MOVS     r0,#0
        0x000024a6:    bd8c        ..      POP      {r2,r3,r7,pc}
    $d.12
    __arm_cp.5_1
        0x000024a8:    20002734    4'.     DCD    536880948
    $t.15
    xMBRTUTimerT35Expired
        0x000024ac:    b5b0        ..      PUSH     {r4,r5,r7,lr}
        0x000024ae:    4d1d        .M      LDR      r5,[pc,#116] ; [0x2524] = 0x200000d4
        0x000024b0:    7828        (x      LDRB     r0,[r5,#0]
        0x000024b2:    2800        .(      CMP      r0,#0
        0x000024b4:    d002        ..      BEQ      0x24bc ; xMBRTUTimerT35Expired + 16
        0x000024b6:    2802        .(      CMP      r0,#2
        0x000024b8:    d104        ..      BNE      0x24c4 ; xMBRTUTimerT35Expired + 24
        0x000024ba:    2001        .       MOVS     r0,#1
        0x000024bc:    f7ffff5e    ..^.    BL       xMBPortEventPost ; 0x237c
        0x000024c0:    4604        .F      MOV      r4,r0
        0x000024c2:    e000        ..      B        0x24c6 ; xMBRTUTimerT35Expired + 26
        0x000024c4:    2400        .$      MOVS     r4,#0
        0x000024c6:    f7ffff3b    ..;.    BL       vMBPortTimersDisable ; 0x2340
        0x000024ca:    2001        .       MOVS     r0,#1
        0x000024cc:    7028        (p      STRB     r0,[r5,#0]
        0x000024ce:    4620         F      MOV      r0,r4
        0x000024d0:    bdb0        ..      POP      {r4,r5,r7,pc}
        0x000024d2:    46c0        .F      MOV      r8,r8
    xMBRTUTransmitFSM
        0x000024d4:    b570        p.      PUSH     {r4-r6,lr}
        0x000024d6:    4e13        .N      LDR      r6,[pc,#76] ; [0x2524] = 0x200000d4
        0x000024d8:    7870        px      LDRB     r0,[r6,#1]
        0x000024da:    2400        .$      MOVS     r4,#0
        0x000024dc:    2801        .(      CMP      r0,#1
        0x000024de:    d007        ..      BEQ      0x24f0 ; xMBRTUTransmitFSM + 28
        0x000024e0:    2800        .(      CMP      r0,#0
        0x000024e2:    d11d        ..      BNE      0x2520 ; xMBRTUTransmitFSM + 76
        0x000024e4:    2001        .       MOVS     r0,#1
        0x000024e6:    2400        .$      MOVS     r4,#0
        0x000024e8:    4621        !F      MOV      r1,r4
        0x000024ea:    f7fffefb    ....    BL       vMBPortSerialEnable ; 0x22e4
        0x000024ee:    e017        ..      B        0x2520 ; xMBRTUTransmitFSM + 76
        0x000024f0:    88b0        ..      LDRH     r0,[r6,#4]
        0x000024f2:    2800        .(      CMP      r0,#0
        0x000024f4:    d00a        ..      BEQ      0x250c ; xMBRTUTransmitFSM + 56
        0x000024f6:    68b0        .h      LDR      r0,[r6,#8]
        0x000024f8:    7800        .x      LDRB     r0,[r0,#0]
        0x000024fa:    f7ffff71    ..q.    BL       xMBPortSerialPutByte ; 0x23e0
        0x000024fe:    68b0        .h      LDR      r0,[r6,#8]
        0x00002500:    1c40        @.      ADDS     r0,r0,#1
        0x00002502:    60b0        .`      STR      r0,[r6,#8]
        0x00002504:    88b0        ..      LDRH     r0,[r6,#4]
        0x00002506:    1e40        @.      SUBS     r0,r0,#1
        0x00002508:    80b0        ..      STRH     r0,[r6,#4]
        0x0000250a:    e009        ..      B        0x2520 ; xMBRTUTransmitFSM + 76
        0x0000250c:    2003        .       MOVS     r0,#3
        0x0000250e:    f7ffff35    ..5.    BL       xMBPortEventPost ; 0x237c
        0x00002512:    4604        .F      MOV      r4,r0
        0x00002514:    2001        .       MOVS     r0,#1
        0x00002516:    2500        .%      MOVS     r5,#0
        0x00002518:    4629        )F      MOV      r1,r5
        0x0000251a:    f7fffee3    ....    BL       vMBPortSerialEnable ; 0x22e4
        0x0000251e:    7075        up      STRB     r5,[r6,#1]
        0x00002520:    4620         F      MOV      r0,r4
        0x00002522:    bd70        p.      POP      {r4-r6,pc}
    $d.14
    __arm_cp.6_0
        0x00002524:    200000d4    ...     DCD    536871124
    $t
    i.__0printf$8
    __0printf$8
    __1printf$8
    __2printf
        0x00002528:    b40f        ..      PUSH     {r0-r3}
        0x0000252a:    b510        ..      PUSH     {r4,lr}
        0x0000252c:    a903        ..      ADD      r1,sp,#0xc
        0x0000252e:    4b04        .K      LDR      r3,[pc,#16] ; [0x2540] = 0x22b5
        0x00002530:    4a04        .J      LDR      r2,[pc,#16] ; [0x2544] = 0x20000198
        0x00002532:    9802        ..      LDR      r0,[sp,#8]
        0x00002534:    f000f82e    ....    BL       _printf_core ; 0x2594
        0x00002538:    bc10        ..      POP      {r4}
        0x0000253a:    bc08        ..      POP      {r3}
        0x0000253c:    b004        ..      ADD      sp,sp,#0x10
        0x0000253e:    4718        .G      BX       r3
    $d
        0x00002540:    000022b5    ."..    DCD    8885
        0x00002544:    20000198    ...     DCD    536871320
    $t
    i.__ARM_clz
    __ARM_clz
        0x00002548:    2120         !      MOVS     r1,#0x20
        0x0000254a:    0c02        ..      LSRS     r2,r0,#16
        0x0000254c:    d001        ..      BEQ      0x2552 ; __ARM_clz + 10
        0x0000254e:    2110        .!      MOVS     r1,#0x10
        0x00002550:    4610        .F      MOV      r0,r2
        0x00002552:    0a02        ..      LSRS     r2,r0,#8
        0x00002554:    d001        ..      BEQ      0x255a ; __ARM_clz + 18
        0x00002556:    4610        .F      MOV      r0,r2
        0x00002558:    3908        .9      SUBS     r1,r1,#8
        0x0000255a:    0902        ..      LSRS     r2,r0,#4
        0x0000255c:    d001        ..      BEQ      0x2562 ; __ARM_clz + 26
        0x0000255e:    4610        .F      MOV      r0,r2
        0x00002560:    1f09        ..      SUBS     r1,r1,#4
        0x00002562:    0882        ..      LSRS     r2,r0,#2
        0x00002564:    d001        ..      BEQ      0x256a ; __ARM_clz + 34
        0x00002566:    4610        .F      MOV      r0,r2
        0x00002568:    1e89        ..      SUBS     r1,r1,#2
        0x0000256a:    0842        B.      LSRS     r2,r0,#1
        0x0000256c:    d001        ..      BEQ      0x2572 ; __ARM_clz + 42
        0x0000256e:    1e88        ..      SUBS     r0,r1,#2
        0x00002570:    4770        pG      BX       lr
        0x00002572:    1a08        ..      SUBS     r0,r1,r0
        0x00002574:    4770        pG      BX       lr
    i.__scatterload_copy
    __scatterload_copy
        0x00002576:    e002        ..      B        0x257e ; __scatterload_copy + 8
        0x00002578:    c808        ..      LDM      r0!,{r3}
        0x0000257a:    1f12        ..      SUBS     r2,r2,#4
        0x0000257c:    c108        ..      STM      r1!,{r3}
        0x0000257e:    2a00        .*      CMP      r2,#0
        0x00002580:    d1fa        ..      BNE      0x2578 ; __scatterload_copy + 2
        0x00002582:    4770        pG      BX       lr
    i.__scatterload_null
    __scatterload_null
        0x00002584:    4770        pG      BX       lr
    i.__scatterload_zeroinit
    __scatterload_zeroinit
        0x00002586:    2000        .       MOVS     r0,#0
        0x00002588:    e001        ..      B        0x258e ; __scatterload_zeroinit + 8
        0x0000258a:    c101        ..      STM      r1!,{r0}
        0x0000258c:    1f12        ..      SUBS     r2,r2,#4
        0x0000258e:    2a00        .*      CMP      r2,#0
        0x00002590:    d1fb        ..      BNE      0x258a ; __scatterload_zeroinit + 4
        0x00002592:    4770        pG      BX       lr
    i._printf_core
    _printf_core
        0x00002594:    b5ff        ..      PUSH     {r0-r7,lr}
        0x00002596:    b091        ..      SUB      sp,sp,#0x44
        0x00002598:    460f        .F      MOV      r7,r1
        0x0000259a:    4605        .F      MOV      r5,r0
        0x0000259c:    2600        .&      MOVS     r6,#0
        0x0000259e:    e006        ..      B        0x25ae ; _printf_core + 26
        0x000025a0:    2825        %(      CMP      r0,#0x25
        0x000025a2:    d00a        ..      BEQ      0x25ba ; _printf_core + 38
        0x000025a4:    9a14        ..      LDR      r2,[sp,#0x50]
        0x000025a6:    9913        ..      LDR      r1,[sp,#0x4c]
        0x000025a8:    4790        .G      BLX      r2
        0x000025aa:    1c6d        m.      ADDS     r5,r5,#1
        0x000025ac:    1c76        v.      ADDS     r6,r6,#1
        0x000025ae:    7828        (x      LDRB     r0,[r5,#0]
        0x000025b0:    2800        .(      CMP      r0,#0
        0x000025b2:    d1f5        ..      BNE      0x25a0 ; _printf_core + 12
        0x000025b4:    4630        0F      MOV      r0,r6
        0x000025b6:    b015        ..      ADD      sp,sp,#0x54
        0x000025b8:    bdf0        ..      POP      {r4-r7,pc}
        0x000025ba:    2400        .$      MOVS     r4,#0
        0x000025bc:    9400        ..      STR      r4,[sp,#0]
        0x000025be:    2101        .!      MOVS     r1,#1
        0x000025c0:    4af3        .J      LDR      r2,[pc,#972] ; [0x2990] = 0x12809
        0x000025c2:    9402        ..      STR      r4,[sp,#8]
        0x000025c4:    e000        ..      B        0x25c8 ; _printf_core + 52
        0x000025c6:    4304        .C      ORRS     r4,r4,r0
        0x000025c8:    1c6d        m.      ADDS     r5,r5,#1
        0x000025ca:    782b        +x      LDRB     r3,[r5,#0]
        0x000025cc:    4608        .F      MOV      r0,r1
        0x000025ce:    3b20         ;      SUBS     r3,r3,#0x20
        0x000025d0:    4098        .@      LSLS     r0,r0,r3
        0x000025d2:    4210        .B      TST      r0,r2
        0x000025d4:    d1f7        ..      BNE      0x25c6 ; _printf_core + 50
        0x000025d6:    7828        (x      LDRB     r0,[r5,#0]
        0x000025d8:    282a        *(      CMP      r0,#0x2a
        0x000025da:    d00e        ..      BEQ      0x25fa ; _printf_core + 102
        0x000025dc:    2102        .!      MOVS     r1,#2
        0x000025de:    7828        (x      LDRB     r0,[r5,#0]
        0x000025e0:    4602        .F      MOV      r2,r0
        0x000025e2:    3a30        0:      SUBS     r2,r2,#0x30
        0x000025e4:    2a09        .*      CMP      r2,#9
        0x000025e6:    d815        ..      BHI      0x2614 ; _printf_core + 128
        0x000025e8:    9a00        ..      LDR      r2,[sp,#0]
        0x000025ea:    230a        .#      MOVS     r3,#0xa
        0x000025ec:    435a        ZC      MULS     r2,r3,r2
        0x000025ee:    3a30        0:      SUBS     r2,r2,#0x30
        0x000025f0:    1880        ..      ADDS     r0,r0,r2
        0x000025f2:    430c        .C      ORRS     r4,r4,r1
        0x000025f4:    1c6d        m.      ADDS     r5,r5,#1
        0x000025f6:    9000        ..      STR      r0,[sp,#0]
        0x000025f8:    e7f1        ..      B        0x25de ; _printf_core + 74
        0x000025fa:    cf01        ..      LDM      r7!,{r0}
        0x000025fc:    9000        ..      STR      r0,[sp,#0]
        0x000025fe:    2800        .(      CMP      r0,#0
        0x00002600:    da05        ..      BGE      0x260e ; _printf_core + 122
        0x00002602:    2001        .       MOVS     r0,#1
        0x00002604:    0340        @.      LSLS     r0,r0,#13
        0x00002606:    4304        .C      ORRS     r4,r4,r0
        0x00002608:    9800        ..      LDR      r0,[sp,#0]
        0x0000260a:    4240        @B      RSBS     r0,r0,#0
        0x0000260c:    9000        ..      STR      r0,[sp,#0]
        0x0000260e:    2002        .       MOVS     r0,#2
        0x00002610:    4304        .C      ORRS     r4,r4,r0
        0x00002612:    1c6d        m.      ADDS     r5,r5,#1
        0x00002614:    7828        (x      LDRB     r0,[r5,#0]
        0x00002616:    282e        .(      CMP      r0,#0x2e
        0x00002618:    d115        ..      BNE      0x2646 ; _printf_core + 178
        0x0000261a:    2004        .       MOVS     r0,#4
        0x0000261c:    4304        .C      ORRS     r4,r4,r0
        0x0000261e:    7868        hx      LDRB     r0,[r5,#1]
        0x00002620:    1c6d        m.      ADDS     r5,r5,#1
        0x00002622:    282a        *(      CMP      r0,#0x2a
        0x00002624:    d10a        ..      BNE      0x263c ; _printf_core + 168
        0x00002626:    cf01        ..      LDM      r7!,{r0}
        0x00002628:    1c6d        m.      ADDS     r5,r5,#1
        0x0000262a:    9002        ..      STR      r0,[sp,#8]
        0x0000262c:    e00b        ..      B        0x2646 ; _printf_core + 178
        0x0000262e:    9902        ..      LDR      r1,[sp,#8]
        0x00002630:    220a        ."      MOVS     r2,#0xa
        0x00002632:    4351        QC      MULS     r1,r2,r1
        0x00002634:    3930        09      SUBS     r1,r1,#0x30
        0x00002636:    1840        @.      ADDS     r0,r0,r1
        0x00002638:    1c6d        m.      ADDS     r5,r5,#1
        0x0000263a:    9002        ..      STR      r0,[sp,#8]
        0x0000263c:    7828        (x      LDRB     r0,[r5,#0]
        0x0000263e:    4601        .F      MOV      r1,r0
        0x00002640:    3930        09      SUBS     r1,r1,#0x30
        0x00002642:    2909        .)      CMP      r1,#9
        0x00002644:    d9f3        ..      BLS      0x262e ; _printf_core + 154
        0x00002646:    7828        (x      LDRB     r0,[r5,#0]
        0x00002648:    286c        l(      CMP      r0,#0x6c
        0x0000264a:    d010        ..      BEQ      0x266e ; _printf_core + 218
        0x0000264c:    dc06        ..      BGT      0x265c ; _printf_core + 200
        0x0000264e:    284c        L(      CMP      r0,#0x4c
        0x00002650:    d01a        ..      BEQ      0x2688 ; _printf_core + 244
        0x00002652:    2868        h(      CMP      r0,#0x68
        0x00002654:    d00e        ..      BEQ      0x2674 ; _printf_core + 224
        0x00002656:    286a        j(      CMP      r0,#0x6a
        0x00002658:    d117        ..      BNE      0x268a ; _printf_core + 246
        0x0000265a:    e004        ..      B        0x2666 ; _printf_core + 210
        0x0000265c:    2874        t(      CMP      r0,#0x74
        0x0000265e:    d013        ..      BEQ      0x2688 ; _printf_core + 244
        0x00002660:    287a        z(      CMP      r0,#0x7a
        0x00002662:    d112        ..      BNE      0x268a ; _printf_core + 246
        0x00002664:    e010        ..      B        0x2688 ; _printf_core + 244
        0x00002666:    2001        .       MOVS     r0,#1
        0x00002668:    0540        @.      LSLS     r0,r0,#21
        0x0000266a:    4304        .C      ORRS     r4,r4,r0
        0x0000266c:    e00c        ..      B        0x2688 ; _printf_core + 244
        0x0000266e:    2101        .!      MOVS     r1,#1
        0x00002670:    0509        ..      LSLS     r1,r1,#20
        0x00002672:    e001        ..      B        0x2678 ; _printf_core + 228
        0x00002674:    2103        .!      MOVS     r1,#3
        0x00002676:    0509        ..      LSLS     r1,r1,#20
        0x00002678:    430c        .C      ORRS     r4,r4,r1
        0x0000267a:    7869        ix      LDRB     r1,[r5,#1]
        0x0000267c:    4281        .B      CMP      r1,r0
        0x0000267e:    d103        ..      BNE      0x2688 ; _printf_core + 244
        0x00002680:    2001        .       MOVS     r0,#1
        0x00002682:    0500        ..      LSLS     r0,r0,#20
        0x00002684:    1824        $.      ADDS     r4,r4,r0
        0x00002686:    1c6d        m.      ADDS     r5,r5,#1
        0x00002688:    1c6d        m.      ADDS     r5,r5,#1
        0x0000268a:    7828        (x      LDRB     r0,[r5,#0]
        0x0000268c:    9003        ..      STR      r0,[sp,#0xc]
        0x0000268e:    286e        n(      CMP      r0,#0x6e
        0x00002690:    d01e        ..      BEQ      0x26d0 ; _printf_core + 316
        0x00002692:    dc0c        ..      BGT      0x26ae ; _printf_core + 282
        0x00002694:    2863        c(      CMP      r0,#0x63
        0x00002696:    d031        1.      BEQ      0x26fc ; _printf_core + 360
        0x00002698:    dc04        ..      BGT      0x26a4 ; _printf_core + 272
        0x0000269a:    2800        .(      CMP      r0,#0
        0x0000269c:    d08a        ..      BEQ      0x25b4 ; _printf_core + 32
        0x0000269e:    2858        X(      CMP      r0,#0x58
        0x000026a0:    d111        ..      BNE      0x26c6 ; _printf_core + 306
        0x000026a2:    e0b2        ..      B        0x280a ; _printf_core + 630
        0x000026a4:    2864        d(      CMP      r0,#0x64
        0x000026a6:    d07b        {.      BEQ      0x27a0 ; _printf_core + 524
        0x000026a8:    2869        i(      CMP      r0,#0x69
        0x000026aa:    d10c        ..      BNE      0x26c6 ; _printf_core + 306
        0x000026ac:    e078        x.      B        0x27a0 ; _printf_core + 524
        0x000026ae:    2873        s(      CMP      r0,#0x73
        0x000026b0:    d02d        -.      BEQ      0x270e ; _printf_core + 378
        0x000026b2:    dc04        ..      BGT      0x26be ; _printf_core + 298
        0x000026b4:    286f        o(      CMP      r0,#0x6f
        0x000026b6:    d070        p.      BEQ      0x279a ; _printf_core + 518
        0x000026b8:    2870        p(      CMP      r0,#0x70
        0x000026ba:    d104        ..      BNE      0x26c6 ; _printf_core + 306
        0x000026bc:    e0a7        ..      B        0x280e ; _printf_core + 634
        0x000026be:    2875        u(      CMP      r0,#0x75
        0x000026c0:    d06c        l.      BEQ      0x279c ; _printf_core + 520
        0x000026c2:    2878        x(      CMP      r0,#0x78
        0x000026c4:    d06b        k.      BEQ      0x279e ; _printf_core + 522
        0x000026c6:    9a14        ..      LDR      r2,[sp,#0x50]
        0x000026c8:    9913        ..      LDR      r1,[sp,#0x4c]
        0x000026ca:    4790        .G      BLX      r2
        0x000026cc:    1c76        v.      ADDS     r6,r6,#1
        0x000026ce:    e062        b.      B        0x2796 ; _printf_core + 514
        0x000026d0:    0260        `.      LSLS     r0,r4,#9
        0x000026d2:    0f40        @.      LSRS     r0,r0,#29
        0x000026d4:    2802        .(      CMP      r0,#2
        0x000026d6:    d007        ..      BEQ      0x26e8 ; _printf_core + 340
        0x000026d8:    2803        .(      CMP      r0,#3
        0x000026da:    d00a        ..      BEQ      0x26f2 ; _printf_core + 350
        0x000026dc:    2804        .(      CMP      r0,#4
        0x000026de:    6838        8h      LDR      r0,[r7,#0]
        0x000026e0:    d00a        ..      BEQ      0x26f8 ; _printf_core + 356
        0x000026e2:    6006        .`      STR      r6,[r0,#0]
        0x000026e4:    1d3f        ?.      ADDS     r7,r7,#4
        0x000026e6:    e056        V.      B        0x2796 ; _printf_core + 514
        0x000026e8:    6838        8h      LDR      r0,[r7,#0]
        0x000026ea:    17f1        ..      ASRS     r1,r6,#31
        0x000026ec:    6006        .`      STR      r6,[r0,#0]
        0x000026ee:    6041        A`      STR      r1,[r0,#4]
        0x000026f0:    e7f8        ..      B        0x26e4 ; _printf_core + 336
        0x000026f2:    6838        8h      LDR      r0,[r7,#0]
        0x000026f4:    8006        ..      STRH     r6,[r0,#0]
        0x000026f6:    e7f5        ..      B        0x26e4 ; _printf_core + 336
        0x000026f8:    7006        .p      STRB     r6,[r0,#0]
        0x000026fa:    e7f3        ..      B        0x26e4 ; _printf_core + 336
        0x000026fc:    7838        8x      LDRB     r0,[r7,#0]
        0x000026fe:    4669        iF      MOV      r1,sp
        0x00002700:    7408        .t      STRB     r0,[r1,#0x10]
        0x00002702:    2000        .       MOVS     r0,#0
        0x00002704:    7448        Ht      STRB     r0,[r1,#0x11]
        0x00002706:    a804        ..      ADD      r0,sp,#0x10
        0x00002708:    9003        ..      STR      r0,[sp,#0xc]
        0x0000270a:    2001        .       MOVS     r0,#1
        0x0000270c:    e003        ..      B        0x2716 ; _printf_core + 386
        0x0000270e:    6838        8h      LDR      r0,[r7,#0]
        0x00002710:    9003        ..      STR      r0,[sp,#0xc]
        0x00002712:    2000        .       MOVS     r0,#0
        0x00002714:    43c0        .C      MVNS     r0,r0
        0x00002716:    1d3f        ?.      ADDS     r7,r7,#4
        0x00002718:    0761        a.      LSLS     r1,r4,#29
        0x0000271a:    d50f        ..      BPL      0x273c ; _printf_core + 424
        0x0000271c:    2100        .!      MOVS     r1,#0
        0x0000271e:    e001        ..      B        0x2724 ; _printf_core + 400
        0x00002720:    9901        ..      LDR      r1,[sp,#4]
        0x00002722:    1c49        I.      ADDS     r1,r1,#1
        0x00002724:    9a02        ..      LDR      r2,[sp,#8]
        0x00002726:    9101        ..      STR      r1,[sp,#4]
        0x00002728:    4291        .B      CMP      r1,r2
        0x0000272a:    da13        ..      BGE      0x2754 ; _printf_core + 448
        0x0000272c:    4281        .B      CMP      r1,r0
        0x0000272e:    dbf7        ..      BLT      0x2720 ; _printf_core + 396
        0x00002730:    9a01        ..      LDR      r2,[sp,#4]
        0x00002732:    9903        ..      LDR      r1,[sp,#0xc]
        0x00002734:    5c89        .\      LDRB     r1,[r1,r2]
        0x00002736:    2900        .)      CMP      r1,#0
        0x00002738:    d1f2        ..      BNE      0x2720 ; _printf_core + 396
        0x0000273a:    e00b        ..      B        0x2754 ; _printf_core + 448
        0x0000273c:    2100        .!      MOVS     r1,#0
        0x0000273e:    e001        ..      B        0x2744 ; _printf_core + 432
        0x00002740:    9901        ..      LDR      r1,[sp,#4]
        0x00002742:    1c49        I.      ADDS     r1,r1,#1
        0x00002744:    9101        ..      STR      r1,[sp,#4]
        0x00002746:    4281        .B      CMP      r1,r0
        0x00002748:    dbfa        ..      BLT      0x2740 ; _printf_core + 428
        0x0000274a:    9a01        ..      LDR      r2,[sp,#4]
        0x0000274c:    9903        ..      LDR      r1,[sp,#0xc]
        0x0000274e:    5c89        .\      LDRB     r1,[r1,r2]
        0x00002750:    2900        .)      CMP      r1,#0
        0x00002752:    d1f5        ..      BNE      0x2740 ; _printf_core + 428
        0x00002754:    9901        ..      LDR      r1,[sp,#4]
        0x00002756:    9800        ..      LDR      r0,[sp,#0]
        0x00002758:    9a13        ..      LDR      r2,[sp,#0x4c]
        0x0000275a:    1a40        @.      SUBS     r0,r0,r1
        0x0000275c:    9000        ..      STR      r0,[sp,#0]
        0x0000275e:    4621        !F      MOV      r1,r4
        0x00002760:    9b14        ..      LDR      r3,[sp,#0x50]
        0x00002762:    f000f93b    ..;.    BL       _printf_pre_padding ; 0x29dc
        0x00002766:    9901        ..      LDR      r1,[sp,#4]
        0x00002768:    1980        ..      ADDS     r0,r0,r6
        0x0000276a:    1846        F.      ADDS     r6,r0,r1
        0x0000276c:    e007        ..      B        0x277e ; _printf_core + 490
        0x0000276e:    9803        ..      LDR      r0,[sp,#0xc]
        0x00002770:    9903        ..      LDR      r1,[sp,#0xc]
        0x00002772:    7800        .x      LDRB     r0,[r0,#0]
        0x00002774:    1c49        I.      ADDS     r1,r1,#1
        0x00002776:    9103        ..      STR      r1,[sp,#0xc]
        0x00002778:    9a14        ..      LDR      r2,[sp,#0x50]
        0x0000277a:    9913        ..      LDR      r1,[sp,#0x4c]
        0x0000277c:    4790        .G      BLX      r2
        0x0000277e:    9801        ..      LDR      r0,[sp,#4]
        0x00002780:    1e40        @.      SUBS     r0,r0,#1
        0x00002782:    9001        ..      STR      r0,[sp,#4]
        0x00002784:    1c40        @.      ADDS     r0,r0,#1
        0x00002786:    d1f2        ..      BNE      0x276e ; _printf_core + 474
        0x00002788:    4621        !F      MOV      r1,r4
        0x0000278a:    9b14        ..      LDR      r3,[sp,#0x50]
        0x0000278c:    9a13        ..      LDR      r2,[sp,#0x4c]
        0x0000278e:    9800        ..      LDR      r0,[sp,#0]
        0x00002790:    f000f914    ....    BL       _printf_post_padding ; 0x29bc
        0x00002794:    1986        ..      ADDS     r6,r0,r6
        0x00002796:    1c6d        m.      ADDS     r5,r5,#1
        0x00002798:    e709        ..      B        0x25ae ; _printf_core + 26
        0x0000279a:    e041        A.      B        0x2820 ; _printf_core + 652
        0x0000279c:    e033        3.      B        0x2806 ; _printf_core + 626
        0x0000279e:    e034        4.      B        0x280a ; _printf_core + 630
        0x000027a0:    200a        .       MOVS     r0,#0xa
        0x000027a2:    2100        .!      MOVS     r1,#0
        0x000027a4:    9004        ..      STR      r0,[sp,#0x10]
        0x000027a6:    9105        ..      STR      r1,[sp,#0x14]
        0x000027a8:    0260        `.      LSLS     r0,r4,#9
        0x000027aa:    0f41        A.      LSRS     r1,r0,#29
        0x000027ac:    2902        .)      CMP      r1,#2
        0x000027ae:    d005        ..      BEQ      0x27bc ; _printf_core + 552
        0x000027b0:    cf01        ..      LDM      r7!,{r0}
        0x000027b2:    17c2        ..      ASRS     r2,r0,#31
        0x000027b4:    4694        .F      MOV      r12,r2
        0x000027b6:    2903        .)      CMP      r1,#3
        0x000027b8:    d005        ..      BEQ      0x27c6 ; _printf_core + 562
        0x000027ba:    e007        ..      B        0x27cc ; _printf_core + 568
        0x000027bc:    1dff        ..      ADDS     r7,r7,#7
        0x000027be:    08ff        ..      LSRS     r7,r7,#3
        0x000027c0:    00ff        ..      LSLS     r7,r7,#3
        0x000027c2:    cf03        ..      LDM      r7!,{r0,r1}
        0x000027c4:    e006        ..      B        0x27d4 ; _printf_core + 576
        0x000027c6:    b200        ..      SXTH     r0,r0
        0x000027c8:    17c2        ..      ASRS     r2,r0,#31
        0x000027ca:    4694        .F      MOV      r12,r2
        0x000027cc:    2904        .)      CMP      r1,#4
        0x000027ce:    d102        ..      BNE      0x27d6 ; _printf_core + 578
        0x000027d0:    b240        @.      SXTB     r0,r0
        0x000027d2:    17c1        ..      ASRS     r1,r0,#31
        0x000027d4:    468c        .F      MOV      r12,r1
        0x000027d6:    2200        ."      MOVS     r2,#0
        0x000027d8:    4661        aF      MOV      r1,r12
        0x000027da:    4594        .E      CMP      r12,r2
        0x000027dc:    da06        ..      BGE      0x27ec ; _printf_core + 600
        0x000027de:    460a        .F      MOV      r2,r1
        0x000027e0:    2100        .!      MOVS     r1,#0
        0x000027e2:    4240        @B      RSBS     r0,r0,#0
        0x000027e4:    4191        .A      SBCS     r1,r1,r2
        0x000027e6:    468c        .F      MOV      r12,r1
        0x000027e8:    212d        -!      MOVS     r1,#0x2d
        0x000027ea:    e002        ..      B        0x27f2 ; _printf_core + 606
        0x000027ec:    0521        !.      LSLS     r1,r4,#20
        0x000027ee:    d504        ..      BPL      0x27fa ; _printf_core + 614
        0x000027f0:    212b        +!      MOVS     r1,#0x2b
        0x000027f2:    466a        jF      MOV      r2,sp
        0x000027f4:    7611        .v      STRB     r1,[r2,#0x18]
        0x000027f6:    2101        .!      MOVS     r1,#1
        0x000027f8:    e003        ..      B        0x2802 ; _printf_core + 622
        0x000027fa:    07e1        ..      LSLS     r1,r4,#31
        0x000027fc:    d001        ..      BEQ      0x2802 ; _printf_core + 622
        0x000027fe:    2120         !      MOVS     r1,#0x20
        0x00002800:    e7f7        ..      B        0x27f2 ; _printf_core + 606
        0x00002802:    9101        ..      STR      r1,[sp,#4]
        0x00002804:    e054        T.      B        0x28b0 ; _printf_core + 796
        0x00002806:    200a        .       MOVS     r0,#0xa
        0x00002808:    e00b        ..      B        0x2822 ; _printf_core + 654
        0x0000280a:    2010        .       MOVS     r0,#0x10
        0x0000280c:    e009        ..      B        0x2822 ; _printf_core + 654
        0x0000280e:    2010        .       MOVS     r0,#0x10
        0x00002810:    9004        ..      STR      r0,[sp,#0x10]
        0x00002812:    2100        .!      MOVS     r1,#0
        0x00002814:    2004        .       MOVS     r0,#4
        0x00002816:    4304        .C      ORRS     r4,r4,r0
        0x00002818:    2008        .       MOVS     r0,#8
        0x0000281a:    9105        ..      STR      r1,[sp,#0x14]
        0x0000281c:    9002        ..      STR      r0,[sp,#8]
        0x0000281e:    e003        ..      B        0x2828 ; _printf_core + 660
        0x00002820:    2008        .       MOVS     r0,#8
        0x00002822:    2100        .!      MOVS     r1,#0
        0x00002824:    9105        ..      STR      r1,[sp,#0x14]
        0x00002826:    9004        ..      STR      r0,[sp,#0x10]
        0x00002828:    0260        `.      LSLS     r0,r4,#9
        0x0000282a:    0f41        A.      LSRS     r1,r0,#29
        0x0000282c:    2902        .)      CMP      r1,#2
        0x0000282e:    d005        ..      BEQ      0x283c ; _printf_core + 680
        0x00002830:    cf01        ..      LDM      r7!,{r0}
        0x00002832:    2200        ."      MOVS     r2,#0
        0x00002834:    4694        .F      MOV      r12,r2
        0x00002836:    2903        .)      CMP      r1,#3
        0x00002838:    d006        ..      BEQ      0x2848 ; _printf_core + 692
        0x0000283a:    e006        ..      B        0x284a ; _printf_core + 694
        0x0000283c:    1dff        ..      ADDS     r7,r7,#7
        0x0000283e:    08ff        ..      LSRS     r7,r7,#3
        0x00002840:    00ff        ..      LSLS     r7,r7,#3
        0x00002842:    cf03        ..      LDM      r7!,{r0,r1}
        0x00002844:    468c        .F      MOV      r12,r1
        0x00002846:    e003        ..      B        0x2850 ; _printf_core + 700
        0x00002848:    b280        ..      UXTH     r0,r0
        0x0000284a:    2904        .)      CMP      r1,#4
        0x0000284c:    d100        ..      BNE      0x2850 ; _printf_core + 700
        0x0000284e:    b2c0        ..      UXTB     r0,r0
        0x00002850:    2100        .!      MOVS     r1,#0
        0x00002852:    9101        ..      STR      r1,[sp,#4]
        0x00002854:    0721        !.      LSLS     r1,r4,#28
        0x00002856:    d52b        +.      BPL      0x28b0 ; _printf_core + 796
        0x00002858:    9903        ..      LDR      r1,[sp,#0xc]
        0x0000285a:    2970        p)      CMP      r1,#0x70
        0x0000285c:    d006        ..      BEQ      0x286c ; _printf_core + 728
        0x0000285e:    9a04        ..      LDR      r2,[sp,#0x10]
        0x00002860:    2110        .!      MOVS     r1,#0x10
        0x00002862:    9b05        ..      LDR      r3,[sp,#0x14]
        0x00002864:    404a        J@      EORS     r2,r2,r1
        0x00002866:    431a        .C      ORRS     r2,r2,r3
        0x00002868:    d005        ..      BEQ      0x2876 ; _printf_core + 738
        0x0000286a:    e00e        ..      B        0x288a ; _printf_core + 758
        0x0000286c:    2140        @!      MOVS     r1,#0x40
        0x0000286e:    466a        jF      MOV      r2,sp
        0x00002870:    7611        .v      STRB     r1,[r2,#0x18]
        0x00002872:    2101        .!      MOVS     r1,#1
        0x00002874:    e008        ..      B        0x2888 ; _printf_core + 756
        0x00002876:    4661        aF      MOV      r1,r12
        0x00002878:    4301        .C      ORRS     r1,r1,r0
        0x0000287a:    d006        ..      BEQ      0x288a ; _printf_core + 758
        0x0000287c:    2130        0!      MOVS     r1,#0x30
        0x0000287e:    466a        jF      MOV      r2,sp
        0x00002880:    7611        .v      STRB     r1,[r2,#0x18]
        0x00002882:    9903        ..      LDR      r1,[sp,#0xc]
        0x00002884:    7651        Qv      STRB     r1,[r2,#0x19]
        0x00002886:    2102        .!      MOVS     r1,#2
        0x00002888:    9101        ..      STR      r1,[sp,#4]
        0x0000288a:    9a04        ..      LDR      r2,[sp,#0x10]
        0x0000288c:    2108        .!      MOVS     r1,#8
        0x0000288e:    9b05        ..      LDR      r3,[sp,#0x14]
        0x00002890:    404a        J@      EORS     r2,r2,r1
        0x00002892:    431a        .C      ORRS     r2,r2,r3
        0x00002894:    d10c        ..      BNE      0x28b0 ; _printf_core + 796
        0x00002896:    4661        aF      MOV      r1,r12
        0x00002898:    4301        .C      ORRS     r1,r1,r0
        0x0000289a:    d101        ..      BNE      0x28a0 ; _printf_core + 780
        0x0000289c:    0761        a.      LSLS     r1,r4,#29
        0x0000289e:    d507        ..      BPL      0x28b0 ; _printf_core + 796
        0x000028a0:    2130        0!      MOVS     r1,#0x30
        0x000028a2:    466a        jF      MOV      r2,sp
        0x000028a4:    7611        .v      STRB     r1,[r2,#0x18]
        0x000028a6:    2101        .!      MOVS     r1,#1
        0x000028a8:    9101        ..      STR      r1,[sp,#4]
        0x000028aa:    9902        ..      LDR      r1,[sp,#8]
        0x000028ac:    1e49        I.      SUBS     r1,r1,#1
        0x000028ae:    9102        ..      STR      r1,[sp,#8]
        0x000028b0:    9903        ..      LDR      r1,[sp,#0xc]
        0x000028b2:    2958        X)      CMP      r1,#0x58
        0x000028b4:    d004        ..      BEQ      0x28c0 ; _printf_core + 812
        0x000028b6:    a137        7.      ADR      r1,{pc}+0xde ; 0x2994
        0x000028b8:    9103        ..      STR      r1,[sp,#0xc]
        0x000028ba:    a90f        ..      ADD      r1,sp,#0x3c
        0x000028bc:    910f        ..      STR      r1,[sp,#0x3c]
        0x000028be:    e00d        ..      B        0x28dc ; _printf_core + 840
        0x000028c0:    a139        9.      ADR      r1,{pc}+0xe8 ; 0x29a8
        0x000028c2:    e7f9        ..      B        0x28b8 ; _printf_core + 804
        0x000028c4:    4661        aF      MOV      r1,r12
        0x000028c6:    9b05        ..      LDR      r3,[sp,#0x14]
        0x000028c8:    9a04        ..      LDR      r2,[sp,#0x10]
        0x000028ca:    f7fdfda7    ....    BL       __aeabi_uldivmod ; 0x41c
        0x000028ce:    9b03        ..      LDR      r3,[sp,#0xc]
        0x000028d0:    468c        .F      MOV      r12,r1
        0x000028d2:    5c9b        .\      LDRB     r3,[r3,r2]
        0x000028d4:    9a0f        ..      LDR      r2,[sp,#0x3c]
        0x000028d6:    1e52        R.      SUBS     r2,r2,#1
        0x000028d8:    920f        ..      STR      r2,[sp,#0x3c]
        0x000028da:    7013        .p      STRB     r3,[r2,#0]
        0x000028dc:    4661        aF      MOV      r1,r12
        0x000028de:    4301        .C      ORRS     r1,r1,r0
        0x000028e0:    d1f0        ..      BNE      0x28c4 ; _printf_core + 816
        0x000028e2:    980f        ..      LDR      r0,[sp,#0x3c]
        0x000028e4:    a907        ..      ADD      r1,sp,#0x1c
        0x000028e6:    1a08        ..      SUBS     r0,r1,r0
        0x000028e8:    3020         0      ADDS     r0,r0,#0x20
        0x000028ea:    9003        ..      STR      r0,[sp,#0xc]
        0x000028ec:    0760        `.      LSLS     r0,r4,#29
        0x000028ee:    d504        ..      BPL      0x28fa ; _printf_core + 870
        0x000028f0:    2001        .       MOVS     r0,#1
        0x000028f2:    0400        ..      LSLS     r0,r0,#16
        0x000028f4:    4384        .C      BICS     r4,r4,r0
        0x000028f6:    9802        ..      LDR      r0,[sp,#8]
        0x000028f8:    e001        ..      B        0x28fe ; _printf_core + 874
        0x000028fa:    2001        .       MOVS     r0,#1
        0x000028fc:    9002        ..      STR      r0,[sp,#8]
        0x000028fe:    9903        ..      LDR      r1,[sp,#0xc]
        0x00002900:    4288        .B      CMP      r0,r1
        0x00002902:    dd01        ..      BLE      0x2908 ; _printf_core + 884
        0x00002904:    1a40        @.      SUBS     r0,r0,r1
        0x00002906:    e000        ..      B        0x290a ; _printf_core + 886
        0x00002908:    2000        .       MOVS     r0,#0
        0x0000290a:    1841        A.      ADDS     r1,r0,r1
        0x0000290c:    9002        ..      STR      r0,[sp,#8]
        0x0000290e:    9801        ..      LDR      r0,[sp,#4]
        0x00002910:    1809        ..      ADDS     r1,r1,r0
        0x00002912:    9800        ..      LDR      r0,[sp,#0]
        0x00002914:    1a40        @.      SUBS     r0,r0,r1
        0x00002916:    9000        ..      STR      r0,[sp,#0]
        0x00002918:    03e0        ..      LSLS     r0,r4,#15
        0x0000291a:    d406        ..      BMI      0x292a ; _printf_core + 918
        0x0000291c:    4621        !F      MOV      r1,r4
        0x0000291e:    9b14        ..      LDR      r3,[sp,#0x50]
        0x00002920:    9a13        ..      LDR      r2,[sp,#0x4c]
        0x00002922:    9800        ..      LDR      r0,[sp,#0]
        0x00002924:    f000f85a    ..Z.    BL       _printf_pre_padding ; 0x29dc
        0x00002928:    1986        ..      ADDS     r6,r0,r6
        0x0000292a:    2000        .       MOVS     r0,#0
        0x0000292c:    9004        ..      STR      r0,[sp,#0x10]
        0x0000292e:    e008        ..      B        0x2942 ; _printf_core + 942
        0x00002930:    a906        ..      ADD      r1,sp,#0x18
        0x00002932:    5c08        .\      LDRB     r0,[r1,r0]
        0x00002934:    9a14        ..      LDR      r2,[sp,#0x50]
        0x00002936:    9913        ..      LDR      r1,[sp,#0x4c]
        0x00002938:    4790        .G      BLX      r2
        0x0000293a:    9804        ..      LDR      r0,[sp,#0x10]
        0x0000293c:    1c40        @.      ADDS     r0,r0,#1
        0x0000293e:    1c76        v.      ADDS     r6,r6,#1
        0x00002940:    9004        ..      STR      r0,[sp,#0x10]
        0x00002942:    9901        ..      LDR      r1,[sp,#4]
        0x00002944:    4288        .B      CMP      r0,r1
        0x00002946:    dbf3        ..      BLT      0x2930 ; _printf_core + 924
        0x00002948:    03e0        ..      LSLS     r0,r4,#15
        0x0000294a:    d50c        ..      BPL      0x2966 ; _printf_core + 978
        0x0000294c:    4621        !F      MOV      r1,r4
        0x0000294e:    9b14        ..      LDR      r3,[sp,#0x50]
        0x00002950:    9a13        ..      LDR      r2,[sp,#0x4c]
        0x00002952:    9800        ..      LDR      r0,[sp,#0]
        0x00002954:    f000f842    ..B.    BL       _printf_pre_padding ; 0x29dc
        0x00002958:    1986        ..      ADDS     r6,r0,r6
        0x0000295a:    e004        ..      B        0x2966 ; _printf_core + 978
        0x0000295c:    9a14        ..      LDR      r2,[sp,#0x50]
        0x0000295e:    2030        0       MOVS     r0,#0x30
        0x00002960:    9913        ..      LDR      r1,[sp,#0x4c]
        0x00002962:    4790        .G      BLX      r2
        0x00002964:    1c76        v.      ADDS     r6,r6,#1
        0x00002966:    9902        ..      LDR      r1,[sp,#8]
        0x00002968:    1e48        H.      SUBS     r0,r1,#1
        0x0000296a:    9002        ..      STR      r0,[sp,#8]
        0x0000296c:    2900        .)      CMP      r1,#0
        0x0000296e:    dcf5        ..      BGT      0x295c ; _printf_core + 968
        0x00002970:    e008        ..      B        0x2984 ; _printf_core + 1008
        0x00002972:    980f        ..      LDR      r0,[sp,#0x3c]
        0x00002974:    990f        ..      LDR      r1,[sp,#0x3c]
        0x00002976:    7800        .x      LDRB     r0,[r0,#0]
        0x00002978:    1c49        I.      ADDS     r1,r1,#1
        0x0000297a:    910f        ..      STR      r1,[sp,#0x3c]
        0x0000297c:    9a14        ..      LDR      r2,[sp,#0x50]
        0x0000297e:    9913        ..      LDR      r1,[sp,#0x4c]
        0x00002980:    4790        .G      BLX      r2
        0x00002982:    1c76        v.      ADDS     r6,r6,#1
        0x00002984:    9903        ..      LDR      r1,[sp,#0xc]
        0x00002986:    1e48        H.      SUBS     r0,r1,#1
        0x00002988:    9003        ..      STR      r0,[sp,#0xc]
        0x0000298a:    2900        .)      CMP      r1,#0
        0x0000298c:    dcf1        ..      BGT      0x2972 ; _printf_core + 990
        0x0000298e:    e6fb        ..      B        0x2788 ; _printf_core + 500
    $d
        0x00002990:    00012809    .(..    DCD    75785
        0x00002994:    33323130    0123    DCD    858927408
        0x00002998:    37363534    4567    DCD    926299444
        0x0000299c:    62613938    89ab    DCD    1650538808
        0x000029a0:    66656463    cdef    DCD    1717920867
        0x000029a4:    00000000    ....    DCD    0
        0x000029a8:    33323130    0123    DCD    858927408
        0x000029ac:    37363534    4567    DCD    926299444
        0x000029b0:    42413938    89AB    DCD    1111570744
        0x000029b4:    46454443    CDEF    DCD    1178944579
        0x000029b8:    00000000    ....    DCD    0
    $t
    i._printf_post_padding
    _printf_post_padding
        0x000029bc:    b5f8        ..      PUSH     {r3-r7,lr}
        0x000029be:    4604        .F      MOV      r4,r0
        0x000029c0:    2500        .%      MOVS     r5,#0
        0x000029c2:    461e        .F      MOV      r6,r3
        0x000029c4:    4617        .F      MOV      r7,r2
        0x000029c6:    0488        ..      LSLS     r0,r1,#18
        0x000029c8:    d404        ..      BMI      0x29d4 ; _printf_post_padding + 24
        0x000029ca:    e005        ..      B        0x29d8 ; _printf_post_padding + 28
        0x000029cc:    4639        9F      MOV      r1,r7
        0x000029ce:    2020                MOVS     r0,#0x20
        0x000029d0:    47b0        .G      BLX      r6
        0x000029d2:    1c6d        m.      ADDS     r5,r5,#1
        0x000029d4:    1e64        d.      SUBS     r4,r4,#1
        0x000029d6:    d5f9        ..      BPL      0x29cc ; _printf_post_padding + 16
        0x000029d8:    4628        (F      MOV      r0,r5
        0x000029da:    bdf8        ..      POP      {r3-r7,pc}
    i._printf_pre_padding
    _printf_pre_padding
        0x000029dc:    b5ff        ..      PUSH     {r0-r7,lr}
        0x000029de:    4604        .F      MOV      r4,r0
        0x000029e0:    2500        .%      MOVS     r5,#0
        0x000029e2:    b081        ..      SUB      sp,sp,#4
        0x000029e4:    461e        .F      MOV      r6,r3
        0x000029e6:    03c8        ..      LSLS     r0,r1,#15
        0x000029e8:    d501        ..      BPL      0x29ee ; _printf_pre_padding + 18
        0x000029ea:    2730        0'      MOVS     r7,#0x30
        0x000029ec:    e000        ..      B        0x29f0 ; _printf_pre_padding + 20
        0x000029ee:    2720         '      MOVS     r7,#0x20
        0x000029f0:    0488        ..      LSLS     r0,r1,#18
        0x000029f2:    d504        ..      BPL      0x29fe ; _printf_pre_padding + 34
        0x000029f4:    e005        ..      B        0x2a02 ; _printf_pre_padding + 38
        0x000029f6:    4638        8F      MOV      r0,r7
        0x000029f8:    9903        ..      LDR      r1,[sp,#0xc]
        0x000029fa:    47b0        .G      BLX      r6
        0x000029fc:    1c6d        m.      ADDS     r5,r5,#1
        0x000029fe:    1e64        d.      SUBS     r4,r4,#1
        0x00002a00:    d5f9        ..      BPL      0x29f6 ; _printf_pre_padding + 26
        0x00002a02:    4628        (F      MOV      r0,r5
        0x00002a04:    b005        ..      ADD      sp,sp,#0x14
        0x00002a06:    bdf0        ..      POP      {r4-r7,pc}
    i.puts
    puts
        0x00002a08:    b510        ..      PUSH     {r4,lr}
        0x00002a0a:    4604        .F      MOV      r4,r0
        0x00002a0c:    e001        ..      B        0x2a12 ; puts + 10
        0x00002a0e:    f7fffc51    ..Q.    BL       fputc ; 0x22b4
        0x00002a12:    7820         x      LDRB     r0,[r4,#0]
        0x00002a14:    1c64        d.      ADDS     r4,r4,#1
        0x00002a16:    4903        .I      LDR      r1,[pc,#12] ; [0x2a24] = 0x20000198
        0x00002a18:    2800        .(      CMP      r0,#0
        0x00002a1a:    d1f8        ..      BNE      0x2a0e ; puts + 6
        0x00002a1c:    200a        .       MOVS     r0,#0xa
        0x00002a1e:    f7fffc49    ..I.    BL       fputc ; 0x22b4
        0x00002a22:    bd10        ..      POP      {r4,pc}
    $d
        0x00002a24:    20000198    ...     DCD    536871320
    $d.realdata
        0x00002a28:    00000000    ....    DCD    0
        0x00002a2c:    00000004    ....    DCD    4
        0x00002a30:    0000002c    ,...    DCD    44
        0x00002a34:    00000000    ....    DCD    0
    ucSlaveID
        0x00002a38:    00ccbbaa    ....    DCD    13417386
    Region$$Table$$Base
        0x00002a3c:    00002a5c    \*..    DCD    10844
        0x00002a40:    20000000    ...     DCD    536870912
        0x00002a44:    0000005c    \...    DCD    92
        0x00002a48:    00002576    v%..    DCD    9590
        0x00002a4c:    00002ab8    .*..    DCD    10936
        0x00002a50:    20000060    `..     DCD    536871008
        0x00002a54:    00002bd8    .+..    DCD    11224
        0x00002a58:    00002586    .%..    DCD    9606
    Region$$Table$$Limit

** Section #2 'ER_RW' (SHT_PROGBITS) [SHF_ALLOC + SHF_WRITE]
    Size   : 92 bytes (alignment 4)
    Address: 0x20000000


** Section #3 'ER_ZI' (SHT_NOBITS) [SHF_ALLOC + SHF_WRITE]
    Size   : 11224 bytes (alignment 8)
    Address: 0x20000060


** Section #4 '.debug_abbrev' (SHT_PROGBITS)
    Size   : 9748 bytes


** Section #5 '.debug_frame' (SHT_PROGBITS)
    Size   : 7080 bytes


** Section #6 '.debug_info' (SHT_PROGBITS)
    Size   : 34525 bytes


** Section #7 '.debug_line' (SHT_PROGBITS)
    Size   : 29184 bytes


** Section #8 '.debug_loc' (SHT_PROGBITS)
    Size   : 20303 bytes


** Section #9 '.debug_ranges' (SHT_PROGBITS)
    Size   : 2312 bytes


** Section #10 '.debug_str' (SHT_PROGBITS)
    Size   : 27371 bytes


** Section #11 '.symtab' (SHT_SYMTAB)
    Size   : 11680 bytes (alignment 4)
    String table #12 '.strtab'
    Last local symbol no. 457


** Section #12 '.strtab' (SHT_STRTAB)
    Size   : 7968 bytes


** Section #13 '.note' (SHT_NOTE)
    Size   : 28 bytes (alignment 4)


** Section #14 '.comment' (SHT_PROGBITS)
    Size   : 2148 bytes


** Section #15 '.shstrtab' (SHT_STRTAB)
    Size   : 148 bytes


