
========================================================================

** ELF Header Information

    File Name: .\Objects\SabanWi_Client.axf

    Machine class: ELFCLASS32 (32-bit)
    Data encoding: ELFDATA2LSB (Little endian)
    Header version: EV_CURRENT (Current version)
    Operating System ABI: none
    ABI Version: 0
    File Type: ET_EXEC (Executable) (2)
    Machine: EM_ARM (ARM)

    Image Entry point: 0x000000d5
    Flags: EF_ARM_HASENTRY + EF_ARM_ABI_FLOAT_SOFT (0x05000202)

    ARM ELF revision: 5 (ABI version 2)

    Conforms to Soft float procedure-call standard

    Built with
    Component: Arm Compiler for Embedded 6.22 Tool: armasm [5ee90e00]
    Component: Arm Compiler for Embedded 6.22 Tool: armlink [5ee90200]

    Header size: 52 bytes (0x34)
    Program header entry size: 32 bytes (0x20)
    Section header entry size: 40 bytes (0x28)

    Program header entries: 1
    Section header entries: 16

    Program header offset: 328024 (0x00050158)
    Section header offset: 328056 (0x00050178)

    Section header string table index: 15

========================================================================

** Program header #0 (PT_LOAD) [PF_X + PF_W + PF_R + PF_ARM_ENTRY]
    Size : 44016 bytes (31336 bytes in file)
    Virtual address: 0x00000000 (Alignment 8)


========================================================================

** Section #1 'ER_RO' (SHT_PROGBITS) [SHF_ALLOC + SHF_EXECINSTR]
    Size   : 31040 bytes (alignment 4)
    Address: 0x00000000

    $d.realdata
    RESET
    __Vectors
        0x00000000:    200032b0    .2.     DCD    536883888
        0x00000004:    000000d5    ....    DCD    213
        0x00000008:    000000f5    ....    DCD    245
        0x0000000c:    00001b7d    }...    DCD    7037
        0x00000010:    00000000    ....    DCD    0
        0x00000014:    00000000    ....    DCD    0
        0x00000018:    00000000    ....    DCD    0
        0x0000001c:    00000000    ....    DCD    0
        0x00000020:    00000000    ....    DCD    0
        0x00000024:    00000000    ....    DCD    0
        0x00000028:    00000000    ....    DCD    0
        0x0000002c:    000000f9    ....    DCD    249
        0x00000030:    00000000    ....    DCD    0
        0x00000034:    00000000    ....    DCD    0
        0x00000038:    000000fb    ....    DCD    251
        0x0000003c:    000000fd    ....    DCD    253
        0x00000040:    000000ff    ....    DCD    255
        0x00000044:    000060d1    .`..    DCD    24785
        0x00000048:    000000ff    ....    DCD    255
        0x0000004c:    000000ff    ....    DCD    255
        0x00000050:    00001959    Y...    DCD    6489
        0x00000054:    000019f5    ....    DCD    6645
        0x00000058:    000000ff    ....    DCD    255
        0x0000005c:    000000ff    ....    DCD    255
        0x00000060:    000051b5    .Q..    DCD    20917
        0x00000064:    000051d1    .Q..    DCD    20945
        0x00000068:    00005405    .T..    DCD    21509
        0x0000006c:    00005445    ET..    DCD    21573
        0x00000070:    000000ff    ....    DCD    255
        0x00000074:    00005621    !V..    DCD    22049
        0x00000078:    000000ff    ....    DCD    255
        0x0000007c:    000000ff    ....    DCD    255
        0x00000080:    000000ff    ....    DCD    255
        0x00000084:    000000ff    ....    DCD    255
        0x00000088:    000000ff    ....    DCD    255
        0x0000008c:    000000ff    ....    DCD    255
        0x00000090:    000000ff    ....    DCD    255
        0x00000094:    000000ff    ....    DCD    255
        0x00000098:    000000ff    ....    DCD    255
        0x0000009c:    000058bd    .X..    DCD    22717
        0x000000a0:    000000ff    ....    DCD    255
        0x000000a4:    000000ff    ....    DCD    255
        0x000000a8:    000000ff    ....    DCD    255
        0x000000ac:    000000ff    ....    DCD    255
        0x000000b0:    000000ff    ....    DCD    255
        0x000000b4:    000000ff    ....    DCD    255
        0x000000b8:    000000ff    ....    DCD    255
        0x000000bc:    000000ff    ....    DCD    255
    $t
    .ARM.Collect$$$$00000000
    .ARM.Collect$$$$00000001
    __main
    _main_stk
        0x000000c0:    4803        .H      LDR      r0,__lit__00000000 ; [0xd0] = 0x200032b0
        0x000000c2:    4685        .F      MOV      sp,r0
    .ARM.Collect$$$$00000004
    _main_scatterload
        0x000000c4:    f000fbf2    ....    BL       __scatterload ; 0x8ac
    .ARM.Collect$$$$00000008
    .ARM.Collect$$$$0000000A
    .ARM.Collect$$$$0000000B
    __main_after_scatterload
    _main_clock
    _main_cpp_init
    _main_init
        0x000000c8:    4800        .H      LDR      r0,[pc,#0] ; [0xcc] = 0x690d
        0x000000ca:    4700        .G      BX       r0
    $d
        0x000000cc:    0000690d    .i..    DCD    26893
    .ARM.Collect$$$$00002712
    __lit__00000000
    .ARM.Collect$$$$0000000D
    .ARM.Collect$$$$0000000F
    __rt_final_cpp
    __rt_final_exit
        0x000000d0:    200032b0    .2.     DCD    536883888
    $t
    .text
    Reset_Handler
        0x000000d4:    480a        .H      LDR      r0,[pc,#40] ; [0x100] = 0x50000100
        0x000000d6:    490b        .I      LDR      r1,[pc,#44] ; [0x104] = 0x59
        0x000000d8:    6001        .`      STR      r1,[r0,#0]
        0x000000da:    490b        .I      LDR      r1,[pc,#44] ; [0x108] = 0x16
        0x000000dc:    6001        .`      STR      r1,[r0,#0]
        0x000000de:    490b        .I      LDR      r1,[pc,#44] ; [0x10c] = 0x88
        0x000000e0:    6001        .`      STR      r1,[r0,#0]
        0x000000e2:    4a0b        .J      LDR      r2,[pc,#44] ; [0x110] = 0x50000024
        0x000000e4:    490b        .I      LDR      r1,[pc,#44] ; [0x114] = 0x5aa5
        0x000000e6:    6011        .`      STR      r1,[r2,#0]
        0x000000e8:    2100        .!      MOVS     r1,#0
        0x000000ea:    6001        .`      STR      r1,[r0,#0]
        0x000000ec:    480a        .H      LDR      r0,[pc,#40] ; [0x118] = 0x50fd
        0x000000ee:    4780        .G      BLX      r0
        0x000000f0:    480a        .H      LDR      r0,[pc,#40] ; [0x11c] = 0xc1
        0x000000f2:    4700        .G      BX       r0
    NMI_Handler
        0x000000f4:    e7fe        ..      B        NMI_Handler ; 0xf4
        0x000000f6:    e7fe        ..      B        0xf6 ; NMI_Handler + 2
    SVC_Handler
        0x000000f8:    e7fe        ..      B        SVC_Handler ; 0xf8
    PendSV_Handler
        0x000000fa:    e7fe        ..      B        PendSV_Handler ; 0xfa
    SysTick_Handler
        0x000000fc:    e7fe        ..      B        SysTick_Handler ; 0xfc
    Default_Handler
    ACMP_IRQHandler
    ADC_IRQHandler
    BOD_IRQHandler
    CAN0_IRQHandler
    CAN1_IRQHandler
    EINT0_IRQHandler
    EINT1_IRQHandler
    I2C0_IRQHandler
    I2C1_IRQHandler
    I2S_IRQHandler
    PDMA_IRQHandler
    PS2_IRQHandler
    PWMA_IRQHandler
    PWMB_IRQHandler
    PWRWU_IRQHandler
    RTC_IRQHandler
    SC012_IRQHandler
    SPI0_IRQHandler
    SPI1_IRQHandler
    SPI2_IRQHandler
    SPI3_IRQHandler
    UART02_IRQHandler
        0x000000fe:    e7fe        ..      B        Default_Handler ; 0xfe
    $d
        0x00000100:    50000100    ...P    DCD    1342177536
        0x00000104:    00000059    Y...    DCD    89
        0x00000108:    00000016    ....    DCD    22
        0x0000010c:    00000088    ....    DCD    136
        0x00000110:    50000024    $..P    DCD    1342177316
        0x00000114:    00005aa5    .Z..    DCD    23205
        0x00000118:    000050fd    .P..    DCD    20733
        0x0000011c:    000000c1    ....    DCD    193
    $t
    .text
    __aeabi_memcpy
    __aeabi_memcpy4
    __aeabi_memcpy8
        0x00000120:    4603        .F      MOV      r3,r0
        0x00000122:    430b        .C      ORRS     r3,r3,r1
        0x00000124:    079b        ..      LSLS     r3,r3,#30
        0x00000126:    d003        ..      BEQ      0x130 ; __aeabi_memcpy + 16
        0x00000128:    e009        ..      B        0x13e ; __aeabi_memcpy + 30
        0x0000012a:    c908        ..      LDM      r1!,{r3}
        0x0000012c:    1f12        ..      SUBS     r2,r2,#4
        0x0000012e:    c008        ..      STM      r0!,{r3}
        0x00000130:    2a04        .*      CMP      r2,#4
        0x00000132:    d2fa        ..      BCS      0x12a ; __aeabi_memcpy + 10
        0x00000134:    e003        ..      B        0x13e ; __aeabi_memcpy + 30
        0x00000136:    780b        .x      LDRB     r3,[r1,#0]
        0x00000138:    7003        .p      STRB     r3,[r0,#0]
        0x0000013a:    1c40        @.      ADDS     r0,r0,#1
        0x0000013c:    1c49        I.      ADDS     r1,r1,#1
        0x0000013e:    1e52        R.      SUBS     r2,r2,#1
        0x00000140:    d2f9        ..      BCS      0x136 ; __aeabi_memcpy + 22
        0x00000142:    4770        pG      BX       lr
    .text
    __aeabi_memset
    __aeabi_memset4
    __aeabi_memset8
        0x00000144:    b2d2        ..      UXTB     r2,r2
        0x00000146:    e001        ..      B        0x14c ; __aeabi_memset + 8
        0x00000148:    7002        .p      STRB     r2,[r0,#0]
        0x0000014a:    1c40        @.      ADDS     r0,r0,#1
        0x0000014c:    1e49        I.      SUBS     r1,r1,#1
        0x0000014e:    d2fb        ..      BCS      0x148 ; __aeabi_memset + 4
        0x00000150:    4770        pG      BX       lr
    __aeabi_memclr
    __aeabi_memclr4
    __aeabi_memclr8
        0x00000152:    2200        ."      MOVS     r2,#0
        0x00000154:    e7f6        ..      B        __aeabi_memset ; 0x144
    _memset$wrapper
        0x00000156:    b510        ..      PUSH     {r4,lr}
        0x00000158:    4613        .F      MOV      r3,r2
        0x0000015a:    460a        .F      MOV      r2,r1
        0x0000015c:    4604        .F      MOV      r4,r0
        0x0000015e:    4619        .F      MOV      r1,r3
        0x00000160:    f7fffff0    ....    BL       __aeabi_memset ; 0x144
        0x00000164:    4620         F      MOV      r0,r4
        0x00000166:    bd10        ..      POP      {r4,pc}
    .text
    memcmp
        0x00000168:    b530        0.      PUSH     {r4,r5,lr}
        0x0000016a:    4604        .F      MOV      r4,r0
        0x0000016c:    2000        .       MOVS     r0,#0
        0x0000016e:    4603        .F      MOV      r3,r0
        0x00000170:    e000        ..      B        0x174 ; memcmp + 12
        0x00000172:    1c5b        [.      ADDS     r3,r3,#1
        0x00000174:    4293        .B      CMP      r3,r2
        0x00000176:    d203        ..      BCS      0x180 ; memcmp + 24
        0x00000178:    5ce0        .\      LDRB     r0,[r4,r3]
        0x0000017a:    5ccd        .\      LDRB     r5,[r1,r3]
        0x0000017c:    1b40        @.      SUBS     r0,r0,r5
        0x0000017e:    d0f8        ..      BEQ      0x172 ; memcmp + 10
        0x00000180:    bd30        0.      POP      {r4,r5,pc}
        0x00000182:    0000        ..      MOVS     r0,r0
    .text
    __aeabi_dadd
        0x00000184:    b5f0        ..      PUSH     {r4-r7,lr}
        0x00000186:    4607        .F      MOV      r7,r0
        0x00000188:    4608        .F      MOV      r0,r1
        0x0000018a:    4058        X@      EORS     r0,r0,r3
        0x0000018c:    b087        ..      SUB      sp,sp,#0x1c
        0x0000018e:    0fc0        ..      LSRS     r0,r0,#31
        0x00000190:    9004        ..      STR      r0,[sp,#0x10]
        0x00000192:    0048        H.      LSLS     r0,r1,#1
        0x00000194:    460e        .F      MOV      r6,r1
        0x00000196:    0059        Y.      LSLS     r1,r3,#1
        0x00000198:    0840        @.      LSRS     r0,r0,#1
        0x0000019a:    0849        I.      LSRS     r1,r1,#1
        0x0000019c:    1abc        ..      SUBS     r4,r7,r2
        0x0000019e:    4188        .A      SBCS     r0,r0,r1
        0x000001a0:    d205        ..      BCS      0x1ae ; __aeabi_dadd + 42
        0x000001a2:    4638        8F      MOV      r0,r7
        0x000001a4:    4631        1F      MOV      r1,r6
        0x000001a6:    461e        .F      MOV      r6,r3
        0x000001a8:    4617        .F      MOV      r7,r2
        0x000001aa:    460b        .F      MOV      r3,r1
        0x000001ac:    4602        .F      MOV      r2,r0
        0x000001ae:    0058        X.      LSLS     r0,r3,#1
        0x000001b0:    0840        @.      LSRS     r0,r0,#1
        0x000001b2:    4310        .C      ORRS     r0,r0,r2
        0x000001b4:    d04c        L.      BEQ      0x250 ; __aeabi_dadd + 204
        0x000001b6:    0d30        0.      LSRS     r0,r6,#20
        0x000001b8:    9003        ..      STR      r0,[sp,#0xc]
        0x000001ba:    0540        @.      LSLS     r0,r0,#21
        0x000001bc:    0059        Y.      LSLS     r1,r3,#1
        0x000001be:    0d40        @.      LSRS     r0,r0,#21
        0x000001c0:    0d49        I.      LSRS     r1,r1,#21
        0x000001c2:    9005        ..      STR      r0,[sp,#0x14]
        0x000001c4:    1a40        @.      SUBS     r0,r0,r1
        0x000001c6:    9002        ..      STR      r0,[sp,#8]
        0x000001c8:    2840        @(      CMP      r0,#0x40
        0x000001ca:    da72        r.      BGE      0x2b2 ; __aeabi_dadd + 302
        0x000001cc:    0318        ..      LSLS     r0,r3,#12
        0x000001ce:    2101        .!      MOVS     r1,#1
        0x000001d0:    0b00        ..      LSRS     r0,r0,#12
        0x000001d2:    0509        ..      LSLS     r1,r1,#20
        0x000001d4:    4308        .C      ORRS     r0,r0,r1
        0x000001d6:    9001        ..      STR      r0,[sp,#4]
        0x000001d8:    9804        ..      LDR      r0,[sp,#0x10]
        0x000001da:    9200        ..      STR      r2,[sp,#0]
        0x000001dc:    2800        .(      CMP      r0,#0
        0x000001de:    d005        ..      BEQ      0x1ec ; __aeabi_dadd + 104
        0x000001e0:    9901        ..      LDR      r1,[sp,#4]
        0x000001e2:    4252        RB      RSBS     r2,r2,#0
        0x000001e4:    2000        .       MOVS     r0,#0
        0x000001e6:    4188        .A      SBCS     r0,r0,r1
        0x000001e8:    9200        ..      STR      r2,[sp,#0]
        0x000001ea:    9001        ..      STR      r0,[sp,#4]
        0x000001ec:    9802        ..      LDR      r0,[sp,#8]
        0x000001ee:    2140        @!      MOVS     r1,#0x40
        0x000001f0:    1a0a        ..      SUBS     r2,r1,r0
        0x000001f2:    9901        ..      LDR      r1,[sp,#4]
        0x000001f4:    9800        ..      LDR      r0,[sp,#0]
        0x000001f6:    f000fa49    ..I.    BL       __aeabi_llsl ; 0x68c
        0x000001fa:    4605        .F      MOV      r5,r0
        0x000001fc:    460c        .F      MOV      r4,r1
        0x000001fe:    466b        kF      MOV      r3,sp
        0x00000200:    cb07        ..      LDM      r3!,{r0-r2}
        0x00000202:    f000fa64    ..d.    BL       __aeabi_lasr ; 0x6ce
        0x00000206:    19c0        ..      ADDS     r0,r0,r7
        0x00000208:    4171        qA      ADCS     r1,r1,r6
        0x0000020a:    9a03        ..      LDR      r2,[sp,#0xc]
        0x0000020c:    0d0e        ..      LSRS     r6,r1,#20
        0x0000020e:    2300        .#      MOVS     r3,#0
        0x00000210:    17d7        ..      ASRS     r7,r2,#31
        0x00000212:    4056        V@      EORS     r6,r6,r2
        0x00000214:    461a        .F      MOV      r2,r3
        0x00000216:    407a        z@      EORS     r2,r2,r7
        0x00000218:    4316        .C      ORRS     r6,r6,r2
        0x0000021a:    d044        D.      BEQ      0x2a6 ; __aeabi_dadd + 290
        0x0000021c:    9a04        ..      LDR      r2,[sp,#0x10]
        0x0000021e:    2a00        .*      CMP      r2,#0
        0x00000220:    d02d        -.      BEQ      0x27e ; __aeabi_dadd + 250
        0x00000222:    9a02        ..      LDR      r2,[sp,#8]
        0x00000224:    2a01        .*      CMP      r2,#1
        0x00000226:    9a03        ..      LDR      r2,[sp,#0xc]
        0x00000228:    dc15        ..      BGT      0x256 ; __aeabi_dadd + 210
        0x0000022a:    0512        ..      LSLS     r2,r2,#20
        0x0000022c:    1ac0        ..      SUBS     r0,r0,r3
        0x0000022e:    4191        .A      SBCS     r1,r1,r2
        0x00000230:    2601        .&      MOVS     r6,#1
        0x00000232:    0536        6.      LSLS     r6,r6,#20
        0x00000234:    1c00        ..      ADDS     r0,r0,#0
        0x00000236:    4171        qA      ADCS     r1,r1,r6
        0x00000238:    0fd2        ..      LSRS     r2,r2,#31
        0x0000023a:    9e05        ..      LDR      r6,[sp,#0x14]
        0x0000023c:    07d2        ..      LSLS     r2,r2,#31
        0x0000023e:    9300        ..      STR      r3,[sp,#0]
        0x00000240:    9201        ..      STR      r2,[sp,#4]
        0x00000242:    9602        ..      STR      r6,[sp,#8]
        0x00000244:    462a        *F      MOV      r2,r5
        0x00000246:    4623        #F      MOV      r3,r4
        0x00000248:    f000fa61    ..a.    BL       _double_epilogue ; 0x70e
        0x0000024c:    b007        ..      ADD      sp,sp,#0x1c
        0x0000024e:    bdf0        ..      POP      {r4-r7,pc}
        0x00000250:    4638        8F      MOV      r0,r7
        0x00000252:    4631        1F      MOV      r1,r6
        0x00000254:    e7fa        ..      B        0x24c ; __aeabi_dadd + 200
        0x00000256:    0516        ..      LSLS     r6,r2,#20
        0x00000258:    4a22        "J      LDR      r2,[pc,#136] ; [0x2e4] = 0xffe00000
        0x0000025a:    460f        .F      MOV      r7,r1
        0x0000025c:    18b2        ..      ADDS     r2,r6,r2
        0x0000025e:    1ac0        ..      SUBS     r0,r0,r3
        0x00000260:    41b7        .A      SBCS     r7,r7,r6
        0x00000262:    2101        .!      MOVS     r1,#1
        0x00000264:    0509        ..      LSLS     r1,r1,#20
        0x00000266:    1c00        ..      ADDS     r0,r0,#0
        0x00000268:    414f        OA      ADCS     r7,r7,r1
        0x0000026a:    1800        ..      ADDS     r0,r0,r0
        0x0000026c:    417f        .A      ADCS     r7,r7,r7
        0x0000026e:    4611        .F      MOV      r1,r2
        0x00000270:    1818        ..      ADDS     r0,r3,r0
        0x00000272:    4179        yA      ADCS     r1,r1,r7
        0x00000274:    0fe2        ..      LSRS     r2,r4,#31
        0x00000276:    4310        .C      ORRS     r0,r0,r2
        0x00000278:    196d        m.      ADDS     r5,r5,r5
        0x0000027a:    4164        dA      ADCS     r4,r4,r4
        0x0000027c:    e013        ..      B        0x2a6 ; __aeabi_dadd + 290
        0x0000027e:    07e2        ..      LSLS     r2,r4,#31
        0x00000280:    086d        m.      LSRS     r5,r5,#1
        0x00000282:    4315        .C      ORRS     r5,r5,r2
        0x00000284:    0864        d.      LSRS     r4,r4,#1
        0x00000286:    07c2        ..      LSLS     r2,r0,#31
        0x00000288:    4314        .C      ORRS     r4,r4,r2
        0x0000028a:    9a03        ..      LDR      r2,[sp,#0xc]
        0x0000028c:    2601        .&      MOVS     r6,#1
        0x0000028e:    0512        ..      LSLS     r2,r2,#20
        0x00000290:    1ac0        ..      SUBS     r0,r0,r3
        0x00000292:    4191        .A      SBCS     r1,r1,r2
        0x00000294:    0536        6.      LSLS     r6,r6,#20
        0x00000296:    1c00        ..      ADDS     r0,r0,#0
        0x00000298:    4171        qA      ADCS     r1,r1,r6
        0x0000029a:    07ce        ..      LSLS     r6,r1,#31
        0x0000029c:    0840        @.      LSRS     r0,r0,#1
        0x0000029e:    4330        0C      ORRS     r0,r0,r6
        0x000002a0:    0849        I.      LSRS     r1,r1,#1
        0x000002a2:    18c0        ..      ADDS     r0,r0,r3
        0x000002a4:    4151        QA      ADCS     r1,r1,r2
        0x000002a6:    462a        *F      MOV      r2,r5
        0x000002a8:    4623        #F      MOV      r3,r4
        0x000002aa:    f000fa23    ..#.    BL       __I$use$fp ; 0x6f4
        0x000002ae:    e7cd        ..      B        0x24c ; __aeabi_dadd + 200
        0x000002b0:    e7ff        ..      B        0x2b2 ; __aeabi_dadd + 302
        0x000002b2:    9804        ..      LDR      r0,[sp,#0x10]
        0x000002b4:    2201        ."      MOVS     r2,#1
        0x000002b6:    0040        @.      LSLS     r0,r0,#1
        0x000002b8:    17c1        ..      ASRS     r1,r0,#31
        0x000002ba:    1a12        ..      SUBS     r2,r2,r0
        0x000002bc:    2300        .#      MOVS     r3,#0
        0x000002be:    418b        .A      SBCS     r3,r3,r1
        0x000002c0:    9804        ..      LDR      r0,[sp,#0x10]
        0x000002c2:    4631        1F      MOV      r1,r6
        0x000002c4:    17c4        ..      ASRS     r4,r0,#31
        0x000002c6:    1a38        8.      SUBS     r0,r7,r0
        0x000002c8:    41a1        .A      SBCS     r1,r1,r4
        0x000002ca:    e7ee        ..      B        0x2aa ; __aeabi_dadd + 294
    __aeabi_dsub
        0x000002cc:    b430        0.      PUSH     {r4,r5}
        0x000002ce:    2401        .$      MOVS     r4,#1
        0x000002d0:    07e4        ..      LSLS     r4,r4,#31
        0x000002d2:    4063        c@      EORS     r3,r3,r4
        0x000002d4:    bc30        0.      POP      {r4,r5}
        0x000002d6:    e755        U.      B        __aeabi_dadd ; 0x184
    __aeabi_drsub
        0x000002d8:    b430        0.      PUSH     {r4,r5}
        0x000002da:    2401        .$      MOVS     r4,#1
        0x000002dc:    07e4        ..      LSLS     r4,r4,#31
        0x000002de:    4061        a@      EORS     r1,r1,r4
        0x000002e0:    bc30        0.      POP      {r4,r5}
        0x000002e2:    e74f        O.      B        __aeabi_dadd ; 0x184
    $d
        0x000002e4:    ffe00000    ....    DCD    4292870144
    $t
    .text
    __aeabi_dmul
        0x000002e8:    b5f0        ..      PUSH     {r4-r7,lr}
        0x000002ea:    b41f        ..      PUSH     {r0-r4}
        0x000002ec:    b088        ..      SUB      sp,sp,#0x20
        0x000002ee:    990b        ..      LDR      r1,[sp,#0x2c]
        0x000002f0:    9809        ..      LDR      r0,[sp,#0x24]
        0x000002f2:    2400        .$      MOVS     r4,#0
        0x000002f4:    4048        H@      EORS     r0,r0,r1
        0x000002f6:    9909        ..      LDR      r1,[sp,#0x24]
        0x000002f8:    0fc0        ..      LSRS     r0,r0,#31
        0x000002fa:    0049        I.      LSLS     r1,r1,#1
        0x000002fc:    0849        I.      LSRS     r1,r1,#1
        0x000002fe:    9109        ..      STR      r1,[sp,#0x24]
        0x00000300:    07c0        ..      LSLS     r0,r0,#31
        0x00000302:    990b        ..      LDR      r1,[sp,#0x2c]
        0x00000304:    9000        ..      STR      r0,[sp,#0]
        0x00000306:    0049        I.      LSLS     r1,r1,#1
        0x00000308:    0849        I.      LSRS     r1,r1,#1
        0x0000030a:    910b        ..      STR      r1,[sp,#0x2c]
        0x0000030c:    9909        ..      LDR      r1,[sp,#0x24]
        0x0000030e:    9808        ..      LDR      r0,[sp,#0x20]
        0x00000310:    46a6        .F      MOV      lr,r4
        0x00000312:    4308        .C      ORRS     r0,r0,r1
        0x00000314:    d01c        ..      BEQ      0x350 ; __aeabi_dmul + 104
        0x00000316:    990b        ..      LDR      r1,[sp,#0x2c]
        0x00000318:    980a        ..      LDR      r0,[sp,#0x28]
        0x0000031a:    4308        .C      ORRS     r0,r0,r1
        0x0000031c:    d018        ..      BEQ      0x350 ; __aeabi_dmul + 104
        0x0000031e:    9809        ..      LDR      r0,[sp,#0x24]
        0x00000320:    2401        .$      MOVS     r4,#1
        0x00000322:    0040        @.      LSLS     r0,r0,#1
        0x00000324:    0d42        B.      LSRS     r2,r0,#21
        0x00000326:    0048        H.      LSLS     r0,r1,#1
        0x00000328:    0d41        A.      LSRS     r1,r0,#21
        0x0000032a:    9809        ..      LDR      r0,[sp,#0x24]
        0x0000032c:    0524        $.      LSLS     r4,r4,#20
        0x0000032e:    0300        ..      LSLS     r0,r0,#12
        0x00000330:    0b00        ..      LSRS     r0,r0,#12
        0x00000332:    4320         C      ORRS     r0,r0,r4
        0x00000334:    9009        ..      STR      r0,[sp,#0x24]
        0x00000336:    980b        ..      LDR      r0,[sp,#0x2c]
        0x00000338:    0300        ..      LSLS     r0,r0,#12
        0x0000033a:    0b00        ..      LSRS     r0,r0,#12
        0x0000033c:    4320         C      ORRS     r0,r0,r4
        0x0000033e:    900b        ..      STR      r0,[sp,#0x2c]
        0x00000340:    1850        P.      ADDS     r0,r2,r1
        0x00000342:    491c        .I      LDR      r1,[pc,#112] ; [0x3b4] = 0xfffffc0d
        0x00000344:    1840        @.      ADDS     r0,r0,r1
        0x00000346:    2200        ."      MOVS     r2,#0
        0x00000348:    9001        ..      STR      r0,[sp,#4]
        0x0000034a:    4614        .F      MOV      r4,r2
        0x0000034c:    4610        .F      MOV      r0,r2
        0x0000034e:    e005        ..      B        0x35c ; __aeabi_dmul + 116
        0x00000350:    2000        .       MOVS     r0,#0
        0x00000352:    4601        .F      MOV      r1,r0
        0x00000354:    b00d        ..      ADD      sp,sp,#0x34
        0x00000356:    bdf0        ..      POP      {r4-r7,pc}
        0x00000358:    2803        .(      CMP      r0,#3
        0x0000035a:    da01        ..      BGE      0x360 ; __aeabi_dmul + 120
        0x0000035c:    4603        .F      MOV      r3,r0
        0x0000035e:    e000        ..      B        0x362 ; __aeabi_dmul + 122
        0x00000360:    2303        .#      MOVS     r3,#3
        0x00000362:    469c        .F      MOV      r12,r3
        0x00000364:    1ac1        ..      SUBS     r1,r0,r3
        0x00000366:    ae0a        ..      ADD      r6,sp,#0x28
        0x00000368:    e00a        ..      B        0x380 ; __aeabi_dmul + 152
        0x0000036a:    005f        _.      LSLS     r7,r3,#1
        0x0000036c:    ad08        ..      ADD      r5,sp,#0x20
        0x0000036e:    5bed        .[      LDRH     r5,[r5,r7]
        0x00000370:    004f        O.      LSLS     r7,r1,#1
        0x00000372:    5bf7        .[      LDRH     r7,[r6,r7]
        0x00000374:    437d        }C      MULS     r5,r7,r5
        0x00000376:    2700        .'      MOVS     r7,#0
        0x00000378:    18aa        ..      ADDS     r2,r5,r2
        0x0000037a:    417c        |A      ADCS     r4,r4,r7
        0x0000037c:    1c49        I.      ADDS     r1,r1,#1
        0x0000037e:    1e5b        [.      SUBS     r3,r3,#1
        0x00000380:    4561        aE      CMP      r1,r12
        0x00000382:    ddf2        ..      BLE      0x36a ; __aeabi_dmul + 130
        0x00000384:    0041        A.      LSLS     r1,r0,#1
        0x00000386:    ab04        ..      ADD      r3,sp,#0x10
        0x00000388:    525a        ZR      STRH     r2,[r3,r1]
        0x0000038a:    0421        !.      LSLS     r1,r4,#16
        0x0000038c:    0c12        ..      LSRS     r2,r2,#16
        0x0000038e:    430a        .C      ORRS     r2,r2,r1
        0x00000390:    0c24        $.      LSRS     r4,r4,#16
        0x00000392:    1c40        @.      ADDS     r0,r0,#1
        0x00000394:    2808        .(      CMP      r0,#8
        0x00000396:    dbdf        ..      BLT      0x358 ; __aeabi_dmul + 112
        0x00000398:    9801        ..      LDR      r0,[sp,#4]
        0x0000039a:    9002        ..      STR      r0,[sp,#8]
        0x0000039c:    9900        ..      LDR      r1,[sp,#0]
        0x0000039e:    4670        pF      MOV      r0,lr
        0x000003a0:    9101        ..      STR      r1,[sp,#4]
        0x000003a2:    9000        ..      STR      r0,[sp,#0]
        0x000003a4:    9b05        ..      LDR      r3,[sp,#0x14]
        0x000003a6:    9a04        ..      LDR      r2,[sp,#0x10]
        0x000003a8:    9907        ..      LDR      r1,[sp,#0x1c]
        0x000003aa:    9806        ..      LDR      r0,[sp,#0x18]
        0x000003ac:    f000f9af    ....    BL       _double_epilogue ; 0x70e
        0x000003b0:    e7d0        ..      B        0x354 ; __aeabi_dmul + 108
    $d
        0x000003b2:    0000        ..      DCW    0
        0x000003b4:    fffffc0d    ....    DCD    4294966285
    $t
    .text
    __aeabi_ddiv
        0x000003b8:    b5f0        ..      PUSH     {r4-r7,lr}
        0x000003ba:    460c        .F      MOV      r4,r1
        0x000003bc:    405c        \@      EORS     r4,r4,r3
        0x000003be:    b085        ..      SUB      sp,sp,#0x14
        0x000003c0:    0fe4        ..      LSRS     r4,r4,#31
        0x000003c2:    07e4        ..      LSLS     r4,r4,#31
        0x000003c4:    9403        ..      STR      r4,[sp,#0xc]
        0x000003c6:    004c        L.      LSLS     r4,r1,#1
        0x000003c8:    2600        .&      MOVS     r6,#0
        0x000003ca:    0864        d.      LSRS     r4,r4,#1
        0x000003cc:    0059        Y.      LSLS     r1,r3,#1
        0x000003ce:    4694        .F      MOV      r12,r2
        0x000003d0:    0849        I.      LSRS     r1,r1,#1
        0x000003d2:    4602        .F      MOV      r2,r0
        0x000003d4:    9602        ..      STR      r6,[sp,#8]
        0x000003d6:    4322        "C      ORRS     r2,r2,r4
        0x000003d8:    d021        !.      BEQ      0x41e ; __aeabi_ddiv + 102
        0x000003da:    4662        bF      MOV      r2,r12
        0x000003dc:    430a        .C      ORRS     r2,r2,r1
        0x000003de:    d01e        ..      BEQ      0x41e ; __aeabi_ddiv + 102
        0x000003e0:    0062        b.      LSLS     r2,r4,#1
        0x000003e2:    0d57        W.      LSRS     r7,r2,#21
        0x000003e4:    004a        J.      LSLS     r2,r1,#1
        0x000003e6:    030e        ..      LSLS     r6,r1,#12
        0x000003e8:    0323        #.      LSLS     r3,r4,#12
        0x000003ea:    0d55        U.      LSRS     r5,r2,#21
        0x000003ec:    2401        .$      MOVS     r4,#1
        0x000003ee:    4602        .F      MOV      r2,r0
        0x000003f0:    492c        ,I      LDR      r1,[pc,#176] ; [0x4a4] = 0x3fd
        0x000003f2:    0524        $.      LSLS     r4,r4,#20
        0x000003f4:    1b78        x.      SUBS     r0,r7,r5
        0x000003f6:    0b1b        ..      LSRS     r3,r3,#12
        0x000003f8:    0b36        6.      LSRS     r6,r6,#12
        0x000003fa:    1840        @.      ADDS     r0,r0,r1
        0x000003fc:    4323        #C      ORRS     r3,r3,r4
        0x000003fe:    4326        &C      ORRS     r6,r6,r4
        0x00000400:    4661        aF      MOV      r1,r12
        0x00000402:    9000        ..      STR      r0,[sp,#0]
        0x00000404:    461c        .F      MOV      r4,r3
        0x00000406:    1a50        P.      SUBS     r0,r2,r1
        0x00000408:    41b4        .A      SBCS     r4,r4,r6
        0x0000040a:    d303        ..      BCC      0x414 ; __aeabi_ddiv + 92
        0x0000040c:    9800        ..      LDR      r0,[sp,#0]
        0x0000040e:    1c40        @.      ADDS     r0,r0,#1
        0x00000410:    9000        ..      STR      r0,[sp,#0]
        0x00000412:    e002        ..      B        0x41a ; __aeabi_ddiv + 98
        0x00000414:    1892        ..      ADDS     r2,r2,r2
        0x00000416:    9800        ..      LDR      r0,[sp,#0]
        0x00000418:    415b        [A      ADCS     r3,r3,r3
        0x0000041a:    2800        .(      CMP      r0,#0
        0x0000041c:    da03        ..      BGE      0x426 ; __aeabi_ddiv + 110
        0x0000041e:    2000        .       MOVS     r0,#0
        0x00000420:    4601        .F      MOV      r1,r0
        0x00000422:    b005        ..      ADD      sp,sp,#0x14
        0x00000424:    bdf0        ..      POP      {r4-r7,pc}
        0x00000426:    2000        .       MOVS     r0,#0
        0x00000428:    2101        .!      MOVS     r1,#1
        0x0000042a:    0509        ..      LSLS     r1,r1,#20
        0x0000042c:    4607        .F      MOV      r7,r0
        0x0000042e:    4686        .F      MOV      lr,r0
        0x00000430:    e011        ..      B        0x456 ; __aeabi_ddiv + 158
        0x00000432:    4664        dF      MOV      r4,r12
        0x00000434:    461d        .F      MOV      r5,r3
        0x00000436:    1b14        ..      SUBS     r4,r2,r4
        0x00000438:    41b5        .A      SBCS     r5,r5,r6
        0x0000043a:    d306        ..      BCC      0x44a ; __aeabi_ddiv + 146
        0x0000043c:    4665        eF      MOV      r5,r12
        0x0000043e:    1b52        R.      SUBS     r2,r2,r5
        0x00000440:    41b3        .A      SBCS     r3,r3,r6
        0x00000442:    4674        tF      MOV      r4,lr
        0x00000444:    4307        .C      ORRS     r7,r7,r0
        0x00000446:    430c        .C      ORRS     r4,r4,r1
        0x00000448:    46a6        .F      MOV      lr,r4
        0x0000044a:    07cd        ..      LSLS     r5,r1,#31
        0x0000044c:    0840        @.      LSRS     r0,r0,#1
        0x0000044e:    0849        I.      LSRS     r1,r1,#1
        0x00000450:    4328        (C      ORRS     r0,r0,r5
        0x00000452:    1892        ..      ADDS     r2,r2,r2
        0x00000454:    415b        [A      ADCS     r3,r3,r3
        0x00000456:    4605        .F      MOV      r5,r0
        0x00000458:    430d        .C      ORRS     r5,r5,r1
        0x0000045a:    d1ea        ..      BNE      0x432 ; __aeabi_ddiv + 122
        0x0000045c:    4610        .F      MOV      r0,r2
        0x0000045e:    4318        .C      ORRS     r0,r0,r3
        0x00000460:    d013        ..      BEQ      0x48a ; __aeabi_ddiv + 210
        0x00000462:    4660        `F      MOV      r0,r12
        0x00000464:    4619        .F      MOV      r1,r3
        0x00000466:    4050        P@      EORS     r0,r0,r2
        0x00000468:    4071        q@      EORS     r1,r1,r6
        0x0000046a:    4308        .C      ORRS     r0,r0,r1
        0x0000046c:    d006        ..      BEQ      0x47c ; __aeabi_ddiv + 196
        0x0000046e:    4660        `F      MOV      r0,r12
        0x00000470:    1a10        ..      SUBS     r0,r2,r0
        0x00000472:    41b3        .A      SBCS     r3,r3,r6
        0x00000474:    d206        ..      BCS      0x484 ; __aeabi_ddiv + 204
        0x00000476:    2201        ."      MOVS     r2,#1
        0x00000478:    2300        .#      MOVS     r3,#0
        0x0000047a:    e006        ..      B        0x48a ; __aeabi_ddiv + 210
        0x0000047c:    2200        ."      MOVS     r2,#0
        0x0000047e:    2301        .#      MOVS     r3,#1
        0x00000480:    07db        ..      LSLS     r3,r3,#31
        0x00000482:    e002        ..      B        0x48a ; __aeabi_ddiv + 210
        0x00000484:    2201        ."      MOVS     r2,#1
        0x00000486:    43d2        .C      MVNS     r2,r2
        0x00000488:    1053        S.      ASRS     r3,r2,#1
        0x0000048a:    9800        ..      LDR      r0,[sp,#0]
        0x0000048c:    4674        tF      MOV      r4,lr
        0x0000048e:    0501        ..      LSLS     r1,r0,#20
        0x00000490:    1c38        8.      ADDS     r0,r7,#0
        0x00000492:    4161        aA      ADCS     r1,r1,r4
        0x00000494:    9c02        ..      LDR      r4,[sp,#8]
        0x00000496:    9d03        ..      LDR      r5,[sp,#0xc]
        0x00000498:    1900        ..      ADDS     r0,r0,r4
        0x0000049a:    4169        iA      ADCS     r1,r1,r5
        0x0000049c:    f000f92a    ..*.    BL       __I$use$fp ; 0x6f4
        0x000004a0:    e7bf        ..      B        0x422 ; __aeabi_ddiv + 106
    $d
        0x000004a2:    0000        ..      DCW    0
        0x000004a4:    000003fd    ....    DCD    1021
    $t
    .text
    __aeabi_dcmplt
        0x000004a8:    b510        ..      PUSH     {r4,lr}
        0x000004aa:    2900        .)      CMP      r1,#0
        0x000004ac:    db04        ..      BLT      0x4b8 ; __aeabi_dcmplt + 16
        0x000004ae:    460c        .F      MOV      r4,r1
        0x000004b0:    2101        .!      MOVS     r1,#1
        0x000004b2:    07c9        ..      LSLS     r1,r1,#31
        0x000004b4:    4240        @B      RSBS     r0,r0,#0
        0x000004b6:    41a1        .A      SBCS     r1,r1,r4
        0x000004b8:    2b00        .+      CMP      r3,#0
        0x000004ba:    db04        ..      BLT      0x4c6 ; __aeabi_dcmplt + 30
        0x000004bc:    461c        .F      MOV      r4,r3
        0x000004be:    2301        .#      MOVS     r3,#1
        0x000004c0:    07db        ..      LSLS     r3,r3,#31
        0x000004c2:    4252        RB      RSBS     r2,r2,#0
        0x000004c4:    41a3        .A      SBCS     r3,r3,r4
        0x000004c6:    1a10        ..      SUBS     r0,r2,r0
        0x000004c8:    418b        .A      SBCS     r3,r3,r1
        0x000004ca:    d201        ..      BCS      0x4d0 ; __aeabi_dcmplt + 40
        0x000004cc:    2001        .       MOVS     r0,#1
        0x000004ce:    bd10        ..      POP      {r4,pc}
        0x000004d0:    2000        .       MOVS     r0,#0
        0x000004d2:    bd10        ..      POP      {r4,pc}
    .text
    __aeabi_i2d
        0x000004d4:    b50e        ..      PUSH     {r1-r3,lr}
        0x000004d6:    17c2        ..      ASRS     r2,r0,#31
        0x000004d8:    0fc1        ..      LSRS     r1,r0,#31
        0x000004da:    4050        P@      EORS     r0,r0,r2
        0x000004dc:    07ca        ..      LSLS     r2,r1,#31
        0x000004de:    1840        @.      ADDS     r0,r0,r1
        0x000004e0:    2100        .!      MOVS     r1,#0
        0x000004e2:    4b05        .K      LDR      r3,[pc,#20] ; [0x4f8] = 0x433
        0x000004e4:    9302        ..      STR      r3,[sp,#8]
        0x000004e6:    9201        ..      STR      r2,[sp,#4]
        0x000004e8:    9100        ..      STR      r1,[sp,#0]
        0x000004ea:    460a        .F      MOV      r2,r1
        0x000004ec:    460b        .F      MOV      r3,r1
        0x000004ee:    f000f90e    ....    BL       _double_epilogue ; 0x70e
        0x000004f2:    b003        ..      ADD      sp,sp,#0xc
        0x000004f4:    bd00        ..      POP      {pc}
    $d
        0x000004f6:    0000        ..      DCW    0
        0x000004f8:    00000433    3...    DCD    1075
    $t
    .text
    __aeabi_ui2d
        0x000004fc:    b50e        ..      PUSH     {r1-r3,lr}
        0x000004fe:    4905        .I      LDR      r1,[pc,#20] ; [0x514] = 0x433
        0x00000500:    9102        ..      STR      r1,[sp,#8]
        0x00000502:    2100        .!      MOVS     r1,#0
        0x00000504:    9100        ..      STR      r1,[sp,#0]
        0x00000506:    460a        .F      MOV      r2,r1
        0x00000508:    460b        .F      MOV      r3,r1
        0x0000050a:    9101        ..      STR      r1,[sp,#4]
        0x0000050c:    f000f8ff    ....    BL       _double_epilogue ; 0x70e
        0x00000510:    b003        ..      ADD      sp,sp,#0xc
        0x00000512:    bd00        ..      POP      {pc}
    $d
        0x00000514:    00000433    3...    DCD    1075
    $t
    .text
    __aeabi_d2iz
        0x00000518:    b570        p.      PUSH     {r4-r6,lr}
        0x0000051a:    0fcd        ..      LSRS     r5,r1,#31
        0x0000051c:    004a        J.      LSLS     r2,r1,#1
        0x0000051e:    0309        ..      LSLS     r1,r1,#12
        0x00000520:    2301        .#      MOVS     r3,#1
        0x00000522:    0b09        ..      LSRS     r1,r1,#12
        0x00000524:    051b        ..      LSLS     r3,r3,#20
        0x00000526:    4319        .C      ORRS     r1,r1,r3
        0x00000528:    4b0b        .K      LDR      r3,[pc,#44] ; [0x558] = 0x3ff
        0x0000052a:    07ed        ..      LSLS     r5,r5,#31
        0x0000052c:    2400        .$      MOVS     r4,#0
        0x0000052e:    0d52        R.      LSRS     r2,r2,#21
        0x00000530:    429a        .B      CMP      r2,r3
        0x00000532:    da01        ..      BGE      0x538 ; __aeabi_d2iz + 32
        0x00000534:    2000        .       MOVS     r0,#0
        0x00000536:    bd70        p.      POP      {r4-r6,pc}
        0x00000538:    4b07        .K      LDR      r3,[pc,#28] ; [0x558] = 0x3ff
        0x0000053a:    3334        43      ADDS     r3,r3,#0x34
        0x0000053c:    429a        .B      CMP      r2,r3
        0x0000053e:    dc03        ..      BGT      0x548 ; __aeabi_d2iz + 48
        0x00000540:    1a9a        ..      SUBS     r2,r3,r2
        0x00000542:    f000f8b3    ....    BL       __aeabi_llsr ; 0x6ac
        0x00000546:    e002        ..      B        0x54e ; __aeabi_d2iz + 54
        0x00000548:    4904        .I      LDR      r1,[pc,#16] ; [0x55c] = 0xfffffbcd
        0x0000054a:    1851        Q.      ADDS     r1,r2,r1
        0x0000054c:    4088        .@      LSLS     r0,r0,r1
        0x0000054e:    432c        ,C      ORRS     r4,r4,r5
        0x00000550:    d0f1        ..      BEQ      0x536 ; __aeabi_d2iz + 30
        0x00000552:    4240        @B      RSBS     r0,r0,#0
        0x00000554:    bd70        p.      POP      {r4-r6,pc}
    $d
        0x00000556:    0000        ..      DCW    0
        0x00000558:    000003ff    ....    DCD    1023
        0x0000055c:    fffffbcd    ....    DCD    4294966221
    $t
    .text
    __aeabi_d2uiz
        0x00000560:    004a        J.      LSLS     r2,r1,#1
        0x00000562:    0309        ..      LSLS     r1,r1,#12
        0x00000564:    2301        .#      MOVS     r3,#1
        0x00000566:    0b09        ..      LSRS     r1,r1,#12
        0x00000568:    051b        ..      LSLS     r3,r3,#20
        0x0000056a:    4319        .C      ORRS     r1,r1,r3
        0x0000056c:    4b09        .K      LDR      r3,[pc,#36] ; [0x594] = 0x3ff
        0x0000056e:    b510        ..      PUSH     {r4,lr}
        0x00000570:    0d52        R.      LSRS     r2,r2,#21
        0x00000572:    429a        .B      CMP      r2,r3
        0x00000574:    da01        ..      BGE      0x57a ; __aeabi_d2uiz + 26
        0x00000576:    2000        .       MOVS     r0,#0
        0x00000578:    bd10        ..      POP      {r4,pc}
        0x0000057a:    4b06        .K      LDR      r3,[pc,#24] ; [0x594] = 0x3ff
        0x0000057c:    3334        43      ADDS     r3,r3,#0x34
        0x0000057e:    429a        .B      CMP      r2,r3
        0x00000580:    dc03        ..      BGT      0x58a ; __aeabi_d2uiz + 42
        0x00000582:    1a9a        ..      SUBS     r2,r3,r2
        0x00000584:    f000f892    ....    BL       __aeabi_llsr ; 0x6ac
        0x00000588:    bd10        ..      POP      {r4,pc}
        0x0000058a:    4903        .I      LDR      r1,[pc,#12] ; [0x598] = 0xfffffbcd
        0x0000058c:    1851        Q.      ADDS     r1,r2,r1
        0x0000058e:    4088        .@      LSLS     r0,r0,r1
        0x00000590:    bd10        ..      POP      {r4,pc}
    $d
        0x00000592:    0000        ..      DCW    0
        0x00000594:    000003ff    ....    DCD    1023
        0x00000598:    fffffbcd    ....    DCD    4294966221
    $t
    .text
    __aeabi_uidiv
    __aeabi_uidivmod
        0x0000059c:    b570        p.      PUSH     {r4-r6,lr}
        0x0000059e:    4604        .F      MOV      r4,r0
        0x000005a0:    2900        .)      CMP      r1,#0
        0x000005a2:    d003        ..      BEQ      0x5ac ; __aeabi_uidiv + 16
        0x000005a4:    2000        .       MOVS     r0,#0
        0x000005a6:    2220         "      MOVS     r2,#0x20
        0x000005a8:    2301        .#      MOVS     r3,#1
        0x000005aa:    e010        ..      B        0x5ce ; __aeabi_uidiv + 50
        0x000005ac:    2800        .(      CMP      r0,#0
        0x000005ae:    d001        ..      BEQ      0x5b4 ; __aeabi_uidiv + 24
        0x000005b0:    2000        .       MOVS     r0,#0
        0x000005b2:    43c0        .C      MVNS     r0,r0
        0x000005b4:    46c0        .F      MOV      r8,r8
        0x000005b6:    46c0        .F      MOV      r8,r8
        0x000005b8:    e00d        ..      B        0x5d6 ; __aeabi_uidiv + 58
        0x000005ba:    4625        %F      MOV      r5,r4
        0x000005bc:    40d5        .@      LSRS     r5,r5,r2
        0x000005be:    428d        .B      CMP      r5,r1
        0x000005c0:    d305        ..      BCC      0x5ce ; __aeabi_uidiv + 50
        0x000005c2:    460d        .F      MOV      r5,r1
        0x000005c4:    4095        .@      LSLS     r5,r5,r2
        0x000005c6:    1b64        d.      SUBS     r4,r4,r5
        0x000005c8:    461d        .F      MOV      r5,r3
        0x000005ca:    4095        .@      LSLS     r5,r5,r2
        0x000005cc:    1940        @.      ADDS     r0,r0,r5
        0x000005ce:    4615        .F      MOV      r5,r2
        0x000005d0:    1e52        R.      SUBS     r2,r2,#1
        0x000005d2:    2d00        .-      CMP      r5,#0
        0x000005d4:    dcf1        ..      BGT      0x5ba ; __aeabi_uidiv + 30
        0x000005d6:    4621        !F      MOV      r1,r4
        0x000005d8:    bd70        p.      POP      {r4-r6,pc}
        0x000005da:    0000        ..      MOVS     r0,r0
    .text
    __aeabi_idiv
    __aeabi_idivmod
        0x000005dc:    b570        p.      PUSH     {r4-r6,lr}
        0x000005de:    2500        .%      MOVS     r5,#0
        0x000005e0:    4604        .F      MOV      r4,r0
        0x000005e2:    462e        .F      MOV      r6,r5
        0x000005e4:    2900        .)      CMP      r1,#0
        0x000005e6:    d011        ..      BEQ      0x60c ; __aeabi_idiv + 48
        0x000005e8:    2c00        .,      CMP      r4,#0
        0x000005ea:    da01        ..      BGE      0x5f0 ; __aeabi_idiv + 20
        0x000005ec:    2501        .%      MOVS     r5,#1
        0x000005ee:    4244        DB      RSBS     r4,r0,#0
        0x000005f0:    2900        .)      CMP      r1,#0
        0x000005f2:    da01        ..      BGE      0x5f8 ; __aeabi_idiv + 28
        0x000005f4:    2601        .&      MOVS     r6,#1
        0x000005f6:    4249        IB      RSBS     r1,r1,#0
        0x000005f8:    4620         F      MOV      r0,r4
        0x000005fa:    f7ffffcf    ....    BL       __aeabi_uidiv ; 0x59c
        0x000005fe:    42b5        .B      CMP      r5,r6
        0x00000600:    d000        ..      BEQ      0x604 ; __aeabi_idiv + 40
        0x00000602:    4240        @B      RSBS     r0,r0,#0
        0x00000604:    2d00        .-      CMP      r5,#0
        0x00000606:    d000        ..      BEQ      0x60a ; __aeabi_idiv + 46
        0x00000608:    4249        IB      RSBS     r1,r1,#0
        0x0000060a:    bd70        p.      POP      {r4-r6,pc}
        0x0000060c:    2c00        .,      CMP      r4,#0
        0x0000060e:    da02        ..      BGE      0x616 ; __aeabi_idiv + 58
        0x00000610:    2101        .!      MOVS     r1,#1
        0x00000612:    07c9        ..      LSLS     r1,r1,#31
        0x00000614:    e002        ..      B        0x61c ; __aeabi_idiv + 64
        0x00000616:    2c00        .,      CMP      r4,#0
        0x00000618:    dd00        ..      BLE      0x61c ; __aeabi_idiv + 64
        0x0000061a:    4903        .I      LDR      r1,[pc,#12] ; [0x628] = 0x7fffffff
        0x0000061c:    4608        .F      MOV      r0,r1
        0x0000061e:    46c0        .F      MOV      r8,r8
        0x00000620:    46c0        .F      MOV      r8,r8
        0x00000622:    4621        !F      MOV      r1,r4
        0x00000624:    bd70        p.      POP      {r4-r6,pc}
    $d
        0x00000626:    0000        ..      DCW    0
        0x00000628:    7fffffff    ....    DCD    2147483647
    $t
    .text
    __aeabi_uldivmod
        0x0000062c:    b5f0        ..      PUSH     {r4-r7,lr}
        0x0000062e:    b41f        ..      PUSH     {r0-r4}
        0x00000630:    4606        .F      MOV      r6,r0
        0x00000632:    2000        .       MOVS     r0,#0
        0x00000634:    b082        ..      SUB      sp,sp,#8
        0x00000636:    4605        .F      MOV      r5,r0
        0x00000638:    2440        @$      MOVS     r4,#0x40
        0x0000063a:    9101        ..      STR      r1,[sp,#4]
        0x0000063c:    9000        ..      STR      r0,[sp,#0]
        0x0000063e:    e01b        ..      B        0x678 ; __aeabi_uldivmod + 76
        0x00000640:    9901        ..      LDR      r1,[sp,#4]
        0x00000642:    4622        "F      MOV      r2,r4
        0x00000644:    460f        .F      MOV      r7,r1
        0x00000646:    4630        0F      MOV      r0,r6
        0x00000648:    f000f830    ..0.    BL       __aeabi_llsr ; 0x6ac
        0x0000064c:    9a04        ..      LDR      r2,[sp,#0x10]
        0x0000064e:    9b05        ..      LDR      r3,[sp,#0x14]
        0x00000650:    1a80        ..      SUBS     r0,r0,r2
        0x00000652:    4199        .A      SBCS     r1,r1,r3
        0x00000654:    d310        ..      BCC      0x678 ; __aeabi_uldivmod + 76
        0x00000656:    4610        .F      MOV      r0,r2
        0x00000658:    4619        .F      MOV      r1,r3
        0x0000065a:    4622        "F      MOV      r2,r4
        0x0000065c:    f000f816    ....    BL       __aeabi_llsl ; 0x68c
        0x00000660:    1a36        6.      SUBS     r6,r6,r0
        0x00000662:    418f        .A      SBCS     r7,r7,r1
        0x00000664:    9701        ..      STR      r7,[sp,#4]
        0x00000666:    4622        "F      MOV      r2,r4
        0x00000668:    2001        .       MOVS     r0,#1
        0x0000066a:    2100        .!      MOVS     r1,#0
        0x0000066c:    9f00        ..      LDR      r7,[sp,#0]
        0x0000066e:    f000f80d    ....    BL       __aeabi_llsl ; 0x68c
        0x00000672:    1838        8.      ADDS     r0,r7,r0
        0x00000674:    414d        MA      ADCS     r5,r5,r1
        0x00000676:    9000        ..      STR      r0,[sp,#0]
        0x00000678:    4620         F      MOV      r0,r4
        0x0000067a:    1e64        d.      SUBS     r4,r4,#1
        0x0000067c:    2800        .(      CMP      r0,#0
        0x0000067e:    dcdf        ..      BGT      0x640 ; __aeabi_uldivmod + 20
        0x00000680:    9b01        ..      LDR      r3,[sp,#4]
        0x00000682:    9800        ..      LDR      r0,[sp,#0]
        0x00000684:    4629        )F      MOV      r1,r5
        0x00000686:    4632        2F      MOV      r2,r6
        0x00000688:    b007        ..      ADD      sp,sp,#0x1c
        0x0000068a:    bdf0        ..      POP      {r4-r7,pc}
    .text
    __aeabi_llsl
    _ll_shift_l
        0x0000068c:    b510        ..      PUSH     {r4,lr}
        0x0000068e:    2a20         *      CMP      r2,#0x20
        0x00000690:    db04        ..      BLT      0x69c ; __aeabi_llsl + 16
        0x00000692:    4601        .F      MOV      r1,r0
        0x00000694:    3a20         :      SUBS     r2,r2,#0x20
        0x00000696:    4091        .@      LSLS     r1,r1,r2
        0x00000698:    2000        .       MOVS     r0,#0
        0x0000069a:    bd10        ..      POP      {r4,pc}
        0x0000069c:    4091        .@      LSLS     r1,r1,r2
        0x0000069e:    2320         #      MOVS     r3,#0x20
        0x000006a0:    1a9c        ..      SUBS     r4,r3,r2
        0x000006a2:    4603        .F      MOV      r3,r0
        0x000006a4:    40e3        .@      LSRS     r3,r3,r4
        0x000006a6:    4319        .C      ORRS     r1,r1,r3
        0x000006a8:    4090        .@      LSLS     r0,r0,r2
        0x000006aa:    bd10        ..      POP      {r4,pc}
    .text
    __aeabi_llsr
    _ll_ushift_r
        0x000006ac:    b510        ..      PUSH     {r4,lr}
        0x000006ae:    2a20         *      CMP      r2,#0x20
        0x000006b0:    db04        ..      BLT      0x6bc ; __aeabi_llsr + 16
        0x000006b2:    4608        .F      MOV      r0,r1
        0x000006b4:    3a20         :      SUBS     r2,r2,#0x20
        0x000006b6:    40d0        .@      LSRS     r0,r0,r2
        0x000006b8:    2100        .!      MOVS     r1,#0
        0x000006ba:    bd10        ..      POP      {r4,pc}
        0x000006bc:    460b        .F      MOV      r3,r1
        0x000006be:    40d3        .@      LSRS     r3,r3,r2
        0x000006c0:    40d0        .@      LSRS     r0,r0,r2
        0x000006c2:    2420         $      MOVS     r4,#0x20
        0x000006c4:    1aa2        ..      SUBS     r2,r4,r2
        0x000006c6:    4091        .@      LSLS     r1,r1,r2
        0x000006c8:    4308        .C      ORRS     r0,r0,r1
        0x000006ca:    4619        .F      MOV      r1,r3
        0x000006cc:    bd10        ..      POP      {r4,pc}
    .text
    __aeabi_lasr
    _ll_sshift_r
        0x000006ce:    b510        ..      PUSH     {r4,lr}
        0x000006d0:    2a20         *      CMP      r2,#0x20
        0x000006d2:    db06        ..      BLT      0x6e2 ; __aeabi_lasr + 20
        0x000006d4:    17cb        ..      ASRS     r3,r1,#31
        0x000006d6:    4608        .F      MOV      r0,r1
        0x000006d8:    3a20         :      SUBS     r2,r2,#0x20
        0x000006da:    4110        .A      ASRS     r0,r0,r2
        0x000006dc:    17c1        ..      ASRS     r1,r0,#31
        0x000006de:    430b        .C      ORRS     r3,r3,r1
        0x000006e0:    e006        ..      B        0x6f0 ; __aeabi_lasr + 34
        0x000006e2:    460b        .F      MOV      r3,r1
        0x000006e4:    4113        .A      ASRS     r3,r3,r2
        0x000006e6:    40d0        .@      LSRS     r0,r0,r2
        0x000006e8:    2420         $      MOVS     r4,#0x20
        0x000006ea:    1aa2        ..      SUBS     r2,r4,r2
        0x000006ec:    4091        .@      LSLS     r1,r1,r2
        0x000006ee:    4308        .C      ORRS     r0,r0,r1
        0x000006f0:    4619        .F      MOV      r1,r3
        0x000006f2:    bd10        ..      POP      {r4,pc}
    .text
    .text
    __I$use$fp
    _double_round
        0x000006f4:    b510        ..      PUSH     {r4,lr}
        0x000006f6:    2b00        .+      CMP      r3,#0
        0x000006f8:    da08        ..      BGE      0x70c ; __I$use$fp + 24
        0x000006fa:    2400        .$      MOVS     r4,#0
        0x000006fc:    1c40        @.      ADDS     r0,r0,#1
        0x000006fe:    4161        aA      ADCS     r1,r1,r4
        0x00000700:    1892        ..      ADDS     r2,r2,r2
        0x00000702:    415b        [A      ADCS     r3,r3,r3
        0x00000704:    431a        .C      ORRS     r2,r2,r3
        0x00000706:    d101        ..      BNE      0x70c ; __I$use$fp + 24
        0x00000708:    0840        @.      LSRS     r0,r0,#1
        0x0000070a:    0040        @.      LSLS     r0,r0,#1
        0x0000070c:    bd10        ..      POP      {r4,pc}
    _double_epilogue
        0x0000070e:    b5f0        ..      PUSH     {r4-r7,lr}
        0x00000710:    b41f        ..      PUSH     {r0-r4}
        0x00000712:    b082        ..      SUB      sp,sp,#8
        0x00000714:    4605        .F      MOV      r5,r0
        0x00000716:    000c        ..      MOVS     r4,r1
        0x00000718:    d003        ..      BEQ      0x722 ; _double_epilogue + 20
        0x0000071a:    4608        .F      MOV      r0,r1
        0x0000071c:    f006fad8    ....    BL       __ARM_clz ; 0x6cd0
        0x00000720:    e002        ..      B        0x728 ; _double_epilogue + 26
        0x00000722:    f006fad5    ....    BL       __ARM_clz ; 0x6cd0
        0x00000726:    3020         0      ADDS     r0,r0,#0x20
        0x00000728:    4602        .F      MOV      r2,r0
        0x0000072a:    9000        ..      STR      r0,[sp,#0]
        0x0000072c:    4621        !F      MOV      r1,r4
        0x0000072e:    4628        (F      MOV      r0,r5
        0x00000730:    f7ffffac    ....    BL       __aeabi_llsl ; 0x68c
        0x00000734:    9b04        ..      LDR      r3,[sp,#0x10]
        0x00000736:    9a05        ..      LDR      r2,[sp,#0x14]
        0x00000738:    4604        .F      MOV      r4,r0
        0x0000073a:    460f        .F      MOV      r7,r1
        0x0000073c:    4318        .C      ORRS     r0,r0,r3
        0x0000073e:    4311        .C      ORRS     r1,r1,r2
        0x00000740:    4308        .C      ORRS     r0,r0,r1
        0x00000742:    d014        ..      BEQ      0x76e ; _double_epilogue + 96
        0x00000744:    4618        .F      MOV      r0,r3
        0x00000746:    4310        .C      ORRS     r0,r0,r2
        0x00000748:    d01b        ..      BEQ      0x782 ; _double_epilogue + 116
        0x0000074a:    9800        ..      LDR      r0,[sp,#0]
        0x0000074c:    2140        @!      MOVS     r1,#0x40
        0x0000074e:    1a0a        ..      SUBS     r2,r1,r0
        0x00000750:    4618        .F      MOV      r0,r3
        0x00000752:    9905        ..      LDR      r1,[sp,#0x14]
        0x00000754:    f7ffffaa    ....    BL       __aeabi_llsr ; 0x6ac
        0x00000758:    4605        .F      MOV      r5,r0
        0x0000075a:    460e        .F      MOV      r6,r1
        0x0000075c:    9a00        ..      LDR      r2,[sp,#0]
        0x0000075e:    9905        ..      LDR      r1,[sp,#0x14]
        0x00000760:    9804        ..      LDR      r0,[sp,#0x10]
        0x00000762:    f7ffff93    ....    BL       __aeabi_llsl ; 0x68c
        0x00000766:    4308        .C      ORRS     r0,r0,r1
        0x00000768:    d005        ..      BEQ      0x776 ; _double_epilogue + 104
        0x0000076a:    2001        .       MOVS     r0,#1
        0x0000076c:    e004        ..      B        0x778 ; _double_epilogue + 106
        0x0000076e:    4620         F      MOV      r0,r4
        0x00000770:    4639        9F      MOV      r1,r7
        0x00000772:    b007        ..      ADD      sp,sp,#0x1c
        0x00000774:    bdf0        ..      POP      {r4-r7,pc}
        0x00000776:    2000        .       MOVS     r0,#0
        0x00000778:    17c1        ..      ASRS     r1,r0,#31
        0x0000077a:    4305        .C      ORRS     r5,r5,r0
        0x0000077c:    430e        .C      ORRS     r6,r6,r1
        0x0000077e:    432c        ,C      ORRS     r4,r4,r5
        0x00000780:    4337        7C      ORRS     r7,r7,r6
        0x00000782:    9900        ..      LDR      r1,[sp,#0]
        0x00000784:    980e        ..      LDR      r0,[sp,#0x38]
        0x00000786:    0563        c.      LSLS     r3,r4,#21
        0x00000788:    1a40        @.      SUBS     r0,r0,r1
        0x0000078a:    0579        y.      LSLS     r1,r7,#21
        0x0000078c:    0ae4        ..      LSRS     r4,r4,#11
        0x0000078e:    2200        ."      MOVS     r2,#0
        0x00000790:    430c        .C      ORRS     r4,r4,r1
        0x00000792:    0afd        ..      LSRS     r5,r7,#11
        0x00000794:    300a        .0      ADDS     r0,r0,#0xa
        0x00000796:    d502        ..      BPL      0x79e ; _double_epilogue + 144
        0x00000798:    2000        .       MOVS     r0,#0
        0x0000079a:    4601        .F      MOV      r1,r0
        0x0000079c:    e7e9        ..      B        0x772 ; _double_epilogue + 100
        0x0000079e:    0501        ..      LSLS     r1,r0,#20
        0x000007a0:    1910        ..      ADDS     r0,r2,r4
        0x000007a2:    4169        iA      ADCS     r1,r1,r5
        0x000007a4:    9c0c        ..      LDR      r4,[sp,#0x30]
        0x000007a6:    9d0d        ..      LDR      r5,[sp,#0x34]
        0x000007a8:    1900        ..      ADDS     r0,r0,r4
        0x000007aa:    4169        iA      ADCS     r1,r1,r5
        0x000007ac:    f7ffffa2    ....    BL       __I$use$fp ; 0x6f4
        0x000007b0:    e7df        ..      B        0x772 ; _double_epilogue + 100
    .text
    __ARM_scalbn
    scalbn
        0x000007b2:    b570        p.      PUSH     {r4-r6,lr}
        0x000007b4:    004b        K.      LSLS     r3,r1,#1
        0x000007b6:    085b        [.      LSRS     r3,r3,#1
        0x000007b8:    4303        .C      ORRS     r3,r3,r0
        0x000007ba:    d00b        ..      BEQ      0x7d4 ; __ARM_scalbn + 34
        0x000007bc:    004b        K.      LSLS     r3,r1,#1
        0x000007be:    0d5c        \.      LSRS     r4,r3,#21
        0x000007c0:    2600        .&      MOVS     r6,#0
        0x000007c2:    4633        3F      MOV      r3,r6
        0x000007c4:    4265        eB      RSBS     r5,r4,#0
        0x000007c6:    41b3        .A      SBCS     r3,r3,r6
        0x000007c8:    17d4        ..      ASRS     r4,r2,#31
        0x000007ca:    1aad        ..      SUBS     r5,r5,r2
        0x000007cc:    41a3        .A      SBCS     r3,r3,r4
        0x000007ce:    db02        ..      BLT      0x7d6 ; __ARM_scalbn + 36
        0x000007d0:    2000        .       MOVS     r0,#0
        0x000007d2:    4601        .F      MOV      r1,r0
        0x000007d4:    bd70        p.      POP      {r4-r6,pc}
        0x000007d6:    0512        ..      LSLS     r2,r2,#20
        0x000007d8:    1830        0.      ADDS     r0,r6,r0
        0x000007da:    4151        QA      ADCS     r1,r1,r2
        0x000007dc:    bd70        p.      POP      {r4-r6,pc}
        0x000007de:    0000        ..      MOVS     r0,r0
    .text
    _drnd
        0x000007e0:    b5f8        ..      PUSH     {r3-r7,lr}
        0x000007e2:    4605        .F      MOV      r5,r0
        0x000007e4:    0048        H.      LSLS     r0,r1,#1
        0x000007e6:    0840        @.      LSRS     r0,r0,#1
        0x000007e8:    460c        .F      MOV      r4,r1
        0x000007ea:    4328        (C      ORRS     r0,r0,r5
        0x000007ec:    d004        ..      BEQ      0x7f8 ; _drnd + 24
        0x000007ee:    0060        `.      LSLS     r0,r4,#1
        0x000007f0:    4a18        .J      LDR      r2,[pc,#96] ; [0x854] = 0x433
        0x000007f2:    0d40        @.      LSRS     r0,r0,#21
        0x000007f4:    4290        .B      CMP      r0,r2
        0x000007f6:    dd01        ..      BLE      0x7fc ; _drnd + 28
        0x000007f8:    4628        (F      MOV      r0,r5
        0x000007fa:    bdf8        ..      POP      {r3-r7,pc}
        0x000007fc:    4915        .I      LDR      r1,[pc,#84] ; [0x854] = 0x433
        0x000007fe:    3935        59      SUBS     r1,r1,#0x35
        0x00000800:    4288        .B      CMP      r0,r1
        0x00000802:    dc10        ..      BGT      0x826 ; _drnd + 70
        0x00000804:    4288        .B      CMP      r0,r1
        0x00000806:    db0b        ..      BLT      0x820 ; _drnd + 64
        0x00000808:    0d29        ).      LSRS     r1,r5,#20
        0x0000080a:    0320         .      LSLS     r0,r4,#12
        0x0000080c:    4308        .C      ORRS     r0,r0,r1
        0x0000080e:    0329        ).      LSLS     r1,r5,#12
        0x00000810:    4301        .C      ORRS     r1,r1,r0
        0x00000812:    d005        ..      BEQ      0x820 ; _drnd + 64
        0x00000814:    0fe0        ..      LSRS     r0,r4,#31
        0x00000816:    4910        .I      LDR      r1,[pc,#64] ; [0x858] = 0x3ff00000
        0x00000818:    07c0        ..      LSLS     r0,r0,#31
        0x0000081a:    1841        A.      ADDS     r1,r0,r1
        0x0000081c:    2000        .       MOVS     r0,#0
        0x0000081e:    bdf8        ..      POP      {r3-r7,pc}
        0x00000820:    2000        .       MOVS     r0,#0
        0x00000822:    4601        .F      MOV      r1,r0
        0x00000824:    bdf8        ..      POP      {r3-r7,pc}
        0x00000826:    1a16        ..      SUBS     r6,r2,r0
        0x00000828:    2040        @       MOVS     r0,#0x40
        0x0000082a:    1b82        ..      SUBS     r2,r0,r6
        0x0000082c:    4628        (F      MOV      r0,r5
        0x0000082e:    4621        !F      MOV      r1,r4
        0x00000830:    f7ffff2c    ..,.    BL       __aeabi_llsl ; 0x68c
        0x00000834:    4607        .F      MOV      r7,r0
        0x00000836:    9100        ..      STR      r1,[sp,#0]
        0x00000838:    4628        (F      MOV      r0,r5
        0x0000083a:    4621        !F      MOV      r1,r4
        0x0000083c:    4632        2F      MOV      r2,r6
        0x0000083e:    f7ffff35    ..5.    BL       __aeabi_llsr ; 0x6ac
        0x00000842:    463a        :F      MOV      r2,r7
        0x00000844:    9b00        ..      LDR      r3,[sp,#0]
        0x00000846:    f7ffff55    ..U.    BL       __I$use$fp ; 0x6f4
        0x0000084a:    4632        2F      MOV      r2,r6
        0x0000084c:    f7ffff1e    ....    BL       __aeabi_llsl ; 0x68c
        0x00000850:    bdf8        ..      POP      {r3-r7,pc}
    $d
        0x00000852:    0000        ..      DCW    0
        0x00000854:    00000433    3...    DCD    1075
        0x00000858:    3ff00000    ...?    DCD    1072693248
    $t
    .text
    __aeabi_cdcmpeq
    __aeabi_cdcmple
        0x0000085c:    b510        ..      PUSH     {r4,lr}
        0x0000085e:    2900        .)      CMP      r1,#0
        0x00000860:    db04        ..      BLT      0x86c ; __aeabi_cdcmpeq + 16
        0x00000862:    2401        .$      MOVS     r4,#1
        0x00000864:    07e4        ..      LSLS     r4,r4,#31
        0x00000866:    4240        @B      RSBS     r0,r0,#0
        0x00000868:    418c        .A      SBCS     r4,r4,r1
        0x0000086a:    4621        !F      MOV      r1,r4
        0x0000086c:    2b00        .+      CMP      r3,#0
        0x0000086e:    db04        ..      BLT      0x87a ; __aeabi_cdcmpeq + 30
        0x00000870:    461c        .F      MOV      r4,r3
        0x00000872:    2301        .#      MOVS     r3,#1
        0x00000874:    07db        ..      LSLS     r3,r3,#31
        0x00000876:    4252        RB      RSBS     r2,r2,#0
        0x00000878:    41a3        .A      SBCS     r3,r3,r4
        0x0000087a:    428b        .B      CMP      r3,r1
        0x0000087c:    d100        ..      BNE      0x880 ; __aeabi_cdcmpeq + 36
        0x0000087e:    4282        .B      CMP      r2,r0
        0x00000880:    bd10        ..      POP      {r4,pc}
    $d
        0x00000882:    0000        ..      DCW    0
    $t
    .text
    __aeabi_cdrcmple
        0x00000884:    b510        ..      PUSH     {r4,lr}
        0x00000886:    2900        .)      CMP      r1,#0
        0x00000888:    db04        ..      BLT      0x894 ; __aeabi_cdrcmple + 16
        0x0000088a:    2401        .$      MOVS     r4,#1
        0x0000088c:    07e4        ..      LSLS     r4,r4,#31
        0x0000088e:    4240        @B      RSBS     r0,r0,#0
        0x00000890:    418c        .A      SBCS     r4,r4,r1
        0x00000892:    4621        !F      MOV      r1,r4
        0x00000894:    2b00        .+      CMP      r3,#0
        0x00000896:    db04        ..      BLT      0x8a2 ; __aeabi_cdrcmple + 30
        0x00000898:    461c        .F      MOV      r4,r3
        0x0000089a:    2301        .#      MOVS     r3,#1
        0x0000089c:    07db        ..      LSLS     r3,r3,#31
        0x0000089e:    4252        RB      RSBS     r2,r2,#0
        0x000008a0:    41a3        .A      SBCS     r3,r3,r4
        0x000008a2:    4299        .B      CMP      r1,r3
        0x000008a4:    d100        ..      BNE      0x8a8 ; __aeabi_cdrcmple + 36
        0x000008a6:    4290        .B      CMP      r0,r2
        0x000008a8:    bd10        ..      POP      {r4,pc}
    $d
        0x000008aa:    0000        ..      DCW    0
    $t
    .text
    __scatterload
    __scatterload_rt2
        0x000008ac:    b51c        ..      PUSH     {r2-r4,lr}
        0x000008ae:    4809        .H      LDR      r0,[pc,#36] ; [0x8d4] = 0x7920
        0x000008b0:    9000        ..      STR      r0,[sp,#0]
        0x000008b2:    4809        .H      LDR      r0,[pc,#36] ; [0x8d8] = 0x7940
        0x000008b4:    9001        ..      STR      r0,[sp,#4]
        0x000008b6:    4605        .F      MOV      r5,r0
        0x000008b8:    2601        .&      MOVS     r6,#1
        0x000008ba:    9c00        ..      LDR      r4,[sp,#0]
        0x000008bc:    e005        ..      B        0x8ca ; __scatterload + 30
        0x000008be:    68e3        .h      LDR      r3,[r4,#0xc]
        0x000008c0:    cc07        ..      LDM      r4!,{r0-r2}
        0x000008c2:    4333        3C      ORRS     r3,r3,r6
        0x000008c4:    3c0c        .<      SUBS     r4,r4,#0xc
        0x000008c6:    4798        .G      BLX      r3
        0x000008c8:    3410        .4      ADDS     r4,r4,#0x10
        0x000008ca:    42ac        .B      CMP      r4,r5
        0x000008cc:    d3f7        ..      BCC      0x8be ; __scatterload + 18
        0x000008ce:    f7fffbfb    ....    BL       __main_after_scatterload ; 0xc8
    $d
        0x000008d2:    0000        ..      DCW    0
        0x000008d4:    00007920     y..    DCD    31008
        0x000008d8:    00007940    @y..    DCD    31040
    $t
    .text
    __decompress
    __decompress0
        0x000008dc:    b530        0.      PUSH     {r4,r5,lr}
        0x000008de:    188c        ..      ADDS     r4,r1,r2
        0x000008e0:    7802        .x      LDRB     r2,[r0,#0]
        0x000008e2:    1c40        @.      ADDS     r0,r0,#1
        0x000008e4:    0713        ..      LSLS     r3,r2,#28
        0x000008e6:    0f1b        ..      LSRS     r3,r3,#28
        0x000008e8:    d101        ..      BNE      0x8ee ; __decompress + 18
        0x000008ea:    7803        .x      LDRB     r3,[r0,#0]
        0x000008ec:    1c40        @.      ADDS     r0,r0,#1
        0x000008ee:    0912        ..      LSRS     r2,r2,#4
        0x000008f0:    d106        ..      BNE      0x900 ; __decompress + 36
        0x000008f2:    7802        .x      LDRB     r2,[r0,#0]
        0x000008f4:    1c40        @.      ADDS     r0,r0,#1
        0x000008f6:    e003        ..      B        0x900 ; __decompress + 36
        0x000008f8:    7805        .x      LDRB     r5,[r0,#0]
        0x000008fa:    700d        .p      STRB     r5,[r1,#0]
        0x000008fc:    1c40        @.      ADDS     r0,r0,#1
        0x000008fe:    1c49        I.      ADDS     r1,r1,#1
        0x00000900:    1e5b        [.      SUBS     r3,r3,#1
        0x00000902:    d1f9        ..      BNE      0x8f8 ; __decompress + 28
        0x00000904:    e001        ..      B        0x90a ; __decompress + 46
        0x00000906:    700b        .p      STRB     r3,[r1,#0]
        0x00000908:    1c49        I.      ADDS     r1,r1,#1
        0x0000090a:    1e52        R.      SUBS     r2,r2,#1
        0x0000090c:    d1fb        ..      BNE      0x906 ; __decompress + 42
        0x0000090e:    42a1        .B      CMP      r1,r4
        0x00000910:    d3e6        ..      BCC      0x8e0 ; __decompress + 4
        0x00000912:    2000        .       MOVS     r0,#0
        0x00000914:    bd30        0.      POP      {r4,r5,pc}
    $t.13
    AES_CBC_decrypt_buffer
        0x00000916:    b5f0        ..      PUSH     {r4-r7,lr}
        0x00000918:    b089        ..      SUB      sp,sp,#0x24
        0x0000091a:    ab02        ..      ADD      r3,sp,#8
        0x0000091c:    c307        ..      STM      r3!,{r0-r2}
        0x0000091e:    30b0        .0      ADDS     r0,r0,#0xb0
        0x00000920:    9001        ..      STR      r0,[sp,#4]
        0x00000922:    2700        .'      MOVS     r7,#0
        0x00000924:    9804        ..      LDR      r0,[sp,#0x10]
        0x00000926:    4287        .B      CMP      r7,r0
        0x00000928:    d218        ..      BCS      0x95c ; AES_CBC_decrypt_buffer + 70
        0x0000092a:    9803        ..      LDR      r0,[sp,#0xc]
        0x0000092c:    19c6        ..      ADDS     r6,r0,r7
        0x0000092e:    ad05        ..      ADD      r5,sp,#0x14
        0x00000930:    2410        .$      MOVS     r4,#0x10
        0x00000932:    4628        (F      MOV      r0,r5
        0x00000934:    4631        1F      MOV      r1,r6
        0x00000936:    4622        "F      MOV      r2,r4
        0x00000938:    f7fffbf2    ....    BL       __aeabi_memcpy ; 0x120
        0x0000093c:    4630        0F      MOV      r0,r6
        0x0000093e:    9902        ..      LDR      r1,[sp,#8]
        0x00000940:    f001f98e    ....    BL       InvCipher ; 0x1c60
        0x00000944:    4630        0F      MOV      r0,r6
        0x00000946:    9e01        ..      LDR      r6,[sp,#4]
        0x00000948:    4631        1F      MOV      r1,r6
        0x0000094a:    f005fc05    ....    BL       XorWithIv ; 0x6158
        0x0000094e:    4630        0F      MOV      r0,r6
        0x00000950:    4629        )F      MOV      r1,r5
        0x00000952:    4622        "F      MOV      r2,r4
        0x00000954:    f7fffbe4    ....    BL       __aeabi_memcpy ; 0x120
        0x00000958:    3710        .7      ADDS     r7,r7,#0x10
        0x0000095a:    e7e3        ..      B        0x924 ; AES_CBC_decrypt_buffer + 14
        0x0000095c:    b009        ..      ADD      sp,sp,#0x24
        0x0000095e:    bdf0        ..      POP      {r4-r7,pc}
    AES_CBC_encrypt_buffer
        0x00000960:    b5fe        ..      PUSH     {r1-r7,lr}
        0x00000962:    4615        .F      MOV      r5,r2
        0x00000964:    9102        ..      STR      r1,[sp,#8]
        0x00000966:    4607        .F      MOV      r7,r0
        0x00000968:    4601        .F      MOV      r1,r0
        0x0000096a:    31b0        .1      ADDS     r1,r1,#0xb0
        0x0000096c:    2600        .&      MOVS     r6,#0
        0x0000096e:    9101        ..      STR      r1,[sp,#4]
        0x00000970:    42ae        .B      CMP      r6,r5
        0x00000972:    d20b        ..      BCS      0x98c ; AES_CBC_encrypt_buffer + 44
        0x00000974:    9802        ..      LDR      r0,[sp,#8]
        0x00000976:    1984        ..      ADDS     r4,r0,r6
        0x00000978:    4620         F      MOV      r0,r4
        0x0000097a:    f005fbed    ....    BL       XorWithIv ; 0x6158
        0x0000097e:    4620         F      MOV      r0,r4
        0x00000980:    4639        9F      MOV      r1,r7
        0x00000982:    f000fba1    ....    BL       Cipher ; 0x10c8
        0x00000986:    3610        .6      ADDS     r6,r6,#0x10
        0x00000988:    4621        !F      MOV      r1,r4
        0x0000098a:    e7f1        ..      B        0x970 ; AES_CBC_encrypt_buffer + 16
        0x0000098c:    2210        ."      MOVS     r2,#0x10
        0x0000098e:    9801        ..      LDR      r0,[sp,#4]
        0x00000990:    f7fffbc6    ....    BL       __aeabi_memcpy ; 0x120
        0x00000994:    bdfe        ..      POP      {r1-r7,pc}
    AES_init_ctx_iv
        0x00000996:    b5b0        ..      PUSH     {r4,r5,r7,lr}
        0x00000998:    4614        .F      MOV      r4,r2
        0x0000099a:    4605        .F      MOV      r5,r0
        0x0000099c:    f001fa4c    ..L.    BL       KeyExpansion ; 0x1e38
        0x000009a0:    35b0        .5      ADDS     r5,r5,#0xb0
        0x000009a2:    2210        ."      MOVS     r2,#0x10
        0x000009a4:    4628        (F      MOV      r0,r5
        0x000009a6:    4621        !F      MOV      r1,r4
        0x000009a8:    f7fffbba    ....    BL       __aeabi_memcpy ; 0x120
        0x000009ac:    bdb0        ..      POP      {r4,r5,r7,pc}
    AddRoundKey
        0x000009ae:    b5b0        ..      PUSH     {r4,r5,r7,lr}
        0x000009b0:    0100        ..      LSLS     r0,r0,#4
        0x000009b2:    1810        ..      ADDS     r0,r2,r0
        0x000009b4:    2200        ."      MOVS     r2,#0
        0x000009b6:    2a04        .*      CMP      r2,#4
        0x000009b8:    d00c        ..      BEQ      0x9d4 ; AddRoundKey + 38
        0x000009ba:    2300        .#      MOVS     r3,#0
        0x000009bc:    2b04        .+      CMP      r3,#4
        0x000009be:    d005        ..      BEQ      0x9cc ; AddRoundKey + 30
        0x000009c0:    5cc4        .\      LDRB     r4,[r0,r3]
        0x000009c2:    5ccd        .\      LDRB     r5,[r1,r3]
        0x000009c4:    4065        e@      EORS     r5,r5,r4
        0x000009c6:    54cd        .T      STRB     r5,[r1,r3]
        0x000009c8:    1c5b        [.      ADDS     r3,r3,#1
        0x000009ca:    e7f7        ..      B        0x9bc ; AddRoundKey + 14
        0x000009cc:    1d00        ..      ADDS     r0,r0,#4
        0x000009ce:    1d09        ..      ADDS     r1,r1,#4
        0x000009d0:    1c52        R.      ADDS     r2,r2,#1
        0x000009d2:    e7f0        ..      B        0x9b6 ; AddRoundKey + 8
        0x000009d4:    bdb0        ..      POP      {r4,r5,r7,pc}
        0x000009d6:    0000        ..      MOVS     r0,r0
    CLK_DisablePLL
        0x000009d8:    2001        .       MOVS     r0,#1
        0x000009da:    0400        ..      LSLS     r0,r0,#16
        0x000009dc:    49a4        .I      LDR      r1,[pc,#656] ; [0xc70] = 0x50000220
        0x000009de:    680a        .h      LDR      r2,[r1,#0]
        0x000009e0:    4302        .C      ORRS     r2,r2,r0
        0x000009e2:    600a        .`      STR      r2,[r1,#0]
        0x000009e4:    4770        pG      BX       lr
        0x000009e6:    46c0        .F      MOV      r8,r8
    CLK_EnableCKO
        0x000009e8:    2210        ."      MOVS     r2,#0x10
        0x000009ea:    430a        .C      ORRS     r2,r2,r1
        0x000009ec:    4905        .I      LDR      r1,[pc,#20] ; [0xa04] = 0x50000208
        0x000009ee:    61ca        .a      STR      r2,[r1,#0x1c]
        0x000009f0:    680a        .h      LDR      r2,[r1,#0]
        0x000009f2:    2340        @#      MOVS     r3,#0x40
        0x000009f4:    4313        .C      ORRS     r3,r3,r2
        0x000009f6:    600b        .`      STR      r3,[r1,#0]
        0x000009f8:    694a        Ji      LDR      r2,[r1,#0x14]
        0x000009fa:    230c        .#      MOVS     r3,#0xc
        0x000009fc:    439a        .C      BICS     r2,r2,r3
        0x000009fe:    4302        .C      ORRS     r2,r2,r0
        0x00000a00:    614a        Ja      STR      r2,[r1,#0x14]
        0x00000a02:    4770        pG      BX       lr
    $d.5
    __arm_cp.2_0
        0x00000a04:    50000208    ...P    DCD    1342177800
    $t.6
    CLK_EnableModuleClock
        0x00000a08:    211f        .!      MOVS     r1,#0x1f
        0x00000a0a:    4001        .@      ANDS     r1,r1,r0
        0x00000a0c:    2201        ."      MOVS     r2,#1
        0x00000a0e:    408a        .@      LSLS     r2,r2,r1
        0x00000a10:    0f80        ..      LSRS     r0,r0,#30
        0x00000a12:    0080        ..      LSLS     r0,r0,#2
        0x00000a14:    4903        .I      LDR      r1,[pc,#12] ; [0xa24] = 0x76e0
        0x00000a16:    5808        .X      LDR      r0,[r1,r0]
        0x00000a18:    4903        .I      LDR      r1,[pc,#12] ; [0xa28] = 0x50000204
        0x00000a1a:    5843        CX      LDR      r3,[r0,r1]
        0x00000a1c:    4313        .C      ORRS     r3,r3,r2
        0x00000a1e:    5043        CP      STR      r3,[r0,r1]
        0x00000a20:    4770        pG      BX       lr
        0x00000a22:    46c0        .F      MOV      r8,r8
    $d.7
    __arm_cp.3_0
        0x00000a24:    000076e0    .v..    DCD    30432
    __arm_cp.3_1
        0x00000a28:    50000204    ...P    DCD    1342177796
    $t.26
    CLK_EnablePLL
        0x00000a2c:    b5f0        ..      PUSH     {r4-r7,lr}
        0x00000a2e:    b087        ..      SUB      sp,sp,#0x1c
        0x00000a30:    4607        .F      MOV      r7,r0
        0x00000a32:    2501        .%      MOVS     r5,#1
        0x00000a34:    0428        (.      LSLS     r0,r5,#16
        0x00000a36:    4a5a        ZJ      LDR      r2,[pc,#360] ; [0xba0] = 0x50000200
        0x00000a38:    6210        .b      STR      r0,[r2,#0x20]
        0x00000a3a:    2404        .$      MOVS     r4,#4
        0x00000a3c:    2f00        ./      CMP      r7,#0
        0x00000a3e:    4628        (F      MOV      r0,r5
        0x00000a40:    d000        ..      BEQ      0xa44 ; CLK_EnablePLL + 24
        0x00000a42:    4620         F      MOV      r0,r4
        0x00000a44:    9106        ..      STR      r1,[sp,#0x18]
        0x00000a46:    6811        .h      LDR      r1,[r2,#0]
        0x00000a48:    4301        .C      ORRS     r1,r1,r0
        0x00000a4a:    6011        .`      STR      r1,[r2,#0]
        0x00000a4c:    2f00        ./      CMP      r7,#0
        0x00000a4e:    4628        (F      MOV      r0,r5
        0x00000a50:    d000        ..      BEQ      0xa54 ; CLK_EnablePLL + 40
        0x00000a52:    2010        .       MOVS     r0,#0x10
        0x00000a54:    f000f9e8    ....    BL       CLK_WaitClockReady ; 0xe28
        0x00000a58:    4852        RH      LDR      r0,[pc,#328] ; [0xba4] = 0xb71b00
        0x00000a5a:    4953        SI      LDR      r1,[pc,#332] ; [0xba8] = 0x1518000
        0x00000a5c:    2f00        ./      CMP      r7,#0
        0x00000a5e:    9002        ..      STR      r0,[sp,#8]
        0x00000a60:    d000        ..      BEQ      0xa64 ; CLK_EnablePLL + 56
        0x00000a62:    9102        ..      STR      r1,[sp,#8]
        0x00000a64:    2f00        ./      CMP      r7,#0
        0x00000a66:    d100        ..      BNE      0xa6a ; CLK_EnablePLL + 62
        0x00000a68:    2402        .$      MOVS     r4,#2
        0x00000a6a:    1e79        y.      SUBS     r1,r7,#1
        0x00000a6c:    463e        >F      MOV      r6,r7
        0x00000a6e:    4638        8F      MOV      r0,r7
        0x00000a70:    4188        .A      SBCS     r0,r0,r1
        0x00000a72:    494e        NI      LDR      r1,[pc,#312] ; [0xbac] = 0xfa0a1eff
        0x00000a74:    9b06        ..      LDR      r3,[sp,#0x18]
        0x00000a76:    1859        Y.      ADDS     r1,r3,r1
        0x00000a78:    2700        .'      MOVS     r7,#0
        0x00000a7a:    4a4d        MJ      LDR      r2,[pc,#308] ; [0xbb0] = 0x5f5e100
        0x00000a7c:    4291        .B      CMP      r1,r2
        0x00000a7e:    d201        ..      BCS      0xa84 ; CLK_EnablePLL + 88
        0x00000a80:    9701        ..      STR      r7,[sp,#4]
        0x00000a82:    e011        ..      B        0xaa8 ; CLK_EnablePLL + 124
        0x00000a84:    494b        KI      LDR      r1,[pc,#300] ; [0xbb4] = 0xfd050f7f
        0x00000a86:    1859        Y.      ADDS     r1,r3,r1
        0x00000a88:    4a4b        KJ      LDR      r2,[pc,#300] ; [0xbb8] = 0x2faf07f
        0x00000a8a:    4291        .B      CMP      r1,r2
        0x00000a8c:    d803        ..      BHI      0xa96 ; CLK_EnablePLL + 106
        0x00000a8e:    005b        [.      LSLS     r3,r3,#1
        0x00000a90:    9306        ..      STR      r3,[sp,#0x18]
        0x00000a92:    2101        .!      MOVS     r1,#1
        0x00000a94:    e007        ..      B        0xaa6 ; CLK_EnablePLL + 122
        0x00000a96:    4949        II      LDR      r1,[pc,#292] ; [0xbbc] = 0xfe8287c0
        0x00000a98:    1859        Y.      ADDS     r1,r3,r1
        0x00000a9a:    4a49        IJ      LDR      r2,[pc,#292] ; [0xbc0] = 0x17d7840
        0x00000a9c:    4291        .B      CMP      r1,r2
        0x00000a9e:    d856        V.      BHI      0xb4e ; CLK_EnablePLL + 290
        0x00000aa0:    009b        ..      LSLS     r3,r3,#2
        0x00000aa2:    9306        ..      STR      r3,[sp,#0x18]
        0x00000aa4:    2103        .!      MOVS     r1,#3
        0x00000aa6:    9101        ..      STR      r1,[sp,#4]
        0x00000aa8:    04c0        ..      LSLS     r0,r0,#19
        0x00000aaa:    9000        ..      STR      r0,[sp,#0]
        0x00000aac:    43fe        .C      MVNS     r6,r7
        0x00000aae:    4847        GH      LDR      r0,[pc,#284] ; [0xbcc] = 0x1ff
        0x00000ab0:    1c45        E.      ADDS     r5,r0,#1
        0x00000ab2:    9704        ..      STR      r7,[sp,#0x10]
        0x00000ab4:    9703        ..      STR      r7,[sp,#0xc]
        0x00000ab6:    2c21        !,      CMP      r4,#0x21
        0x00000ab8:    d830        0.      BHI      0xb1c ; CLK_EnablePLL + 240
        0x00000aba:    9802        ..      LDR      r0,[sp,#8]
        0x00000abc:    9405        ..      STR      r4,[sp,#0x14]
        0x00000abe:    4621        !F      MOV      r1,r4
        0x00000ac0:    f7fffd6c    ..l.    BL       __aeabi_uidiv ; 0x59c
        0x00000ac4:    4607        .F      MOV      r7,r0
        0x00000ac6:    4844        DH      LDR      r0,[pc,#272] ; [0xbd8] = 0xffe795ff
        0x00000ac8:    1838        8.      ADDS     r0,r7,r0
        0x00000aca:    4944        DI      LDR      r1,[pc,#272] ; [0xbdc] = 0xcc77be
        0x00000acc:    4288        .B      CMP      r0,r1
        0x00000ace:    d81c        ..      BHI      0xb0a ; CLK_EnablePLL + 222
        0x00000ad0:    2202        ."      MOVS     r2,#2
        0x00000ad2:    2100        .!      MOVS     r1,#0
        0x00000ad4:    428d        .B      CMP      r5,r1
        0x00000ad6:    d018        ..      BEQ      0xb0a ; CLK_EnablePLL + 222
        0x00000ad8:    4638        8F      MOV      r0,r7
        0x00000ada:    4350        PC      MULS     r0,r2,r0
        0x00000adc:    4b33        3K      LDR      r3,[pc,#204] ; [0xbac] = 0xfa0a1eff
        0x00000ade:    181b        ..      ADDS     r3,r3,r0
        0x00000ae0:    1c5b        [.      ADDS     r3,r3,#1
        0x00000ae2:    4c33        3L      LDR      r4,[pc,#204] ; [0xbb0] = 0x5f5e100
        0x00000ae4:    1c64        d.      ADDS     r4,r4,#1
        0x00000ae6:    42a3        .B      CMP      r3,r4
        0x00000ae8:    d20c        ..      BCS      0xb04 ; CLK_EnablePLL + 216
        0x00000aea:    9c06        ..      LDR      r4,[sp,#0x18]
        0x00000aec:    1a23        #.      SUBS     r3,r4,r0
        0x00000aee:    d200        ..      BCS      0xaf2 ; CLK_EnablePLL + 198
        0x00000af0:    1b03        ..      SUBS     r3,r0,r4
        0x00000af2:    42b3        .B      CMP      r3,r6
        0x00000af4:    d206        ..      BCS      0xb04 ; CLK_EnablePLL + 216
        0x00000af6:    2b00        .+      CMP      r3,#0
        0x00000af8:    d00a        ..      BEQ      0xb10 ; CLK_EnablePLL + 228
        0x00000afa:    1c88        ..      ADDS     r0,r1,#2
        0x00000afc:    9004        ..      STR      r0,[sp,#0x10]
        0x00000afe:    461e        .F      MOV      r6,r3
        0x00000b00:    9805        ..      LDR      r0,[sp,#0x14]
        0x00000b02:    9003        ..      STR      r0,[sp,#0xc]
        0x00000b04:    1c49        I.      ADDS     r1,r1,#1
        0x00000b06:    1c52        R.      ADDS     r2,r2,#1
        0x00000b08:    e7e4        ..      B        0xad4 ; CLK_EnablePLL + 168
        0x00000b0a:    9c05        ..      LDR      r4,[sp,#0x14]
        0x00000b0c:    1c64        d.      ADDS     r4,r4,#1
        0x00000b0e:    e7d2        ..      B        0xab6 ; CLK_EnablePLL + 138
        0x00000b10:    1c88        ..      ADDS     r0,r1,#2
        0x00000b12:    9004        ..      STR      r0,[sp,#0x10]
        0x00000b14:    2600        .&      MOVS     r6,#0
        0x00000b16:    9c05        ..      LDR      r4,[sp,#0x14]
        0x00000b18:    9403        ..      STR      r4,[sp,#0xc]
        0x00000b1a:    e7f7        ..      B        0xb0c ; CLK_EnablePLL + 224
        0x00000b1c:    9e03        ..      LDR      r6,[sp,#0xc]
        0x00000b1e:    0270        p.      LSLS     r0,r6,#9
        0x00000b20:    492c        ,I      LDR      r1,[pc,#176] ; [0xbd4] = 0xfffffc00
        0x00000b22:    1840        @.      ADDS     r0,r0,r1
        0x00000b24:    9d01        ..      LDR      r5,[sp,#4]
        0x00000b26:    03a9        ..      LSLS     r1,r5,#14
        0x00000b28:    9a00        ..      LDR      r2,[sp,#0]
        0x00000b2a:    4311        .C      ORRS     r1,r1,r2
        0x00000b2c:    9c04        ..      LDR      r4,[sp,#0x10]
        0x00000b2e:    1ea2        ..      SUBS     r2,r4,#2
        0x00000b30:    430a        .C      ORRS     r2,r2,r1
        0x00000b32:    4302        .C      ORRS     r2,r2,r0
        0x00000b34:    481a        .H      LDR      r0,[pc,#104] ; [0xba0] = 0x50000200
        0x00000b36:    6202        .b      STR      r2,[r0,#0x20]
        0x00000b38:    2004        .       MOVS     r0,#4
        0x00000b3a:    f000f975    ..u.    BL       CLK_WaitClockReady ; 0xe28
        0x00000b3e:    1c69        i.      ADDS     r1,r5,#1
        0x00000b40:    4371        qC      MULS     r1,r6,r1
        0x00000b42:    9802        ..      LDR      r0,[sp,#8]
        0x00000b44:    f7fffd2a    ..*.    BL       __aeabi_uidiv ; 0x59c
        0x00000b48:    4360        `C      MULS     r0,r4,r0
        0x00000b4a:    b007        ..      ADD      sp,sp,#0x1c
        0x00000b4c:    bdf0        ..      POP      {r4-r7,pc}
        0x00000b4e:    2e00        ..      CMP      r6,#0
        0x00000b50:    d001        ..      BEQ      0xb56 ; CLK_EnablePLL + 298
        0x00000b52:    481d        .H      LDR      r0,[pc,#116] ; [0xbc8] = 0x8d66f
        0x00000b54:    e000        ..      B        0xb58 ; CLK_EnablePLL + 300
        0x00000b56:    481b        .H      LDR      r0,[pc,#108] ; [0xbc4] = 0xc22e
        0x00000b58:    4c11        .L      LDR      r4,[pc,#68] ; [0xba0] = 0x50000200
        0x00000b5a:    6220         b      STR      r0,[r4,#0x20]
        0x00000b5c:    2004        .       MOVS     r0,#4
        0x00000b5e:    f000f963    ..c.    BL       CLK_WaitClockReady ; 0xe28
        0x00000b62:    6a21        !j      LDR      r1,[r4,#0x20]
        0x00000b64:    2005        .       MOVS     r0,#5
        0x00000b66:    0400        ..      LSLS     r0,r0,#16
        0x00000b68:    4201        .B      TST      r1,r0
        0x00000b6a:    d001        ..      BEQ      0xb70 ; CLK_EnablePLL + 324
        0x00000b6c:    2000        .       MOVS     r0,#0
        0x00000b6e:    e7ec        ..      B        0xb4a ; CLK_EnablePLL + 286
        0x00000b70:    04e8        ..      LSLS     r0,r5,#19
        0x00000b72:    4201        .B      TST      r1,r0
        0x00000b74:    480b        .H      LDR      r0,[pc,#44] ; [0xba4] = 0xb71b00
        0x00000b76:    d000        ..      BEQ      0xb7a ; CLK_EnablePLL + 334
        0x00000b78:    480b        .H      LDR      r0,[pc,#44] ; [0xba8] = 0x1518000
        0x00000b7a:    038a        ..      LSLS     r2,r1,#14
        0x00000b7c:    d4e5        ..      BMI      0xb4a ; CLK_EnablePLL + 286
        0x00000b7e:    4a13        .J      LDR      r2,[pc,#76] ; [0xbcc] = 0x1ff
        0x00000b80:    400a        .@      ANDS     r2,r2,r1
        0x00000b82:    1c92        ..      ADDS     r2,r2,#2
        0x00000b84:    0880        ..      LSRS     r0,r0,#2
        0x00000b86:    4350        PC      MULS     r0,r2,r0
        0x00000b88:    040a        ..      LSLS     r2,r1,#16
        0x00000b8a:    0f92        ..      LSRS     r2,r2,#30
        0x00000b8c:    a310        ..      ADR      r3,{pc}+0x44 ; 0xbd0
        0x00000b8e:    5c9a        .\      LDRB     r2,[r3,r2]
        0x00000b90:    0489        ..      LSLS     r1,r1,#18
        0x00000b92:    0ec9        ..      LSRS     r1,r1,#27
        0x00000b94:    1c89        ..      ADDS     r1,r1,#2
        0x00000b96:    4351        QC      MULS     r1,r2,r1
        0x00000b98:    f7fffd00    ....    BL       __aeabi_uidiv ; 0x59c
        0x00000b9c:    0080        ..      LSLS     r0,r0,#2
        0x00000b9e:    e7d4        ..      B        0xb4a ; CLK_EnablePLL + 286
    $d.27
    __arm_cp.13_0
        0x00000ba0:    50000200    ...P    DCD    1342177792
    __arm_cp.13_1
        0x00000ba4:    00b71b00    ....    DCD    12000000
    __arm_cp.13_2
        0x00000ba8:    01518000    ..Q.    DCD    22118400
    __arm_cp.13_3
        0x00000bac:    fa0a1eff    ....    DCD    4194967295
    __arm_cp.13_4
        0x00000bb0:    05f5e100    ....    DCD    100000000
    __arm_cp.13_5
        0x00000bb4:    fd050f7f    ....    DCD    4244967295
    __arm_cp.13_6
        0x00000bb8:    02faf07f    ....    DCD    49999999
    __arm_cp.13_7
        0x00000bbc:    fe8287c0    ....    DCD    4269967296
    __arm_cp.13_8
        0x00000bc0:    017d7840    @x}.    DCD    25000000
    __arm_cp.13_9
        0x00000bc4:    0000c22e    ....    DCD    49710
    __arm_cp.13_10
        0x00000bc8:    0008d66f    o...    DCD    579183
    __arm_cp.13_11
        0x00000bcc:    000001ff    ....    DCD    511
        0x00000bd0:    04020201    ....    DCD    67240449
    __arm_cp.13_13
        0x00000bd4:    fffffc00    ....    DCD    4294966272
    __arm_cp.13_14
        0x00000bd8:    ffe795ff    ....    DCD    4293367295
    __arm_cp.13_15
        0x00000bdc:    00cc77be    .w..    DCD    13399998
    $t.40
    CLK_EnableSysTick
        0x00000be0:    b570        p.      PUSH     {r4-r6,lr}
        0x00000be2:    4a90        .J      LDR      r2,[pc,#576] ; [0xe24] = 0xe000e010
        0x00000be4:    2300        .#      MOVS     r3,#0
        0x00000be6:    6013        .`      STR      r3,[r2,#0]
        0x00000be8:    2804        .(      CMP      r0,#4
        0x00000bea:    d104        ..      BNE      0xbf6 ; CLK_EnableSysTick + 22
        0x00000bec:    6810        .h      LDR      r0,[r2,#0]
        0x00000bee:    2404        .$      MOVS     r4,#4
        0x00000bf0:    4304        .C      ORRS     r4,r4,r0
        0x00000bf2:    6014        .`      STR      r4,[r2,#0]
        0x00000bf4:    e005        ..      B        0xc02 ; CLK_EnableSysTick + 34
        0x00000bf6:    4c75        uL      LDR      r4,[pc,#468] ; [0xdcc] = 0x50000210
        0x00000bf8:    6825        %h      LDR      r5,[r4,#0]
        0x00000bfa:    2638        8&      MOVS     r6,#0x38
        0x00000bfc:    43b5        .C      BICS     r5,r5,r6
        0x00000bfe:    4305        .C      ORRS     r5,r5,r0
        0x00000c00:    6025        %`      STR      r5,[r4,#0]
        0x00000c02:    6051        Q`      STR      r1,[r2,#4]
        0x00000c04:    6093        .`      STR      r3,[r2,#8]
        0x00000c06:    6810        .h      LDR      r0,[r2,#0]
        0x00000c08:    2103        .!      MOVS     r1,#3
        0x00000c0a:    4301        .C      ORRS     r1,r1,r0
        0x00000c0c:    6011        .`      STR      r1,[r2,#0]
        0x00000c0e:    bd70        p.      POP      {r4-r6,pc}
    CLK_EnableXtalRC
        0x00000c10:    4948        HI      LDR      r1,[pc,#288] ; [0xd34] = 0x50000200
        0x00000c12:    680a        .h      LDR      r2,[r1,#0]
        0x00000c14:    4302        .C      ORRS     r2,r2,r0
        0x00000c16:    600a        .`      STR      r2,[r1,#0]
        0x00000c18:    4770        pG      BX       lr
        0x00000c1a:    46c0        .F      MOV      r8,r8
    CLK_GetHCLKFreq
        0x00000c1c:    b580        ..      PUSH     {r7,lr}
        0x00000c1e:    f004fa21    ..!.    BL       SystemCoreClockUpdate ; 0x5064
        0x00000c22:    4801        .H      LDR      r0,[pc,#4] ; [0xc28] = 0x2000000c
        0x00000c24:    6800        .h      LDR      r0,[r0,#0]
        0x00000c26:    bd80        ..      POP      {r7,pc}
    $d.19
    __arm_cp.9_0
        0x00000c28:    2000000c    ...     DCD    536870924
    $t.2
    CLK_GetPLLClockFreq
        0x00000c2c:    b580        ..      PUSH     {r7,lr}
        0x00000c2e:    4810        .H      LDR      r0,[pc,#64] ; [0xc70] = 0x50000220
        0x00000c30:    6801        .h      LDR      r1,[r0,#0]
        0x00000c32:    2005        .       MOVS     r0,#5
        0x00000c34:    0400        ..      LSLS     r0,r0,#16
        0x00000c36:    4201        .B      TST      r1,r0
        0x00000c38:    d001        ..      BEQ      0xc3e ; CLK_GetPLLClockFreq + 18
        0x00000c3a:    2000        .       MOVS     r0,#0
        0x00000c3c:    bd80        ..      POP      {r7,pc}
        0x00000c3e:    0308        ..      LSLS     r0,r1,#12
        0x00000c40:    d501        ..      BPL      0xc46 ; CLK_GetPLLClockFreq + 26
        0x00000c42:    480d        .H      LDR      r0,[pc,#52] ; [0xc78] = 0x1518000
        0x00000c44:    e000        ..      B        0xc48 ; CLK_GetPLLClockFreq + 28
        0x00000c46:    480b        .H      LDR      r0,[pc,#44] ; [0xc74] = 0xb71b00
        0x00000c48:    038a        ..      LSLS     r2,r1,#14
        0x00000c4a:    d40f        ..      BMI      0xc6c ; CLK_GetPLLClockFreq + 64
        0x00000c4c:    4a0b        .J      LDR      r2,[pc,#44] ; [0xc7c] = 0x1ff
        0x00000c4e:    400a        .@      ANDS     r2,r2,r1
        0x00000c50:    1c92        ..      ADDS     r2,r2,#2
        0x00000c52:    0880        ..      LSRS     r0,r0,#2
        0x00000c54:    4350        PC      MULS     r0,r2,r0
        0x00000c56:    040a        ..      LSLS     r2,r1,#16
        0x00000c58:    0f92        ..      LSRS     r2,r2,#30
        0x00000c5a:    a309        ..      ADR      r3,{pc}+0x26 ; 0xc80
        0x00000c5c:    5c9a        .\      LDRB     r2,[r3,r2]
        0x00000c5e:    0489        ..      LSLS     r1,r1,#18
        0x00000c60:    0ec9        ..      LSRS     r1,r1,#27
        0x00000c62:    1c89        ..      ADDS     r1,r1,#2
        0x00000c64:    4351        QC      MULS     r1,r2,r1
        0x00000c66:    f7fffc99    ....    BL       __aeabi_uidiv ; 0x59c
        0x00000c6a:    0080        ..      LSLS     r0,r0,#2
        0x00000c6c:    bd80        ..      POP      {r7,pc}
        0x00000c6e:    46c0        .F      MOV      r8,r8
    $d.3
    __arm_cp.1_0
        0x00000c70:    50000220     ..P    DCD    1342177824
    __arm_cp.1_1
        0x00000c74:    00b71b00    ....    DCD    12000000
    __arm_cp.1_2
        0x00000c78:    01518000    ..Q.    DCD    22118400
    __arm_cp.1_3
        0x00000c7c:    000001ff    ....    DCD    511
        0x00000c80:    04020201    ....    DCD    67240449
    $t.24
    CLK_SetCoreClock
        0x00000c84:    b5f8        ..      PUSH     {r3-r7,lr}
        0x00000c86:    4601        .F      MOV      r1,r0
        0x00000c88:    4d2a        *M      LDR      r5,[pc,#168] ; [0xd34] = 0x50000200
        0x00000c8a:    68ef        .h      LDR      r7,[r5,#0xc]
        0x00000c8c:    6828        (h      LDR      r0,[r5,#0]
        0x00000c8e:    2604        .&      MOVS     r6,#4
        0x00000c90:    4330        0C      ORRS     r0,r0,r6
        0x00000c92:    6028        (`      STR      r0,[r5,#0]
        0x00000c94:    4815        .H      LDR      r0,[pc,#84] ; [0xcec] = 0x2faf080
        0x00000c96:    4281        .B      CMP      r1,r0
        0x00000c98:    d300        ..      BCC      0xc9c ; CLK_SetCoreClock + 24
        0x00000c9a:    4601        .F      MOV      r1,r0
        0x00000c9c:    68e8        .h      LDR      r0,[r5,#0xc]
        0x00000c9e:    06c0        ..      LSLS     r0,r0,#27
        0x00000ca0:    d5fc        ..      BPL      0xc9c ; CLK_SetCoreClock + 24
        0x00000ca2:    6928        (i      LDR      r0,[r5,#0x10]
        0x00000ca4:    2207        ."      MOVS     r2,#7
        0x00000ca6:    4302        .C      ORRS     r2,r2,r0
        0x00000ca8:    612a        *a      STR      r2,[r5,#0x10]
        0x00000caa:    2001        .       MOVS     r0,#1
        0x00000cac:    0402        ..      LSLS     r2,r0,#16
        0x00000cae:    6a2b        +j      LDR      r3,[r5,#0x20]
        0x00000cb0:    4313        .C      ORRS     r3,r3,r2
        0x00000cb2:    622b        +b      STR      r3,[r5,#0x20]
        0x00000cb4:    4a0e        .J      LDR      r2,[pc,#56] ; [0xcf0] = 0x17d7840
        0x00000cb6:    4291        .B      CMP      r1,r2
        0x00000cb8:    d800        ..      BHI      0xcbc ; CLK_SetCoreClock + 56
        0x00000cba:    4611        .F      MOV      r1,r2
        0x00000cbc:    68ea        .h      LDR      r2,[r5,#0xc]
        0x00000cbe:    07d2        ..      LSLS     r2,r2,#31
        0x00000cc0:    d105        ..      BNE      0xcce ; CLK_SetCoreClock + 74
        0x00000cc2:    04c0        ..      LSLS     r0,r0,#19
        0x00000cc4:    f7fffeb2    ....    BL       CLK_EnablePLL ; 0xa2c
        0x00000cc8:    4604        .F      MOV      r4,r0
        0x00000cca:    68ef        .h      LDR      r7,[r5,#0xc]
        0x00000ccc:    e003        ..      B        0xcd6 ; CLK_SetCoreClock + 82
        0x00000cce:    2000        .       MOVS     r0,#0
        0x00000cd0:    f7fffeac    ....    BL       CLK_EnablePLL ; 0xa2c
        0x00000cd4:    4604        .F      MOV      r4,r0
        0x00000cd6:    2002        .       MOVS     r0,#2
        0x00000cd8:    2100        .!      MOVS     r1,#0
        0x00000cda:    f000f80b    ....    BL       CLK_SetHCLK ; 0xcf4
        0x00000cde:    06f8        ..      LSLS     r0,r7,#27
        0x00000ce0:    d402        ..      BMI      0xce8 ; CLK_SetCoreClock + 100
        0x00000ce2:    6828        (h      LDR      r0,[r5,#0]
        0x00000ce4:    43b0        .C      BICS     r0,r0,r6
        0x00000ce6:    6028        (`      STR      r0,[r5,#0]
        0x00000ce8:    4620         F      MOV      r0,r4
        0x00000cea:    bdf8        ..      POP      {r3-r7,pc}
    $d.25
    __arm_cp.12_1
        0x00000cec:    02faf080    ....    DCD    50000000
    __arm_cp.12_2
        0x00000cf0:    017d7840    @x}.    DCD    25000000
    $t.28
    CLK_SetHCLK
        0x00000cf4:    b5f8        ..      PUSH     {r3-r7,lr}
        0x00000cf6:    4c0f        .L      LDR      r4,[pc,#60] ; [0xd34] = 0x50000200
        0x00000cf8:    68e6        .h      LDR      r6,[r4,#0xc]
        0x00000cfa:    6822        "h      LDR      r2,[r4,#0]
        0x00000cfc:    2504        .%      MOVS     r5,#4
        0x00000cfe:    432a        *C      ORRS     r2,r2,r5
        0x00000d00:    6022        "`      STR      r2,[r4,#0]
        0x00000d02:    68e2        .h      LDR      r2,[r4,#0xc]
        0x00000d04:    06d2        ..      LSLS     r2,r2,#27
        0x00000d06:    d5fc        ..      BPL      0xd02 ; CLK_SetHCLK + 14
        0x00000d08:    6922        "i      LDR      r2,[r4,#0x10]
        0x00000d0a:    2307        .#      MOVS     r3,#7
        0x00000d0c:    431a        .C      ORRS     r2,r2,r3
        0x00000d0e:    6122        "a      STR      r2,[r4,#0x10]
        0x00000d10:    69a2        .i      LDR      r2,[r4,#0x18]
        0x00000d12:    270f        .'      MOVS     r7,#0xf
        0x00000d14:    43ba        .C      BICS     r2,r2,r7
        0x00000d16:    430a        .C      ORRS     r2,r2,r1
        0x00000d18:    61a2        .a      STR      r2,[r4,#0x18]
        0x00000d1a:    6921        !i      LDR      r1,[r4,#0x10]
        0x00000d1c:    4399        .C      BICS     r1,r1,r3
        0x00000d1e:    4301        .C      ORRS     r1,r1,r0
        0x00000d20:    6121        !a      STR      r1,[r4,#0x10]
        0x00000d22:    f004f99f    ....    BL       SystemCoreClockUpdate ; 0x5064
        0x00000d26:    06f0        ..      LSLS     r0,r6,#27
        0x00000d28:    d402        ..      BMI      0xd30 ; CLK_SetHCLK + 60
        0x00000d2a:    6820         h      LDR      r0,[r4,#0]
        0x00000d2c:    43a8        .C      BICS     r0,r0,r5
        0x00000d2e:    6020         `      STR      r0,[r4,#0]
        0x00000d30:    bdf8        ..      POP      {r3-r7,pc}
        0x00000d32:    46c0        .F      MOV      r8,r8
    $d.29
    __arm_cp.14_0
        0x00000d34:    50000200    ...P    DCD    1342177792
    $t.8
    CLK_SetModuleClock
        0x00000d38:    b570        p.      PUSH     {r4-r6,lr}
        0x00000d3a:    0103        ..      LSLS     r3,r0,#4
        0x00000d3c:    0f5c        \.      LSRS     r4,r3,#29
        0x00000d3e:    d01b        ..      BEQ      0xd78 ; CLK_SetModuleClock + 64
        0x00000d40:    01c3        ..      LSLS     r3,r0,#7
        0x00000d42:    0edb        ..      LSRS     r3,r3,#27
        0x00000d44:    409c        .@      LSLS     r4,r4,r3
        0x00000d46:    0e83        ..      LSRS     r3,r0,#26
        0x00000d48:    250c        .%      MOVS     r5,#0xc
        0x00000d4a:    401d        .@      ANDS     r5,r5,r3
        0x00000d4c:    a31b        ..      ADR      r3,{pc}+0x70 ; 0xdbc
        0x00000d4e:    595d        ]Y      LDR      r5,[r3,r5]
        0x00000d50:    4b1e        .K      LDR      r3,[pc,#120] ; [0xdcc] = 0x50000210
        0x00000d52:    58ee        .X      LDR      r6,[r5,r3]
        0x00000d54:    43a6        .C      BICS     r6,r6,r4
        0x00000d56:    430e        .C      ORRS     r6,r6,r1
        0x00000d58:    50ee        .P      STR      r6,[r5,r3]
        0x00000d5a:    4c1d        .L      LDR      r4,[pc,#116] ; [0xdd0] = 0x66600017
        0x00000d5c:    42a0        .B      CMP      r0,r4
        0x00000d5e:    d024        $.      BEQ      0xdaa ; CLK_SetModuleClock + 114
        0x00000d60:    4c1c        .L      LDR      r4,[pc,#112] ; [0xdd4] = 0x57e00015
        0x00000d62:    42a0        .B      CMP      r0,r4
        0x00000d64:    d01b        ..      BEQ      0xd9e ; CLK_SetModuleClock + 102
        0x00000d66:    4c1c        .L      LDR      r4,[pc,#112] ; [0xdd8] = 0x66400016
        0x00000d68:    42a0        .B      CMP      r0,r4
        0x00000d6a:    d01b        ..      BEQ      0xda4 ; CLK_SetModuleClock + 108
        0x00000d6c:    4c1b        .L      LDR      r4,[pc,#108] ; [0xddc] = 0x57c00014
        0x00000d6e:    42a0        .B      CMP      r0,r4
        0x00000d70:    d102        ..      BNE      0xd78 ; CLK_SetModuleClock + 64
        0x00000d72:    2001        .       MOVS     r0,#1
        0x00000d74:    0200        ..      LSLS     r0,r0,#8
        0x00000d76:    e01a        ..      B        0xdae ; CLK_SetModuleClock + 118
        0x00000d78:    0a81        ..      LSRS     r1,r0,#10
        0x00000d7a:    b2c9        ..      UXTB     r1,r1
        0x00000d7c:    2900        .)      CMP      r1,#0
        0x00000d7e:    d00d        ..      BEQ      0xd9c ; CLK_SetModuleClock + 100
        0x00000d80:    0583        ..      LSLS     r3,r0,#22
        0x00000d82:    0edb        ..      LSRS     r3,r3,#27
        0x00000d84:    4099        .@      LSLS     r1,r1,r3
        0x00000d86:    0c00        ..      LSRS     r0,r0,#16
        0x00000d88:    230c        .#      MOVS     r3,#0xc
        0x00000d8a:    4003        .@      ANDS     r3,r3,r0
        0x00000d8c:    a014        ..      ADR      r0,{pc}+0x54 ; 0xde0
        0x00000d8e:    58c0        .X      LDR      r0,[r0,r3]
        0x00000d90:    4b0e        .K      LDR      r3,[pc,#56] ; [0xdcc] = 0x50000210
        0x00000d92:    18c0        ..      ADDS     r0,r0,r3
        0x00000d94:    6883        .h      LDR      r3,[r0,#8]
        0x00000d96:    438b        .C      BICS     r3,r3,r1
        0x00000d98:    4313        .C      ORRS     r3,r3,r2
        0x00000d9a:    6083        .`      STR      r3,[r0,#8]
        0x00000d9c:    bd70        p.      POP      {r4-r6,pc}
        0x00000d9e:    2001        .       MOVS     r0,#1
        0x00000da0:    0240        @.      LSLS     r0,r0,#9
        0x00000da2:    e004        ..      B        0xdae ; CLK_SetModuleClock + 118
        0x00000da4:    2001        .       MOVS     r0,#1
        0x00000da6:    0280        ..      LSLS     r0,r0,#10
        0x00000da8:    e001        ..      B        0xdae ; CLK_SetModuleClock + 118
        0x00000daa:    2001        .       MOVS     r0,#1
        0x00000dac:    02c0        ..      LSLS     r0,r0,#11
        0x00000dae:    4001        .@      ANDS     r1,r1,r0
        0x00000db0:    68da        .h      LDR      r2,[r3,#0xc]
        0x00000db2:    4382        .C      BICS     r2,r2,r0
        0x00000db4:    1850        P.      ADDS     r0,r2,r1
        0x00000db6:    60d8        .`      STR      r0,[r3,#0xc]
        0x00000db8:    bd70        p.      POP      {r4-r6,pc}
        0x00000dba:    46c0        .F      MOV      r8,r8
    $d.9
        0x00000dbc:    00000000    ....    DCD    0
        0x00000dc0:    00000004    ....    DCD    4
        0x00000dc4:    0000000c    ....    DCD    12
        0x00000dc8:    00000024    $...    DCD    36
    __arm_cp.4_1
        0x00000dcc:    50000210    ...P    DCD    1342177808
    __arm_cp.4_2
        0x00000dd0:    66600017    ..`f    DCD    1717567511
    __arm_cp.4_3
        0x00000dd4:    57e00015    ...W    DCD    1474297877
    __arm_cp.4_4
        0x00000dd8:    66400016    ..@f    DCD    1715470358
    __arm_cp.4_5
        0x00000ddc:    57c00014    ...W    DCD    1472200724
        0x00000de0:    00000000    ....    DCD    0
        0x00000de4:    00000020     ...    DCD    32
    $t.11
    CLK_SysTickDelay
        0x00000de8:    490d        .I      LDR      r1,[pc,#52] ; [0xe20] = 0x20000010
        0x00000dea:    6809        .h      LDR      r1,[r1,#0]
        0x00000dec:    4341        AC      MULS     r1,r0,r1
        0x00000dee:    480d        .H      LDR      r0,[pc,#52] ; [0xe24] = 0xe000e010
        0x00000df0:    6041        A`      STR      r1,[r0,#4]
        0x00000df2:    2100        .!      MOVS     r1,#0
        0x00000df4:    6081        .`      STR      r1,[r0,#8]
        0x00000df6:    2205        ."      MOVS     r2,#5
        0x00000df8:    6002        .`      STR      r2,[r0,#0]
        0x00000dfa:    6802        .h      LDR      r2,[r0,#0]
        0x00000dfc:    03d2        ..      LSLS     r2,r2,#15
        0x00000dfe:    d5fc        ..      BPL      0xdfa ; CLK_SysTickDelay + 18
        0x00000e00:    6001        .`      STR      r1,[r0,#0]
        0x00000e02:    4770        pG      BX       lr
    CLK_SysTickDelay
        0x00000e04:    4906        .I      LDR      r1,[pc,#24] ; [0xe20] = 0x20000010
        0x00000e06:    6809        .h      LDR      r1,[r1,#0]
        0x00000e08:    4341        AC      MULS     r1,r0,r1
        0x00000e0a:    4806        .H      LDR      r0,[pc,#24] ; [0xe24] = 0xe000e010
        0x00000e0c:    6041        A`      STR      r1,[r0,#4]
        0x00000e0e:    2100        .!      MOVS     r1,#0
        0x00000e10:    6081        .`      STR      r1,[r0,#8]
        0x00000e12:    2205        ."      MOVS     r2,#5
        0x00000e14:    6002        .`      STR      r2,[r0,#0]
        0x00000e16:    6802        .h      LDR      r2,[r0,#0]
        0x00000e18:    03d2        ..      LSLS     r2,r2,#15
        0x00000e1a:    d5fc        ..      BPL      0xe16 ; CLK_SysTickDelay + 18
        0x00000e1c:    6001        .`      STR      r1,[r0,#0]
        0x00000e1e:    4770        pG      BX       lr
    $d.11
    __arm_cp.5_0
        0x00000e20:    20000010    ...     DCD    536870928
    __arm_cp.5_1
        0x00000e24:    e000e010    ....    DCD    3758153744
    $t.36
    CLK_WaitClockReady
        0x00000e28:    4905        .I      LDR      r1,[pc,#20] ; [0xe40] = 0xffedb07f
        0x00000e2a:    4a06        .J      LDR      r2,[pc,#24] ; [0xe44] = 0x5000020c
        0x00000e2c:    6813        .h      LDR      r3,[r2,#0]
        0x00000e2e:    4003        .@      ANDS     r3,r3,r0
        0x00000e30:    4283        .B      CMP      r3,r0
        0x00000e32:    d003        ..      BEQ      0xe3c ; CLK_WaitClockReady + 20
        0x00000e34:    1c49        I.      ADDS     r1,r1,#1
        0x00000e36:    d3f9        ..      BCC      0xe2c ; CLK_WaitClockReady + 4
        0x00000e38:    2000        .       MOVS     r0,#0
        0x00000e3a:    4770        pG      BX       lr
        0x00000e3c:    2001        .       MOVS     r0,#1
        0x00000e3e:    4770        pG      BX       lr
    $d.37
    __arm_cp.18_0
        0x00000e40:    ffedb07f    ....    DCD    4293767295
    __arm_cp.18_1
        0x00000e44:    5000020c    ...P    DCD    1342177804
    $t.2
    CRC16
        0x00000e48:    b5f0        ..      PUSH     {r4-r7,lr}
        0x00000e4a:    23ff        .#      MOVS     r3,#0xff
        0x00000e4c:    4a09        .J      LDR      r2,[pc,#36] ; [0xe74] = 0x75c0
        0x00000e4e:    4c0a        .L      LDR      r4,[pc,#40] ; [0xe78] = 0x74c0
        0x00000e50:    461d        .F      MOV      r5,r3
        0x00000e52:    040e        ..      LSLS     r6,r1,#16
        0x00000e54:    b2ed        ..      UXTB     r5,r5
        0x00000e56:    d008        ..      BEQ      0xe6a ; CRC16 + 34
        0x00000e58:    7806        .x      LDRB     r6,[r0,#0]
        0x00000e5a:    406e        n@      EORS     r6,r6,r5
        0x00000e5c:    5d97        .]      LDRB     r7,[r2,r6]
        0x00000e5e:    5da5        .]      LDRB     r5,[r4,r6]
        0x00000e60:    405d        ]@      EORS     r5,r5,r3
        0x00000e62:    1c40        @.      ADDS     r0,r0,#1
        0x00000e64:    1e49        I.      SUBS     r1,r1,#1
        0x00000e66:    463b        ;F      MOV      r3,r7
        0x00000e68:    e7f3        ..      B        0xe52 ; CRC16 + 10
        0x00000e6a:    0218        ..      LSLS     r0,r3,#8
        0x00000e6c:    1940        @.      ADDS     r0,r0,r5
        0x00000e6e:    b280        ..      UXTH     r0,r0
        0x00000e70:    bdf0        ..      POP      {r4-r7,pc}
        0x00000e72:    46c0        .F      MOV      r8,r8
    $d.3
    __arm_cp.1_0
        0x00000e74:    000075c0    .u..    DCD    30144
    __arm_cp.1_1
        0x00000e78:    000074c0    .t..    DCD    29888
    $t.0
    Check_Button_Status_1
        0x00000e7c:    b510        ..      PUSH     {r4,lr}
        0x00000e7e:    488e        .H      LDR      r0,[pc,#568] ; [0x10b8] = 0x2000036c
        0x00000e80:    2101        .!      MOVS     r1,#1
        0x00000e82:    7001        .p      STRB     r1,[r0,#0]
        0x00000e84:    4a0e        .J      LDR      r2,[pc,#56] ; [0xec0] = 0x50004218
        0x00000e86:    6813        .h      LDR      r3,[r2,#0]
        0x00000e88:    2b01        .+      CMP      r3,#1
        0x00000e8a:    d109        ..      BNE      0xea0 ; Check_Button_Status_1 + 36
        0x00000e8c:    4b8c        .K      LDR      r3,[pc,#560] ; [0x10c0] = 0x20000408
        0x00000e8e:    69db        .i      LDR      r3,[r3,#0x1c]
        0x00000e90:    6884        .h      LDR      r4,[r0,#8]
        0x00000e92:    429c        .B      CMP      r4,r3
        0x00000e94:    d302        ..      BCC      0xe9c ; Check_Button_Status_1 + 32
        0x00000e96:    4b8b        .K      LDR      r3,[pc,#556] ; [0x10c4] = 0x20000004
        0x00000e98:    2402        .$      MOVS     r4,#2
        0x00000e9a:    701c        .p      STRB     r4,[r3,#0]
        0x00000e9c:    2300        .#      MOVS     r3,#0
        0x00000e9e:    6083        .`      STR      r3,[r0,#8]
        0x00000ea0:    6812        .h      LDR      r2,[r2,#0]
        0x00000ea2:    2a00        .*      CMP      r2,#0
        0x00000ea4:    d108        ..      BNE      0xeb8 ; Check_Button_Status_1 + 60
        0x00000ea6:    4a86        .J      LDR      r2,[pc,#536] ; [0x10c0] = 0x20000408
        0x00000ea8:    69d2        .i      LDR      r2,[r2,#0x1c]
        0x00000eaa:    68c3        .h      LDR      r3,[r0,#0xc]
        0x00000eac:    4293        .B      CMP      r3,r2
        0x00000eae:    d301        ..      BCC      0xeb4 ; Check_Button_Status_1 + 56
        0x00000eb0:    4a84        .J      LDR      r2,[pc,#528] ; [0x10c4] = 0x20000004
        0x00000eb2:    7011        .p      STRB     r1,[r2,#0]
        0x00000eb4:    2100        .!      MOVS     r1,#0
        0x00000eb6:    60c1        .`      STR      r1,[r0,#0xc]
        0x00000eb8:    4882        .H      LDR      r0,[pc,#520] ; [0x10c4] = 0x20000004
        0x00000eba:    7800        .x      LDRB     r0,[r0,#0]
        0x00000ebc:    bd10        ..      POP      {r4,pc}
        0x00000ebe:    46c0        .F      MOV      r8,r8
    $d.1
    __arm_cp.0_1
        0x00000ec0:    50004218    .B.P    DCD    1342194200
    $t.2
    Check_Button_Status_2
        0x00000ec4:    b510        ..      PUSH     {r4,lr}
        0x00000ec6:    487c        |H      LDR      r0,[pc,#496] ; [0x10b8] = 0x2000036c
        0x00000ec8:    2101        .!      MOVS     r1,#1
        0x00000eca:    7041        Ap      STRB     r1,[r0,#1]
        0x00000ecc:    4a0e        .J      LDR      r2,[pc,#56] ; [0xf08] = 0x5000429c
        0x00000ece:    6813        .h      LDR      r3,[r2,#0]
        0x00000ed0:    2b01        .+      CMP      r3,#1
        0x00000ed2:    d109        ..      BNE      0xee8 ; Check_Button_Status_2 + 36
        0x00000ed4:    4b7a        zK      LDR      r3,[pc,#488] ; [0x10c0] = 0x20000408
        0x00000ed6:    69db        .i      LDR      r3,[r3,#0x1c]
        0x00000ed8:    6904        .i      LDR      r4,[r0,#0x10]
        0x00000eda:    429c        .B      CMP      r4,r3
        0x00000edc:    d302        ..      BCC      0xee4 ; Check_Button_Status_2 + 32
        0x00000ede:    4b79        yK      LDR      r3,[pc,#484] ; [0x10c4] = 0x20000004
        0x00000ee0:    2402        .$      MOVS     r4,#2
        0x00000ee2:    705c        \p      STRB     r4,[r3,#1]
        0x00000ee4:    2300        .#      MOVS     r3,#0
        0x00000ee6:    6103        .a      STR      r3,[r0,#0x10]
        0x00000ee8:    6812        .h      LDR      r2,[r2,#0]
        0x00000eea:    2a00        .*      CMP      r2,#0
        0x00000eec:    d108        ..      BNE      0xf00 ; Check_Button_Status_2 + 60
        0x00000eee:    4a74        tJ      LDR      r2,[pc,#464] ; [0x10c0] = 0x20000408
        0x00000ef0:    69d2        .i      LDR      r2,[r2,#0x1c]
        0x00000ef2:    6943        Ci      LDR      r3,[r0,#0x14]
        0x00000ef4:    4293        .B      CMP      r3,r2
        0x00000ef6:    d301        ..      BCC      0xefc ; Check_Button_Status_2 + 56
        0x00000ef8:    4a72        rJ      LDR      r2,[pc,#456] ; [0x10c4] = 0x20000004
        0x00000efa:    7051        Qp      STRB     r1,[r2,#1]
        0x00000efc:    2100        .!      MOVS     r1,#0
        0x00000efe:    6141        Aa      STR      r1,[r0,#0x14]
        0x00000f00:    4870        pH      LDR      r0,[pc,#448] ; [0x10c4] = 0x20000004
        0x00000f02:    7840        @x      LDRB     r0,[r0,#1]
        0x00000f04:    bd10        ..      POP      {r4,pc}
        0x00000f06:    46c0        .F      MOV      r8,r8
    $d.3
    __arm_cp.1_1
        0x00000f08:    5000429c    .B.P    DCD    1342194332
    $t.4
    Check_Button_Status_3
        0x00000f0c:    b510        ..      PUSH     {r4,lr}
        0x00000f0e:    486a        jH      LDR      r0,[pc,#424] ; [0x10b8] = 0x2000036c
        0x00000f10:    2101        .!      MOVS     r1,#1
        0x00000f12:    7081        .p      STRB     r1,[r0,#2]
        0x00000f14:    4a0e        .J      LDR      r2,[pc,#56] ; [0xf50] = 0x50004298
        0x00000f16:    6813        .h      LDR      r3,[r2,#0]
        0x00000f18:    2b01        .+      CMP      r3,#1
        0x00000f1a:    d109        ..      BNE      0xf30 ; Check_Button_Status_3 + 36
        0x00000f1c:    4b68        hK      LDR      r3,[pc,#416] ; [0x10c0] = 0x20000408
        0x00000f1e:    69db        .i      LDR      r3,[r3,#0x1c]
        0x00000f20:    6984        .i      LDR      r4,[r0,#0x18]
        0x00000f22:    429c        .B      CMP      r4,r3
        0x00000f24:    d302        ..      BCC      0xf2c ; Check_Button_Status_3 + 32
        0x00000f26:    4b67        gK      LDR      r3,[pc,#412] ; [0x10c4] = 0x20000004
        0x00000f28:    2402        .$      MOVS     r4,#2
        0x00000f2a:    709c        .p      STRB     r4,[r3,#2]
        0x00000f2c:    2300        .#      MOVS     r3,#0
        0x00000f2e:    6183        .a      STR      r3,[r0,#0x18]
        0x00000f30:    6812        .h      LDR      r2,[r2,#0]
        0x00000f32:    2a00        .*      CMP      r2,#0
        0x00000f34:    d108        ..      BNE      0xf48 ; Check_Button_Status_3 + 60
        0x00000f36:    4a62        bJ      LDR      r2,[pc,#392] ; [0x10c0] = 0x20000408
        0x00000f38:    69d2        .i      LDR      r2,[r2,#0x1c]
        0x00000f3a:    69c3        .i      LDR      r3,[r0,#0x1c]
        0x00000f3c:    4293        .B      CMP      r3,r2
        0x00000f3e:    d301        ..      BCC      0xf44 ; Check_Button_Status_3 + 56
        0x00000f40:    4a60        `J      LDR      r2,[pc,#384] ; [0x10c4] = 0x20000004
        0x00000f42:    7091        .p      STRB     r1,[r2,#2]
        0x00000f44:    2100        .!      MOVS     r1,#0
        0x00000f46:    61c1        .a      STR      r1,[r0,#0x1c]
        0x00000f48:    485e        ^H      LDR      r0,[pc,#376] ; [0x10c4] = 0x20000004
        0x00000f4a:    7880        .x      LDRB     r0,[r0,#2]
        0x00000f4c:    bd10        ..      POP      {r4,pc}
        0x00000f4e:    46c0        .F      MOV      r8,r8
    $d.5
    __arm_cp.2_1
        0x00000f50:    50004298    .B.P    DCD    1342194328
    $t.6
    Check_Button_Status_4
        0x00000f54:    b510        ..      PUSH     {r4,lr}
        0x00000f56:    4858        XH      LDR      r0,[pc,#352] ; [0x10b8] = 0x2000036c
        0x00000f58:    2101        .!      MOVS     r1,#1
        0x00000f5a:    70c1        .p      STRB     r1,[r0,#3]
        0x00000f5c:    4a0e        .J      LDR      r2,[pc,#56] ; [0xf98] = 0x5000427c
        0x00000f5e:    6813        .h      LDR      r3,[r2,#0]
        0x00000f60:    2b01        .+      CMP      r3,#1
        0x00000f62:    d109        ..      BNE      0xf78 ; Check_Button_Status_4 + 36
        0x00000f64:    4b56        VK      LDR      r3,[pc,#344] ; [0x10c0] = 0x20000408
        0x00000f66:    69db        .i      LDR      r3,[r3,#0x1c]
        0x00000f68:    6a04        .j      LDR      r4,[r0,#0x20]
        0x00000f6a:    429c        .B      CMP      r4,r3
        0x00000f6c:    d302        ..      BCC      0xf74 ; Check_Button_Status_4 + 32
        0x00000f6e:    4b55        UK      LDR      r3,[pc,#340] ; [0x10c4] = 0x20000004
        0x00000f70:    2402        .$      MOVS     r4,#2
        0x00000f72:    70dc        .p      STRB     r4,[r3,#3]
        0x00000f74:    2300        .#      MOVS     r3,#0
        0x00000f76:    6203        .b      STR      r3,[r0,#0x20]
        0x00000f78:    6812        .h      LDR      r2,[r2,#0]
        0x00000f7a:    2a00        .*      CMP      r2,#0
        0x00000f7c:    d108        ..      BNE      0xf90 ; Check_Button_Status_4 + 60
        0x00000f7e:    4a50        PJ      LDR      r2,[pc,#320] ; [0x10c0] = 0x20000408
        0x00000f80:    69d2        .i      LDR      r2,[r2,#0x1c]
        0x00000f82:    6a43        Cj      LDR      r3,[r0,#0x24]
        0x00000f84:    4293        .B      CMP      r3,r2
        0x00000f86:    d301        ..      BCC      0xf8c ; Check_Button_Status_4 + 56
        0x00000f88:    4a4e        NJ      LDR      r2,[pc,#312] ; [0x10c4] = 0x20000004
        0x00000f8a:    70d1        .p      STRB     r1,[r2,#3]
        0x00000f8c:    2100        .!      MOVS     r1,#0
        0x00000f8e:    6241        Ab      STR      r1,[r0,#0x24]
        0x00000f90:    484c        LH      LDR      r0,[pc,#304] ; [0x10c4] = 0x20000004
        0x00000f92:    78c0        .x      LDRB     r0,[r0,#3]
        0x00000f94:    bd10        ..      POP      {r4,pc}
        0x00000f96:    46c0        .F      MOV      r8,r8
    $d.7
    __arm_cp.3_1
        0x00000f98:    5000427c    |B.P    DCD    1342194300
    $t.8
    Check_Button_Status_5
        0x00000f9c:    b510        ..      PUSH     {r4,lr}
        0x00000f9e:    4846        FH      LDR      r0,[pc,#280] ; [0x10b8] = 0x2000036c
        0x00000fa0:    2101        .!      MOVS     r1,#1
        0x00000fa2:    7101        .q      STRB     r1,[r0,#4]
        0x00000fa4:    4a0e        .J      LDR      r2,[pc,#56] ; [0xfe0] = 0x50004260
        0x00000fa6:    6813        .h      LDR      r3,[r2,#0]
        0x00000fa8:    2b01        .+      CMP      r3,#1
        0x00000faa:    d109        ..      BNE      0xfc0 ; Check_Button_Status_5 + 36
        0x00000fac:    4b44        DK      LDR      r3,[pc,#272] ; [0x10c0] = 0x20000408
        0x00000fae:    69db        .i      LDR      r3,[r3,#0x1c]
        0x00000fb0:    6a84        .j      LDR      r4,[r0,#0x28]
        0x00000fb2:    429c        .B      CMP      r4,r3
        0x00000fb4:    d302        ..      BCC      0xfbc ; Check_Button_Status_5 + 32
        0x00000fb6:    4b43        CK      LDR      r3,[pc,#268] ; [0x10c4] = 0x20000004
        0x00000fb8:    2402        .$      MOVS     r4,#2
        0x00000fba:    711c        .q      STRB     r4,[r3,#4]
        0x00000fbc:    2300        .#      MOVS     r3,#0
        0x00000fbe:    6283        .b      STR      r3,[r0,#0x28]
        0x00000fc0:    6812        .h      LDR      r2,[r2,#0]
        0x00000fc2:    2a00        .*      CMP      r2,#0
        0x00000fc4:    d108        ..      BNE      0xfd8 ; Check_Button_Status_5 + 60
        0x00000fc6:    4a3e        >J      LDR      r2,[pc,#248] ; [0x10c0] = 0x20000408
        0x00000fc8:    69d2        .i      LDR      r2,[r2,#0x1c]
        0x00000fca:    6ac3        .j      LDR      r3,[r0,#0x2c]
        0x00000fcc:    4293        .B      CMP      r3,r2
        0x00000fce:    d301        ..      BCC      0xfd4 ; Check_Button_Status_5 + 56
        0x00000fd0:    4a3c        <J      LDR      r2,[pc,#240] ; [0x10c4] = 0x20000004
        0x00000fd2:    7111        .q      STRB     r1,[r2,#4]
        0x00000fd4:    2100        .!      MOVS     r1,#0
        0x00000fd6:    62c1        .b      STR      r1,[r0,#0x2c]
        0x00000fd8:    483a        :H      LDR      r0,[pc,#232] ; [0x10c4] = 0x20000004
        0x00000fda:    7900        .y      LDRB     r0,[r0,#4]
        0x00000fdc:    bd10        ..      POP      {r4,pc}
        0x00000fde:    46c0        .F      MOV      r8,r8
    $d.9
    __arm_cp.4_1
        0x00000fe0:    50004260    `B.P    DCD    1342194272
    $t.10
    Check_Button_Status_6
        0x00000fe4:    b510        ..      PUSH     {r4,lr}
        0x00000fe6:    4834        4H      LDR      r0,[pc,#208] ; [0x10b8] = 0x2000036c
        0x00000fe8:    2101        .!      MOVS     r1,#1
        0x00000fea:    7141        Aq      STRB     r1,[r0,#5]
        0x00000fec:    4a0e        .J      LDR      r2,[pc,#56] ; [0x1028] = 0x5000422c
        0x00000fee:    6813        .h      LDR      r3,[r2,#0]
        0x00000ff0:    2b01        .+      CMP      r3,#1
        0x00000ff2:    d109        ..      BNE      0x1008 ; Check_Button_Status_6 + 36
        0x00000ff4:    4b32        2K      LDR      r3,[pc,#200] ; [0x10c0] = 0x20000408
        0x00000ff6:    69db        .i      LDR      r3,[r3,#0x1c]
        0x00000ff8:    6b04        .k      LDR      r4,[r0,#0x30]
        0x00000ffa:    429c        .B      CMP      r4,r3
        0x00000ffc:    d302        ..      BCC      0x1004 ; Check_Button_Status_6 + 32
        0x00000ffe:    4b31        1K      LDR      r3,[pc,#196] ; [0x10c4] = 0x20000004
        0x00001000:    2402        .$      MOVS     r4,#2
        0x00001002:    715c        \q      STRB     r4,[r3,#5]
        0x00001004:    2300        .#      MOVS     r3,#0
        0x00001006:    6303        .c      STR      r3,[r0,#0x30]
        0x00001008:    6812        .h      LDR      r2,[r2,#0]
        0x0000100a:    2a00        .*      CMP      r2,#0
        0x0000100c:    d108        ..      BNE      0x1020 ; Check_Button_Status_6 + 60
        0x0000100e:    4a2c        ,J      LDR      r2,[pc,#176] ; [0x10c0] = 0x20000408
        0x00001010:    69d2        .i      LDR      r2,[r2,#0x1c]
        0x00001012:    6b43        Ck      LDR      r3,[r0,#0x34]
        0x00001014:    4293        .B      CMP      r3,r2
        0x00001016:    d301        ..      BCC      0x101c ; Check_Button_Status_6 + 56
        0x00001018:    4a2a        *J      LDR      r2,[pc,#168] ; [0x10c4] = 0x20000004
        0x0000101a:    7151        Qq      STRB     r1,[r2,#5]
        0x0000101c:    2100        .!      MOVS     r1,#0
        0x0000101e:    6341        Ac      STR      r1,[r0,#0x34]
        0x00001020:    4828        (H      LDR      r0,[pc,#160] ; [0x10c4] = 0x20000004
        0x00001022:    7940        @y      LDRB     r0,[r0,#5]
        0x00001024:    bd10        ..      POP      {r4,pc}
        0x00001026:    46c0        .F      MOV      r8,r8
    $d.11
    __arm_cp.5_1
        0x00001028:    5000422c    ,B.P    DCD    1342194220
    $t.12
    Check_Button_Status_7
        0x0000102c:    b510        ..      PUSH     {r4,lr}
        0x0000102e:    4822        "H      LDR      r0,[pc,#136] ; [0x10b8] = 0x2000036c
        0x00001030:    2101        .!      MOVS     r1,#1
        0x00001032:    7181        .q      STRB     r1,[r0,#6]
        0x00001034:    4a0e        .J      LDR      r2,[pc,#56] ; [0x1070] = 0x50004228
        0x00001036:    6813        .h      LDR      r3,[r2,#0]
        0x00001038:    2b01        .+      CMP      r3,#1
        0x0000103a:    d109        ..      BNE      0x1050 ; Check_Button_Status_7 + 36
        0x0000103c:    4b20         K      LDR      r3,[pc,#128] ; [0x10c0] = 0x20000408
        0x0000103e:    69db        .i      LDR      r3,[r3,#0x1c]
        0x00001040:    6b84        .k      LDR      r4,[r0,#0x38]
        0x00001042:    429c        .B      CMP      r4,r3
        0x00001044:    d302        ..      BCC      0x104c ; Check_Button_Status_7 + 32
        0x00001046:    4b1f        .K      LDR      r3,[pc,#124] ; [0x10c4] = 0x20000004
        0x00001048:    2402        .$      MOVS     r4,#2
        0x0000104a:    719c        .q      STRB     r4,[r3,#6]
        0x0000104c:    2300        .#      MOVS     r3,#0
        0x0000104e:    6383        .c      STR      r3,[r0,#0x38]
        0x00001050:    6812        .h      LDR      r2,[r2,#0]
        0x00001052:    2a00        .*      CMP      r2,#0
        0x00001054:    d108        ..      BNE      0x1068 ; Check_Button_Status_7 + 60
        0x00001056:    4a1a        .J      LDR      r2,[pc,#104] ; [0x10c0] = 0x20000408
        0x00001058:    69d2        .i      LDR      r2,[r2,#0x1c]
        0x0000105a:    6bc3        .k      LDR      r3,[r0,#0x3c]
        0x0000105c:    4293        .B      CMP      r3,r2
        0x0000105e:    d301        ..      BCC      0x1064 ; Check_Button_Status_7 + 56
        0x00001060:    4a18        .J      LDR      r2,[pc,#96] ; [0x10c4] = 0x20000004
        0x00001062:    7191        .q      STRB     r1,[r2,#6]
        0x00001064:    2100        .!      MOVS     r1,#0
        0x00001066:    63c1        .c      STR      r1,[r0,#0x3c]
        0x00001068:    4816        .H      LDR      r0,[pc,#88] ; [0x10c4] = 0x20000004
        0x0000106a:    7980        .y      LDRB     r0,[r0,#6]
        0x0000106c:    bd10        ..      POP      {r4,pc}
        0x0000106e:    46c0        .F      MOV      r8,r8
    $d.13
    __arm_cp.6_1
        0x00001070:    50004228    (B.P    DCD    1342194216
    $t.14
    Check_Button_Status_8
        0x00001074:    b510        ..      PUSH     {r4,lr}
        0x00001076:    4810        .H      LDR      r0,[pc,#64] ; [0x10b8] = 0x2000036c
        0x00001078:    2101        .!      MOVS     r1,#1
        0x0000107a:    71c1        .q      STRB     r1,[r0,#7]
        0x0000107c:    4a0f        .J      LDR      r2,[pc,#60] ; [0x10bc] = 0x50004224
        0x0000107e:    6813        .h      LDR      r3,[r2,#0]
        0x00001080:    2b01        .+      CMP      r3,#1
        0x00001082:    d109        ..      BNE      0x1098 ; Check_Button_Status_8 + 36
        0x00001084:    4b0e        .K      LDR      r3,[pc,#56] ; [0x10c0] = 0x20000408
        0x00001086:    69db        .i      LDR      r3,[r3,#0x1c]
        0x00001088:    6c04        .l      LDR      r4,[r0,#0x40]
        0x0000108a:    429c        .B      CMP      r4,r3
        0x0000108c:    d302        ..      BCC      0x1094 ; Check_Button_Status_8 + 32
        0x0000108e:    4b0d        .K      LDR      r3,[pc,#52] ; [0x10c4] = 0x20000004
        0x00001090:    2402        .$      MOVS     r4,#2
        0x00001092:    71dc        .q      STRB     r4,[r3,#7]
        0x00001094:    2300        .#      MOVS     r3,#0
        0x00001096:    6403        .d      STR      r3,[r0,#0x40]
        0x00001098:    6812        .h      LDR      r2,[r2,#0]
        0x0000109a:    2a00        .*      CMP      r2,#0
        0x0000109c:    d108        ..      BNE      0x10b0 ; Check_Button_Status_8 + 60
        0x0000109e:    4a08        .J      LDR      r2,[pc,#32] ; [0x10c0] = 0x20000408
        0x000010a0:    69d2        .i      LDR      r2,[r2,#0x1c]
        0x000010a2:    6c43        Cl      LDR      r3,[r0,#0x44]
        0x000010a4:    4293        .B      CMP      r3,r2
        0x000010a6:    d301        ..      BCC      0x10ac ; Check_Button_Status_8 + 56
        0x000010a8:    4a06        .J      LDR      r2,[pc,#24] ; [0x10c4] = 0x20000004
        0x000010aa:    71d1        .q      STRB     r1,[r2,#7]
        0x000010ac:    2100        .!      MOVS     r1,#0
        0x000010ae:    6441        Ad      STR      r1,[r0,#0x44]
        0x000010b0:    4804        .H      LDR      r0,[pc,#16] ; [0x10c4] = 0x20000004
        0x000010b2:    79c0        .y      LDRB     r0,[r0,#7]
        0x000010b4:    bd10        ..      POP      {r4,pc}
        0x000010b6:    46c0        .F      MOV      r8,r8
    $d.15
    __arm_cp.7_0
        0x000010b8:    2000036c    l..     DCD    536871788
    __arm_cp.7_1
        0x000010bc:    50004224    $B.P    DCD    1342194212
    __arm_cp.7_2
        0x000010c0:    20000408    ...     DCD    536871944
    __arm_cp.7_3
        0x000010c4:    20000004    ...     DCD    536870916
    $t.6
    Cipher
        0x000010c8:    b5f0        ..      PUSH     {r4-r7,lr}
        0x000010ca:    b08b        ..      SUB      sp,sp,#0x2c
        0x000010cc:    460a        .F      MOV      r2,r1
        0x000010ce:    4605        .F      MOV      r5,r0
        0x000010d0:    2000        .       MOVS     r0,#0
        0x000010d2:    9001        ..      STR      r0,[sp,#4]
        0x000010d4:    4629        )F      MOV      r1,r5
        0x000010d6:    9202        ..      STR      r2,[sp,#8]
        0x000010d8:    f7fffc69    ..i.    BL       AddRoundKey ; 0x9ae
        0x000010dc:    2001        .       MOVS     r0,#1
        0x000010de:    9004        ..      STR      r0,[sp,#0x10]
        0x000010e0:    4c3c        <L      LDR      r4,[pc,#240] ; [0x11d4] = 0x781a
        0x000010e2:    9509        ..      STR      r5,[sp,#0x24]
        0x000010e4:    4628        (F      MOV      r0,r5
        0x000010e6:    9901        ..      LDR      r1,[sp,#4]
        0x000010e8:    2904        .)      CMP      r1,#4
        0x000010ea:    d00a        ..      BEQ      0x1102 ; Cipher + 58
        0x000010ec:    2200        ."      MOVS     r2,#0
        0x000010ee:    2a10        .*      CMP      r2,#0x10
        0x000010f0:    d004        ..      BEQ      0x10fc ; Cipher + 52
        0x000010f2:    5c83        .\      LDRB     r3,[r0,r2]
        0x000010f4:    5ce3        .\      LDRB     r3,[r4,r3]
        0x000010f6:    5483        .T      STRB     r3,[r0,r2]
        0x000010f8:    1d12        ..      ADDS     r2,r2,#4
        0x000010fa:    e7f8        ..      B        0x10ee ; Cipher + 38
        0x000010fc:    1c40        @.      ADDS     r0,r0,#1
        0x000010fe:    1c49        I.      ADDS     r1,r1,#1
        0x00001100:    e7f2        ..      B        0x10e8 ; Cipher + 32
        0x00001102:    7868        hx      LDRB     r0,[r5,#1]
        0x00001104:    7969        iy      LDRB     r1,[r5,#5]
        0x00001106:    7069        ip      STRB     r1,[r5,#1]
        0x00001108:    7a69        iz      LDRB     r1,[r5,#9]
        0x0000110a:    7b6a        j{      LDRB     r2,[r5,#0xd]
        0x0000110c:    726a        jr      STRB     r2,[r5,#9]
        0x0000110e:    7169        iq      STRB     r1,[r5,#5]
        0x00001110:    7368        hs      STRB     r0,[r5,#0xd]
        0x00001112:    78a8        .x      LDRB     r0,[r5,#2]
        0x00001114:    7aa9        .z      LDRB     r1,[r5,#0xa]
        0x00001116:    70a9        .p      STRB     r1,[r5,#2]
        0x00001118:    72a8        .r      STRB     r0,[r5,#0xa]
        0x0000111a:    79a8        .y      LDRB     r0,[r5,#6]
        0x0000111c:    7ba9        .{      LDRB     r1,[r5,#0xe]
        0x0000111e:    71a9        .q      STRB     r1,[r5,#6]
        0x00001120:    73a8        .s      STRB     r0,[r5,#0xe]
        0x00001122:    78e8        .x      LDRB     r0,[r5,#3]
        0x00001124:    7be9        .{      LDRB     r1,[r5,#0xf]
        0x00001126:    70e9        .p      STRB     r1,[r5,#3]
        0x00001128:    7ae9        .z      LDRB     r1,[r5,#0xb]
        0x0000112a:    73e9        .s      STRB     r1,[r5,#0xf]
        0x0000112c:    79e9        .y      LDRB     r1,[r5,#7]
        0x0000112e:    72e9        .r      STRB     r1,[r5,#0xb]
        0x00001130:    71e8        .q      STRB     r0,[r5,#7]
        0x00001132:    9804        ..      LDR      r0,[sp,#0x10]
        0x00001134:    b2c0        ..      UXTB     r0,r0
        0x00001136:    9003        ..      STR      r0,[sp,#0xc]
        0x00001138:    280a        .(      CMP      r0,#0xa
        0x0000113a:    d043        C.      BEQ      0x11c4 ; Cipher + 252
        0x0000113c:    2000        .       MOVS     r0,#0
        0x0000113e:    2810        .(      CMP      r0,#0x10
        0x00001140:    d037        7.      BEQ      0x11b2 ; Cipher + 234
        0x00001142:    182a        *.      ADDS     r2,r5,r0
        0x00001144:    9205        ..      STR      r2,[sp,#0x14]
        0x00001146:    7891        .x      LDRB     r1,[r2,#2]
        0x00001148:    9108        ..      STR      r1,[sp,#0x20]
        0x0000114a:    78d5        .x      LDRB     r5,[r2,#3]
        0x0000114c:    462f        /F      MOV      r7,r5
        0x0000114e:    404f        O@      EORS     r7,r7,r1
        0x00001150:    900a        ..      STR      r0,[sp,#0x28]
        0x00001152:    9809        ..      LDR      r0,[sp,#0x24]
        0x00001154:    990a        ..      LDR      r1,[sp,#0x28]
        0x00001156:    5c40        @\      LDRB     r0,[r0,r1]
        0x00001158:    9007        ..      STR      r0,[sp,#0x1c]
        0x0000115a:    7856        Vx      LDRB     r6,[r2,#1]
        0x0000115c:    4631        1F      MOV      r1,r6
        0x0000115e:    4041        A@      EORS     r1,r1,r0
        0x00001160:    9106        ..      STR      r1,[sp,#0x18]
        0x00001162:    b2c8        ..      UXTB     r0,r1
        0x00001164:    491c        .I      LDR      r1,[pc,#112] ; [0x11d8] = 0x6ca1
        0x00001166:    4788        .G      BLX      r1
        0x00001168:    4b1b        .K      LDR      r3,[pc,#108] ; [0x11d8] = 0x6ca1
        0x0000116a:    4070        p@      EORS     r0,r0,r6
        0x0000116c:    4078        x@      EORS     r0,r0,r7
        0x0000116e:    9909        ..      LDR      r1,[sp,#0x24]
        0x00001170:    9a0a        ..      LDR      r2,[sp,#0x28]
        0x00001172:    5488        .T      STRB     r0,[r1,r2]
        0x00001174:    9808        ..      LDR      r0,[sp,#0x20]
        0x00001176:    4046        F@      EORS     r6,r6,r0
        0x00001178:    b2f0        ..      UXTB     r0,r6
        0x0000117a:    461e        .F      MOV      r6,r3
        0x0000117c:    4798        .G      BLX      r3
        0x0000117e:    4632        2F      MOV      r2,r6
        0x00001180:    9907        ..      LDR      r1,[sp,#0x1c]
        0x00001182:    4048        H@      EORS     r0,r0,r1
        0x00001184:    4078        x@      EORS     r0,r0,r7
        0x00001186:    9e05        ..      LDR      r6,[sp,#0x14]
        0x00001188:    7070        pp      STRB     r0,[r6,#1]
        0x0000118a:    b2f8        ..      UXTB     r0,r7
        0x0000118c:    4617        .F      MOV      r7,r2
        0x0000118e:    4790        .G      BLX      r2
        0x00001190:    4639        9F      MOV      r1,r7
        0x00001192:    9f06        ..      LDR      r7,[sp,#0x18]
        0x00001194:    4078        x@      EORS     r0,r0,r7
        0x00001196:    4068        h@      EORS     r0,r0,r5
        0x00001198:    70b0        .p      STRB     r0,[r6,#2]
        0x0000119a:    9807        ..      LDR      r0,[sp,#0x1c]
        0x0000119c:    4045        E@      EORS     r5,r5,r0
        0x0000119e:    b2e8        ..      UXTB     r0,r5
        0x000011a0:    9d09        ..      LDR      r5,[sp,#0x24]
        0x000011a2:    4788        .G      BLX      r1
        0x000011a4:    4078        x@      EORS     r0,r0,r7
        0x000011a6:    9908        ..      LDR      r1,[sp,#0x20]
        0x000011a8:    4048        H@      EORS     r0,r0,r1
        0x000011aa:    70f0        .p      STRB     r0,[r6,#3]
        0x000011ac:    980a        ..      LDR      r0,[sp,#0x28]
        0x000011ae:    1d00        ..      ADDS     r0,r0,#4
        0x000011b0:    e7c5        ..      B        0x113e ; Cipher + 118
        0x000011b2:    9803        ..      LDR      r0,[sp,#0xc]
        0x000011b4:    4629        )F      MOV      r1,r5
        0x000011b6:    9a02        ..      LDR      r2,[sp,#8]
        0x000011b8:    f7fffbf9    ....    BL       AddRoundKey ; 0x9ae
        0x000011bc:    9804        ..      LDR      r0,[sp,#0x10]
        0x000011be:    1c40        @.      ADDS     r0,r0,#1
        0x000011c0:    9004        ..      STR      r0,[sp,#0x10]
        0x000011c2:    e78f        ..      B        0x10e4 ; Cipher + 28
        0x000011c4:    200a        .       MOVS     r0,#0xa
        0x000011c6:    4629        )F      MOV      r1,r5
        0x000011c8:    9a02        ..      LDR      r2,[sp,#8]
        0x000011ca:    f7fffbf0    ....    BL       AddRoundKey ; 0x9ae
        0x000011ce:    b00b        ..      ADD      sp,sp,#0x2c
        0x000011d0:    bdf0        ..      POP      {r4-r7,pc}
        0x000011d2:    46c0        .F      MOV      r8,r8
    $d.7
    __arm_cp.5_0
        0x000011d4:    0000781a    .x..    DCD    30746
    __arm_cp.5_1
        0x000011d8:    00006ca1    .l..    DCD    27809
    $t.6
    Creat_Packet_Request_AESCRC
        0x000011dc:    b5f0        ..      PUSH     {r4-r7,lr}
        0x000011de:    b0c1        ..      SUB      sp,sp,#0x104
        0x000011e0:    9303        ..      STR      r3,[sp,#0xc]
        0x000011e2:    9204        ..      STR      r2,[sp,#0x10]
        0x000011e4:    460e        .F      MOV      r6,r1
        0x000011e6:    4605        .F      MOV      r5,r0
        0x000011e8:    4852        RH      LDR      r0,[pc,#328] ; [0x1334] = 0x76c0
        0x000011ea:    a93d        =.      ADD      r1,sp,#0xf4
        0x000011ec:    c89c        ..      LDM      r0!,{r2-r4,r7}
        0x000011ee:    c19c        ..      STM      r1!,{r2-r4,r7}
        0x000011f0:    4851        QH      LDR      r0,[pc,#324] ; [0x1338] = 0x76d0
        0x000011f2:    a939        9.      ADD      r1,sp,#0xe4
        0x000011f4:    c89c        ..      LDM      r0!,{r2-r4,r7}
        0x000011f6:    c19c        ..      STM      r1!,{r2-r4,r7}
        0x000011f8:    2700        .'      MOVS     r7,#0
        0x000011fa:    9738        8.      STR      r7,[sp,#0xe0]
        0x000011fc:    9737        7.      STR      r7,[sp,#0xdc]
        0x000011fe:    9736        6.      STR      r7,[sp,#0xd8]
        0x00001200:    f004f942    ..B.    BL       Timer3_SetTickMs ; 0x5488
        0x00001204:    f004f932    ..2.    BL       Timer3_GetTickMs ; 0x546c
        0x00001208:    2001        .       MOVS     r0,#1
        0x0000120a:    2d0f        .-      CMP      r5,#0xf
        0x0000120c:    d833        3.      BHI      0x1276 ; Creat_Packet_Request_AESCRC + 154
        0x0000120e:    2e03        ..      CMP      r6,#3
        0x00001210:    d831        1.      BHI      0x1276 ; Creat_Packet_Request_AESCRC + 154
        0x00001212:    9a04        ..      LDR      r2,[sp,#0x10]
        0x00001214:    2a03        .*      CMP      r2,#3
        0x00001216:    d82e        ..      BHI      0x1276 ; Creat_Packet_Request_AESCRC + 154
        0x00001218:    9848        H.      LDR      r0,[sp,#0x120]
        0x0000121a:    9002        ..      STR      r0,[sp,#8]
        0x0000121c:    9847        G.      LDR      r0,[sp,#0x11c]
        0x0000121e:    9946        F.      LDR      r1,[sp,#0x118]
        0x00001220:    ab35        5.      ADD      r3,sp,#0xd4
        0x00001222:    70d8        .p      STRB     r0,[r3,#3]
        0x00001224:    7099        .p      STRB     r1,[r3,#2]
        0x00001226:    9803        ..      LDR      r0,[sp,#0xc]
        0x00001228:    7058        Xp      STRB     r0,[r3,#1]
        0x0000122a:    0128        (.      LSLS     r0,r5,#4
        0x0000122c:    00b1        ..      LSLS     r1,r6,#2
        0x0000122e:    4301        .C      ORRS     r1,r1,r0
        0x00001230:    4311        .C      ORRS     r1,r1,r2
        0x00001232:    461e        .F      MOV      r6,r3
        0x00001234:    9301        ..      STR      r3,[sp,#4]
        0x00001236:    7019        .p      STRB     r1,[r3,#0]
        0x00001238:    ac05        ..      ADD      r4,sp,#0x14
        0x0000123a:    a93d        =.      ADD      r1,sp,#0xf4
        0x0000123c:    aa39        9.      ADD      r2,sp,#0xe4
        0x0000123e:    4620         F      MOV      r0,r4
        0x00001240:    f7fffba9    ....    BL       AES_init_ctx_iv ; 0x996
        0x00001244:    2510        .%      MOVS     r5,#0x10
        0x00001246:    4620         F      MOV      r0,r4
        0x00001248:    4631        1F      MOV      r1,r6
        0x0000124a:    462a        *F      MOV      r2,r5
        0x0000124c:    f7fffb88    ....    BL       AES_CBC_encrypt_buffer ; 0x960
        0x00001250:    4630        0F      MOV      r0,r6
        0x00001252:    4629        )F      MOV      r1,r5
        0x00001254:    f004ff8c    ....    BL       crc16 ; 0x6170
        0x00001258:    4604        .F      MOV      r4,r0
        0x0000125a:    9e02        ..      LDR      r6,[sp,#8]
        0x0000125c:    4630        0F      MOV      r0,r6
        0x0000125e:    9901        ..      LDR      r1,[sp,#4]
        0x00001260:    462a        *F      MOV      r2,r5
        0x00001262:    f7feff5d    ..].    BL       __aeabi_memcpy ; 0x120
        0x00001266:    7474        tt      STRB     r4,[r6,#0x11]
        0x00001268:    0a20         .      LSRS     r0,r4,#8
        0x0000126a:    7430        0t      STRB     r0,[r6,#0x10]
        0x0000126c:    f004f8fe    ....    BL       Timer3_GetTickMs ; 0x546c
        0x00001270:    f004f900    ....    BL       Timer3_ResetTickMs ; 0x5474
        0x00001274:    4638        8F      MOV      r0,r7
        0x00001276:    b041        A.      ADD      sp,sp,#0x104
        0x00001278:    bdf0        ..      POP      {r4-r7,pc}
        0x0000127a:    46c0        .F      MOV      r8,r8
    Creat_Packet_Request_AESSHA
        0x0000127c:    b5f0        ..      PUSH     {r4-r7,lr}
        0x0000127e:    b0e5        ..      SUB      sp,sp,#0x194
        0x00001280:    9302        ..      STR      r3,[sp,#8]
        0x00001282:    9203        ..      STR      r2,[sp,#0xc]
        0x00001284:    460f        .F      MOV      r7,r1
        0x00001286:    4606        .F      MOV      r6,r0
        0x00001288:    48dd        .H      LDR      r0,[pc,#884] ; [0x1600] = 0x76c0
        0x0000128a:    a961        a.      ADD      r1,sp,#0x184
        0x0000128c:    c83c        <.      LDM      r0!,{r2-r5}
        0x0000128e:    c13c        <.      STM      r1!,{r2-r5}
        0x00001290:    48dc        .H      LDR      r0,[pc,#880] ; [0x1604] = 0x76d0
        0x00001292:    a95d        ].      ADD      r1,sp,#0x174
        0x00001294:    c83c        <.      LDM      r0!,{r2-r5}
        0x00001296:    c13c        <.      STM      r1!,{r2-r5}
        0x00001298:    2500        .%      MOVS     r5,#0
        0x0000129a:    955c        \.      STR      r5,[sp,#0x170]
        0x0000129c:    955b        [.      STR      r5,[sp,#0x16c]
        0x0000129e:    955a        Z.      STR      r5,[sp,#0x168]
        0x000012a0:    f004f8f2    ....    BL       Timer3_SetTickMs ; 0x5488
        0x000012a4:    f004f8e2    ....    BL       Timer3_GetTickMs ; 0x546c
        0x000012a8:    2001        .       MOVS     r0,#1
        0x000012aa:    2e0f        ..      CMP      r6,#0xf
        0x000012ac:    d83f        ?.      BHI      0x132e ; Creat_Packet_Request_AESSHA + 178
        0x000012ae:    2f03        ./      CMP      r7,#3
        0x000012b0:    d83d        =.      BHI      0x132e ; Creat_Packet_Request_AESSHA + 178
        0x000012b2:    9a03        ..      LDR      r2,[sp,#0xc]
        0x000012b4:    2a03        .*      CMP      r2,#3
        0x000012b6:    d83a        :.      BHI      0x132e ; Creat_Packet_Request_AESSHA + 178
        0x000012b8:    9c6c        l.      LDR      r4,[sp,#0x1b0]
        0x000012ba:    986b        k.      LDR      r0,[sp,#0x1ac]
        0x000012bc:    996a        j.      LDR      r1,[sp,#0x1a8]
        0x000012be:    ab59        Y.      ADD      r3,sp,#0x164
        0x000012c0:    70d8        .p      STRB     r0,[r3,#3]
        0x000012c2:    7099        .p      STRB     r1,[r3,#2]
        0x000012c4:    9802        ..      LDR      r0,[sp,#8]
        0x000012c6:    7058        Xp      STRB     r0,[r3,#1]
        0x000012c8:    0130        0.      LSLS     r0,r6,#4
        0x000012ca:    00b9        ..      LSLS     r1,r7,#2
        0x000012cc:    4301        .C      ORRS     r1,r1,r0
        0x000012ce:    4311        .C      ORRS     r1,r1,r2
        0x000012d0:    7019        .p      STRB     r1,[r3,#0]
        0x000012d2:    461f        .F      MOV      r7,r3
        0x000012d4:    ae04        ..      ADD      r6,sp,#0x10
        0x000012d6:    a961        a.      ADD      r1,sp,#0x184
        0x000012d8:    aa5d        ].      ADD      r2,sp,#0x174
        0x000012da:    4630        0F      MOV      r0,r6
        0x000012dc:    f7fffb5b    ..[.    BL       AES_init_ctx_iv ; 0x996
        0x000012e0:    2210        ."      MOVS     r2,#0x10
        0x000012e2:    9203        ..      STR      r2,[sp,#0xc]
        0x000012e4:    4630        0F      MOV      r0,r6
        0x000012e6:    9701        ..      STR      r7,[sp,#4]
        0x000012e8:    4639        9F      MOV      r1,r7
        0x000012ea:    f7fffb39    ..9.    BL       AES_CBC_encrypt_buffer ; 0x960
        0x000012ee:    ae3c        <.      ADD      r6,sp,#0xf0
        0x000012f0:    4630        0F      MOV      r0,r6
        0x000012f2:    f003fe4b    ..K.    BL       Sha256Initialise ; 0x4f8c
        0x000012f6:    4630        0F      MOV      r0,r6
        0x000012f8:    4639        9F      MOV      r1,r7
        0x000012fa:    9f03        ..      LDR      r7,[sp,#0xc]
        0x000012fc:    463a        :F      MOV      r2,r7
        0x000012fe:    f003fe6b    ..k.    BL       Sha256Update ; 0x4fd8
        0x00001302:    a934        4.      ADD      r1,sp,#0xd0
        0x00001304:    4630        0F      MOV      r0,r6
        0x00001306:    f003fded    ....    BL       Sha256Finalise ; 0x4ee4
        0x0000130a:    4620         F      MOV      r0,r4
        0x0000130c:    9901        ..      LDR      r1,[sp,#4]
        0x0000130e:    463a        :F      MOV      r2,r7
        0x00001310:    f7feff06    ....    BL       __aeabi_memcpy ; 0x120
        0x00001314:    3410        .4      ADDS     r4,r4,#0x10
        0x00001316:    2d20         -      CMP      r5,#0x20
        0x00001318:    d004        ..      BEQ      0x1324 ; Creat_Packet_Request_AESSHA + 168
        0x0000131a:    a834        4.      ADD      r0,sp,#0xd0
        0x0000131c:    5d40        @]      LDRB     r0,[r0,r5]
        0x0000131e:    5560        `U      STRB     r0,[r4,r5]
        0x00001320:    1c6d        m.      ADDS     r5,r5,#1
        0x00001322:    e7f8        ..      B        0x1316 ; Creat_Packet_Request_AESSHA + 154
        0x00001324:    f004f8a2    ....    BL       Timer3_GetTickMs ; 0x546c
        0x00001328:    f004f8a4    ....    BL       Timer3_ResetTickMs ; 0x5474
        0x0000132c:    2000        .       MOVS     r0,#0
        0x0000132e:    b065        e.      ADD      sp,sp,#0x194
        0x00001330:    bdf0        ..      POP      {r4-r7,pc}
        0x00001332:    46c0        .F      MOV      r8,r8
    $d.20
    __arm_cp.12_0
        0x00001334:    000076c0    .v..    DCD    30400
    __arm_cp.12_1
        0x00001338:    000076d0    .v..    DCD    30416
    $t.0
    Creat_Packet_Request_CRC
        0x0000133c:    b5f0        ..      PUSH     {r4-r7,lr}
        0x0000133e:    b085        ..      SUB      sp,sp,#0x14
        0x00001340:    461c        .F      MOV      r4,r3
        0x00001342:    4615        .F      MOV      r5,r2
        0x00001344:    460e        .F      MOV      r6,r1
        0x00001346:    4607        .F      MOV      r7,r0
        0x00001348:    f004f89e    ....    BL       Timer3_SetTickMs ; 0x5488
        0x0000134c:    f004f88e    ....    BL       Timer3_GetTickMs ; 0x546c
        0x00001350:    2001        .       MOVS     r0,#1
        0x00001352:    2f0f        ./      CMP      r7,#0xf
        0x00001354:    d824        $.      BHI      0x13a0 ; Creat_Packet_Request_CRC + 100
        0x00001356:    2e03        ..      CMP      r6,#3
        0x00001358:    d822        ".      BHI      0x13a0 ; Creat_Packet_Request_CRC + 100
        0x0000135a:    2d03        .-      CMP      r5,#3
        0x0000135c:    d820         .      BHI      0x13a0 ; Creat_Packet_Request_CRC + 100
        0x0000135e:    980c        ..      LDR      r0,[sp,#0x30]
        0x00001360:    9003        ..      STR      r0,[sp,#0xc]
        0x00001362:    9a0b        ..      LDR      r2,[sp,#0x2c]
        0x00001364:    9201        ..      STR      r2,[sp,#4]
        0x00001366:    990a        ..      LDR      r1,[sp,#0x28]
        0x00001368:    9102        ..      STR      r1,[sp,#8]
        0x0000136a:    a804        ..      ADD      r0,sp,#0x10
        0x0000136c:    70c2        .p      STRB     r2,[r0,#3]
        0x0000136e:    7081        .p      STRB     r1,[r0,#2]
        0x00001370:    7044        Dp      STRB     r4,[r0,#1]
        0x00001372:    0139        9.      LSLS     r1,r7,#4
        0x00001374:    00b6        ..      LSLS     r6,r6,#2
        0x00001376:    430e        .C      ORRS     r6,r6,r1
        0x00001378:    432e        .C      ORRS     r6,r6,r5
        0x0000137a:    7006        .p      STRB     r6,[r0,#0]
        0x0000137c:    2104        .!      MOVS     r1,#4
        0x0000137e:    f004fef7    ....    BL       crc16 ; 0x6170
        0x00001382:    9903        ..      LDR      r1,[sp,#0xc]
        0x00001384:    7148        Hq      STRB     r0,[r1,#5]
        0x00001386:    9a01        ..      LDR      r2,[sp,#4]
        0x00001388:    70ca        .p      STRB     r2,[r1,#3]
        0x0000138a:    9a02        ..      LDR      r2,[sp,#8]
        0x0000138c:    708a        .p      STRB     r2,[r1,#2]
        0x0000138e:    704c        Lp      STRB     r4,[r1,#1]
        0x00001390:    700e        .p      STRB     r6,[r1,#0]
        0x00001392:    0a00        ..      LSRS     r0,r0,#8
        0x00001394:    7108        .q      STRB     r0,[r1,#4]
        0x00001396:    f004f869    ..i.    BL       Timer3_GetTickMs ; 0x546c
        0x0000139a:    f004f86b    ..k.    BL       Timer3_ResetTickMs ; 0x5474
        0x0000139e:    2000        .       MOVS     r0,#0
        0x000013a0:    b005        ..      ADD      sp,sp,#0x14
        0x000013a2:    bdf0        ..      POP      {r4-r7,pc}
    Creat_Packet_Request_SHA
        0x000013a4:    b5f0        ..      PUSH     {r4-r7,lr}
        0x000013a6:    b0ab        ..      SUB      sp,sp,#0xac
        0x000013a8:    461c        .F      MOV      r4,r3
        0x000013aa:    4615        .F      MOV      r5,r2
        0x000013ac:    460e        .F      MOV      r6,r1
        0x000013ae:    4607        .F      MOV      r7,r0
        0x000013b0:    f004f86a    ..j.    BL       Timer3_SetTickMs ; 0x5488
        0x000013b4:    f004f85a    ..Z.    BL       Timer3_GetTickMs ; 0x546c
        0x000013b8:    2001        .       MOVS     r0,#1
        0x000013ba:    2f0f        ./      CMP      r7,#0xf
        0x000013bc:    d837        7.      BHI      0x142e ; Creat_Packet_Request_SHA + 138
        0x000013be:    2e03        ..      CMP      r6,#3
        0x000013c0:    d835        5.      BHI      0x142e ; Creat_Packet_Request_SHA + 138
        0x000013c2:    2d03        .-      CMP      r5,#3
        0x000013c4:    d833        3.      BHI      0x142e ; Creat_Packet_Request_SHA + 138
        0x000013c6:    9832        2.      LDR      r0,[sp,#0xc8]
        0x000013c8:    9004        ..      STR      r0,[sp,#0x10]
        0x000013ca:    9931        1.      LDR      r1,[sp,#0xc4]
        0x000013cc:    9102        ..      STR      r1,[sp,#8]
        0x000013ce:    9830        0.      LDR      r0,[sp,#0xc0]
        0x000013d0:    9003        ..      STR      r0,[sp,#0xc]
        0x000013d2:    4622        "F      MOV      r2,r4
        0x000013d4:    9401        ..      STR      r4,[sp,#4]
        0x000013d6:    ac05        ..      ADD      r4,sp,#0x14
        0x000013d8:    70e1        .p      STRB     r1,[r4,#3]
        0x000013da:    70a0        .p      STRB     r0,[r4,#2]
        0x000013dc:    7062        bp      STRB     r2,[r4,#1]
        0x000013de:    0138        8.      LSLS     r0,r7,#4
        0x000013e0:    00b6        ..      LSLS     r6,r6,#2
        0x000013e2:    4306        .C      ORRS     r6,r6,r0
        0x000013e4:    432e        .C      ORRS     r6,r6,r5
        0x000013e6:    7026        &p      STRB     r6,[r4,#0]
        0x000013e8:    ad0e        ..      ADD      r5,sp,#0x38
        0x000013ea:    4628        (F      MOV      r0,r5
        0x000013ec:    f003fdce    ....    BL       Sha256Initialise ; 0x4f8c
        0x000013f0:    2204        ."      MOVS     r2,#4
        0x000013f2:    4628        (F      MOV      r0,r5
        0x000013f4:    4621        !F      MOV      r1,r4
        0x000013f6:    f003fdef    ....    BL       Sha256Update ; 0x4fd8
        0x000013fa:    a906        ..      ADD      r1,sp,#0x18
        0x000013fc:    4628        (F      MOV      r0,r5
        0x000013fe:    f003fd71    ..q.    BL       Sha256Finalise ; 0x4ee4
        0x00001402:    9804        ..      LDR      r0,[sp,#0x10]
        0x00001404:    9902        ..      LDR      r1,[sp,#8]
        0x00001406:    70c1        .p      STRB     r1,[r0,#3]
        0x00001408:    9903        ..      LDR      r1,[sp,#0xc]
        0x0000140a:    7081        .p      STRB     r1,[r0,#2]
        0x0000140c:    9901        ..      LDR      r1,[sp,#4]
        0x0000140e:    7041        Ap      STRB     r1,[r0,#1]
        0x00001410:    7006        .p      STRB     r6,[r0,#0]
        0x00001412:    1d00        ..      ADDS     r0,r0,#4
        0x00001414:    2100        .!      MOVS     r1,#0
        0x00001416:    2920         )      CMP      r1,#0x20
        0x00001418:    d004        ..      BEQ      0x1424 ; Creat_Packet_Request_SHA + 128
        0x0000141a:    aa06        ..      ADD      r2,sp,#0x18
        0x0000141c:    5c52        R\      LDRB     r2,[r2,r1]
        0x0000141e:    5442        BT      STRB     r2,[r0,r1]
        0x00001420:    1c49        I.      ADDS     r1,r1,#1
        0x00001422:    e7f8        ..      B        0x1416 ; Creat_Packet_Request_SHA + 114
        0x00001424:    f004f822    ..".    BL       Timer3_GetTickMs ; 0x546c
        0x00001428:    f004f824    ..$.    BL       Timer3_ResetTickMs ; 0x5474
        0x0000142c:    2000        .       MOVS     r0,#0
        0x0000142e:    b02b        +.      ADD      sp,sp,#0xac
        0x00001430:    bdf0        ..      POP      {r4-r7,pc}
        0x00001432:    0000        ..      MOVS     r0,r0
    DataFlash_Client_Init
        0x00001434:    b5f8        ..      PUSH     {r3-r7,lr}
        0x00001436:    f000fa1f    ....    BL       FMC_Open ; 0x1878
        0x0000143a:    201f        .       MOVS     r0,#0x1f
        0x0000143c:    0300        ..      LSLS     r0,r0,#12
        0x0000143e:    f003fd11    ....    BL       SetDataFlashBase ; 0x4e64
        0x00001442:    2800        .(      CMP      r0,#0
        0x00001444:    d450        P.      BMI      0x14e8 ; DataFlash_Client_Init + 180
        0x00001446:    f000fa4b    ..K.    BL       FMC_ReadDataFlashBaseAddr ; 0x18e0
        0x0000144a:    2000        .       MOVS     r0,#0
        0x0000144c:    4d27        'M      LDR      r5,[pc,#156] ; [0x14ec] = 0x2eed
        0x0000144e:    47a8        .G      BLX      r5
        0x00001450:    4e27        'N      LDR      r6,[pc,#156] ; [0x14f0] = 0x20000408
        0x00001452:    7630        0v      STRB     r0,[r6,#0x18]
        0x00001454:    2001        .       MOVS     r0,#1
        0x00001456:    47a8        .G      BLX      r5
        0x00001458:    7670        pv      STRB     r0,[r6,#0x19]
        0x0000145a:    2002        .       MOVS     r0,#2
        0x0000145c:    47a8        .G      BLX      r5
        0x0000145e:    76b0        .v      STRB     r0,[r6,#0x1a]
        0x00001460:    2003        .       MOVS     r0,#3
        0x00001462:    47a8        .G      BLX      r5
        0x00001464:    76f0        .v      STRB     r0,[r6,#0x1b]
        0x00001466:    2004        .       MOVS     r0,#4
        0x00001468:    47a8        .G      BLX      r5
        0x0000146a:    4604        .F      MOV      r4,r0
        0x0000146c:    2005        .       MOVS     r0,#5
        0x0000146e:    47a8        .G      BLX      r5
        0x00001470:    0621        !.      LSLS     r1,r4,#24
        0x00001472:    0400        ..      LSLS     r0,r0,#16
        0x00001474:    1844        D.      ADDS     r4,r0,r1
        0x00001476:    2006        .       MOVS     r0,#6
        0x00001478:    47a8        .G      BLX      r5
        0x0000147a:    0200        ..      LSLS     r0,r0,#8
        0x0000147c:    1824        $.      ADDS     r4,r4,r0
        0x0000147e:    2007        .       MOVS     r0,#7
        0x00001480:    47a8        .G      BLX      r5
        0x00001482:    1820         .      ADDS     r0,r4,r0
        0x00001484:    61f0        .a      STR      r0,[r6,#0x1c]
        0x00001486:    200e        .       MOVS     r0,#0xe
        0x00001488:    47a8        .G      BLX      r5
        0x0000148a:    4634        4F      MOV      r4,r6
        0x0000148c:    3418        .4      ADDS     r4,r4,#0x18
        0x0000148e:    73a0        .s      STRB     r0,[r4,#0xe]
        0x00001490:    200f        .       MOVS     r0,#0xf
        0x00001492:    47a8        .G      BLX      r5
        0x00001494:    73e0        .s      STRB     r0,[r4,#0xf]
        0x00001496:    2010        .       MOVS     r0,#0x10
        0x00001498:    47a8        .G      BLX      r5
        0x0000149a:    7420         t      STRB     r0,[r4,#0x10]
        0x0000149c:    2011        .       MOVS     r0,#0x11
        0x0000149e:    47a8        .G      BLX      r5
        0x000014a0:    7460        `t      STRB     r0,[r4,#0x11]
        0x000014a2:    2012        .       MOVS     r0,#0x12
        0x000014a4:    47a8        .G      BLX      r5
        0x000014a6:    74a0        .t      STRB     r0,[r4,#0x12]
        0x000014a8:    2008        .       MOVS     r0,#8
        0x000014aa:    47a8        .G      BLX      r5
        0x000014ac:    7220         r      STRB     r0,[r4,#8]
        0x000014ae:    2009        .       MOVS     r0,#9
        0x000014b0:    47a8        .G      BLX      r5
        0x000014b2:    7260        `r      STRB     r0,[r4,#9]
        0x000014b4:    200a        .       MOVS     r0,#0xa
        0x000014b6:    47a8        .G      BLX      r5
        0x000014b8:    72a0        .r      STRB     r0,[r4,#0xa]
        0x000014ba:    200b        .       MOVS     r0,#0xb
        0x000014bc:    47a8        .G      BLX      r5
        0x000014be:    72e0        .r      STRB     r0,[r4,#0xb]
        0x000014c0:    200c        .       MOVS     r0,#0xc
        0x000014c2:    47a8        .G      BLX      r5
        0x000014c4:    0207        ..      LSLS     r7,r0,#8
        0x000014c6:    200d        .       MOVS     r0,#0xd
        0x000014c8:    47a8        .G      BLX      r5
        0x000014ca:    1838        8.      ADDS     r0,r7,r0
        0x000014cc:    84b0        ..      STRH     r0,[r6,#0x24]
        0x000014ce:    7aa0        .z      LDRB     r0,[r4,#0xa]
        0x000014d0:    2813        .(      CMP      r0,#0x13
        0x000014d2:    d808        ..      BHI      0x14e6 ; DataFlash_Client_Init + 178
        0x000014d4:    4907        .I      LDR      r1,[pc,#28] ; [0x14f4] = 0xf000f
        0x000014d6:    40c1        .@      LSRS     r1,r1,r0
        0x000014d8:    07c9        ..      LSLS     r1,r1,#31
        0x000014da:    d004        ..      BEQ      0x14e6 ; DataFlash_Client_Init + 178
        0x000014dc:    a106        ..      ADR      r1,{pc}+0x1c ; 0x14f8
        0x000014de:    5c08        .\      LDRB     r0,[r1,r0]
        0x000014e0:    213b        ;!      MOVS     r1,#0x3b
        0x000014e2:    4add        .J      LDR      r2,[pc,#884] ; [0x1858] = 0x2000073c
        0x000014e4:    5450        PT      STRB     r0,[r2,r1]
        0x000014e6:    bdf8        ..      POP      {r3-r7,pc}
        0x000014e8:    e7fe        ..      B        0x14e8 ; DataFlash_Client_Init + 180
        0x000014ea:    46c0        .F      MOV      r8,r8
    $d.1
    __arm_cp.0_0
        0x000014ec:    00002eed    ....    DCD    12013
    __arm_cp.0_1
        0x000014f0:    20000408    ...     DCD    536871944
    __arm_cp.0_2
        0x000014f4:    000f000f    ....    DCD    983055
        0x000014f8:    00000000    ....    DCD    0
        0x000014fc:    00000000    ....    DCD    0
        0x00001500:    00000000    ....    DCD    0
        0x00001504:    00000000    ....    DCD    0
        0x00001508:    01010101    ....    DCD    16843009
    $t.8
    Decode_Packet_Receive_AESCRC
        0x0000150c:    b5f0        ..      PUSH     {r4-r7,lr}
        0x0000150e:    b0c9        ..      SUB      sp,sp,#0x124
        0x00001510:    460c        .F      MOV      r4,r1
        0x00001512:    487d        }H      LDR      r0,[pc,#500] ; [0x1708] = 0x76c0
        0x00001514:    a945        E.      ADD      r1,sp,#0x114
        0x00001516:    9104        ..      STR      r1,[sp,#0x10]
        0x00001518:    c86c        l.      LDM      r0!,{r2,r3,r5,r6}
        0x0000151a:    c16c        l.      STM      r1!,{r2,r3,r5,r6}
        0x0000151c:    487b        {H      LDR      r0,[pc,#492] ; [0x170c] = 0x76d0
        0x0000151e:    a941        A.      ADD      r1,sp,#0x104
        0x00001520:    9108        ..      STR      r1,[sp,#0x20]
        0x00001522:    c8ac        ..      LDM      r0!,{r2,r3,r5,r7}
        0x00001524:    c1ac        ..      STM      r1!,{r2,r3,r5,r7}
        0x00001526:    2000        .       MOVS     r0,#0
        0x00001528:    903c        <.      STR      r0,[sp,#0xf0]
        0x0000152a:    903b        ;.      STR      r0,[sp,#0xec]
        0x0000152c:    9007        ..      STR      r0,[sp,#0x1c]
        0x0000152e:    903a        :.      STR      r0,[sp,#0xe8]
        0x00001530:    f003ffaa    ....    BL       Timer3_SetTickMs ; 0x5488
        0x00001534:    f003ff9a    ....    BL       Timer3_GetTickMs ; 0x546c
        0x00001538:    ad3d        =.      ADD      r5,sp,#0xf4
        0x0000153a:    2710        .'      MOVS     r7,#0x10
        0x0000153c:    4628        (F      MOV      r0,r5
        0x0000153e:    4621        !F      MOV      r1,r4
        0x00001540:    463a        :F      MOV      r2,r7
        0x00001542:    f7fefded    ....    BL       __aeabi_memcpy ; 0x120
        0x00001546:    7c60        `|      LDRB     r0,[r4,#0x11]
        0x00001548:    9006        ..      STR      r0,[sp,#0x18]
        0x0000154a:    7c20         |      LDRB     r0,[r4,#0x10]
        0x0000154c:    9005        ..      STR      r0,[sp,#0x14]
        0x0000154e:    ac09        ..      ADD      r4,sp,#0x24
        0x00001550:    4620         F      MOV      r0,r4
        0x00001552:    9e04        ..      LDR      r6,[sp,#0x10]
        0x00001554:    4631        1F      MOV      r1,r6
        0x00001556:    9a08        ..      LDR      r2,[sp,#0x20]
        0x00001558:    f7fffa1d    ....    BL       AES_init_ctx_iv ; 0x996
        0x0000155c:    4620         F      MOV      r0,r4
        0x0000155e:    4629        )F      MOV      r1,r5
        0x00001560:    463a        :F      MOV      r2,r7
        0x00001562:    f7fff9d8    ....    BL       AES_CBC_decrypt_buffer ; 0x916
        0x00001566:    983d        =.      LDR      r0,[sp,#0xf4]
        0x00001568:    9039        9.      STR      r0,[sp,#0xe4]
        0x0000156a:    78e8        .x      LDRB     r0,[r5,#3]
        0x0000156c:    9000        ..      STR      r0,[sp,#0]
        0x0000156e:    78a8        .x      LDRB     r0,[r5,#2]
        0x00001570:    9001        ..      STR      r0,[sp,#4]
        0x00001572:    7868        hx      LDRB     r0,[r5,#1]
        0x00001574:    9002        ..      STR      r0,[sp,#8]
        0x00001576:    7828        (x      LDRB     r0,[r5,#0]
        0x00001578:    9003        ..      STR      r0,[sp,#0xc]
        0x0000157a:    4620         F      MOV      r0,r4
        0x0000157c:    4631        1F      MOV      r1,r6
        0x0000157e:    9a08        ..      LDR      r2,[sp,#0x20]
        0x00001580:    f7fffa09    ....    BL       AES_init_ctx_iv ; 0x996
        0x00001584:    ad39        9.      ADD      r5,sp,#0xe4
        0x00001586:    4620         F      MOV      r0,r4
        0x00001588:    4629        )F      MOV      r1,r5
        0x0000158a:    463a        :F      MOV      r2,r7
        0x0000158c:    f7fff9e8    ....    BL       AES_CBC_encrypt_buffer ; 0x960
        0x00001590:    9805        ..      LDR      r0,[sp,#0x14]
        0x00001592:    0200        ..      LSLS     r0,r0,#8
        0x00001594:    9906        ..      LDR      r1,[sp,#0x18]
        0x00001596:    1844        D.      ADDS     r4,r0,r1
        0x00001598:    b2a6        ..      UXTH     r6,r4
        0x0000159a:    4628        (F      MOV      r0,r5
        0x0000159c:    4639        9F      MOV      r1,r7
        0x0000159e:    f004fde7    ....    BL       crc16 ; 0x6170
        0x000015a2:    42b0        .B      CMP      r0,r6
        0x000015a4:    d10a        ..      BNE      0x15bc ; Decode_Packet_Receive_AESCRC + 176
        0x000015a6:    f003ff61    ..a.    BL       Timer3_GetTickMs ; 0x546c
        0x000015aa:    f003ff63    ..c.    BL       Timer3_ResetTickMs ; 0x5474
        0x000015ae:    49a8        .I      LDR      r1,[pc,#672] ; [0x1850] = 0x20000408
        0x000015b0:    7e48        H~      LDRB     r0,[r1,#0x19]
        0x000015b2:    4aa8        .J      LDR      r2,[pc,#672] ; [0x1854] = 0x20000212
        0x000015b4:    7050        Pp      STRB     r0,[r2,#1]
        0x000015b6:    9b03        ..      LDR      r3,[sp,#0xc]
        0x000015b8:    079a        ..      LSLS     r2,r3,#30
        0x000015ba:    d002        ..      BEQ      0x15c2 ; Decode_Packet_Receive_AESCRC + 182
        0x000015bc:    9807        ..      LDR      r0,[sp,#0x1c]
        0x000015be:    b049        I.      ADD      sp,sp,#0x124
        0x000015c0:    bdf0        ..      POP      {r4-r7,pc}
        0x000015c2:    9e02        ..      LDR      r6,[sp,#8]
        0x000015c4:    42b0        .B      CMP      r0,r6
        0x000015c6:    d1f9        ..      BNE      0x15bc ; Decode_Packet_Receive_AESCRC + 176
        0x000015c8:    461a        .F      MOV      r2,r3
        0x000015ca:    091d        ..      LSRS     r5,r3,#4
        0x000015cc:    7e09        .~      LDRB     r1,[r1,#0x18]
        0x000015ce:    0909        ..      LSRS     r1,r1,#4
        0x000015d0:    42a9        .B      CMP      r1,r5
        0x000015d2:    9807        ..      LDR      r0,[sp,#0x1c]
        0x000015d4:    d1f3        ..      BNE      0x15be ; Decode_Packet_Receive_AESCRC + 178
        0x000015d6:    0711        ..      LSLS     r1,r2,#28
        0x000015d8:    0f89        ..      LSRS     r1,r1,#30
        0x000015da:    2230        0"      MOVS     r2,#0x30
        0x000015dc:    4372        rC      MULS     r2,r6,r2
        0x000015de:    4b9e        .K      LDR      r3,[pc,#632] ; [0x1858] = 0x2000073c
        0x000015e0:    549d        .T      STRB     r5,[r3,r2]
        0x000015e2:    1898        ..      ADDS     r0,r3,r2
        0x000015e4:    8104        ..      STRH     r4,[r0,#8]
        0x000015e6:    9a00        ..      LDR      r2,[sp,#0]
        0x000015e8:    7142        Bq      STRB     r2,[r0,#5]
        0x000015ea:    9a01        ..      LDR      r2,[sp,#4]
        0x000015ec:    7102        .q      STRB     r2,[r0,#4]
        0x000015ee:    70c6        .p      STRB     r6,[r0,#3]
        0x000015f0:    2200        ."      MOVS     r2,#0
        0x000015f2:    7082        .p      STRB     r2,[r0,#2]
        0x000015f4:    7041        Ap      STRB     r1,[r0,#1]
        0x000015f6:    f004fbbf    ....    BL       Update_DataFlash_From_Master ; 0x5d78
        0x000015fa:    2001        .       MOVS     r0,#1
        0x000015fc:    e7df        ..      B        0x15be ; Decode_Packet_Receive_AESCRC + 178
        0x000015fe:    46c0        .F      MOV      r8,r8
    $d.9
    __arm_cp.5_0
        0x00001600:    000076c0    .v..    DCD    30400
    __arm_cp.5_1
        0x00001604:    000076d0    .v..    DCD    30416
    $t.21
    Decode_Packet_Receive_AESSHA
        0x00001608:    b5f0        ..      PUSH     {r4-r7,lr}
        0x0000160a:    b0f3        ..      SUB      sp,sp,#0x1cc
        0x0000160c:    460c        .F      MOV      r4,r1
        0x0000160e:    483e        >H      LDR      r0,[pc,#248] ; [0x1708] = 0x76c0
        0x00001610:    a96f        o.      ADD      r1,sp,#0x1bc
        0x00001612:    c86c        l.      LDM      r0!,{r2,r3,r5,r6}
        0x00001614:    c16c        l.      STM      r1!,{r2,r3,r5,r6}
        0x00001616:    483d        =H      LDR      r0,[pc,#244] ; [0x170c] = 0x76d0
        0x00001618:    a96b        k.      ADD      r1,sp,#0x1ac
        0x0000161a:    c86c        l.      LDM      r0!,{r2,r3,r5,r6}
        0x0000161c:    c16c        l.      STM      r1!,{r2,r3,r5,r6}
        0x0000161e:    2500        .%      MOVS     r5,#0
        0x00001620:    9539        9.      STR      r5,[sp,#0xe4]
        0x00001622:    9538        8.      STR      r5,[sp,#0xe0]
        0x00001624:    9537        7.      STR      r5,[sp,#0xdc]
        0x00001626:    a842        B.      ADD      r0,sp,#0x108
        0x00001628:    2210        ."      MOVS     r2,#0x10
        0x0000162a:    4621        !F      MOV      r1,r4
        0x0000162c:    f7fefd78    ..x.    BL       __aeabi_memcpy ; 0x120
        0x00001630:    3410        .4      ADDS     r4,r4,#0x10
        0x00001632:    2d20         -      CMP      r5,#0x20
        0x00001634:    d004        ..      BEQ      0x1640 ; Decode_Packet_Receive_AESSHA + 56
        0x00001636:    5d60        `]      LDRB     r0,[r4,r5]
        0x00001638:    a93a        :.      ADD      r1,sp,#0xe8
        0x0000163a:    5548        HU      STRB     r0,[r1,r5]
        0x0000163c:    1c6d        m.      ADDS     r5,r5,#1
        0x0000163e:    e7f8        ..      B        0x1632 ; Decode_Packet_Receive_AESSHA + 42
        0x00001640:    f003ff22    ..".    BL       Timer3_SetTickMs ; 0x5488
        0x00001644:    f003ff12    ....    BL       Timer3_GetTickMs ; 0x546c
        0x00001648:    ad06        ..      ADD      r5,sp,#0x18
        0x0000164a:    a96f        o.      ADD      r1,sp,#0x1bc
        0x0000164c:    9105        ..      STR      r1,[sp,#0x14]
        0x0000164e:    af6b        k.      ADD      r7,sp,#0x1ac
        0x00001650:    4628        (F      MOV      r0,r5
        0x00001652:    463a        :F      MOV      r2,r7
        0x00001654:    f7fff99f    ....    BL       AES_init_ctx_iv ; 0x996
        0x00001658:    ae42        B.      ADD      r6,sp,#0x108
        0x0000165a:    2410        .$      MOVS     r4,#0x10
        0x0000165c:    4628        (F      MOV      r0,r5
        0x0000165e:    4631        1F      MOV      r1,r6
        0x00001660:    4622        "F      MOV      r2,r4
        0x00001662:    f7fff958    ..X.    BL       AES_CBC_decrypt_buffer ; 0x916
        0x00001666:    9842        B.      LDR      r0,[sp,#0x108]
        0x00001668:    9036        6.      STR      r0,[sp,#0xd8]
        0x0000166a:    78f0        .x      LDRB     r0,[r6,#3]
        0x0000166c:    9003        ..      STR      r0,[sp,#0xc]
        0x0000166e:    78b0        .x      LDRB     r0,[r6,#2]
        0x00001670:    9002        ..      STR      r0,[sp,#8]
        0x00001672:    7870        px      LDRB     r0,[r6,#1]
        0x00001674:    9001        ..      STR      r0,[sp,#4]
        0x00001676:    7830        0x      LDRB     r0,[r6,#0]
        0x00001678:    9004        ..      STR      r0,[sp,#0x10]
        0x0000167a:    4628        (F      MOV      r0,r5
        0x0000167c:    9905        ..      LDR      r1,[sp,#0x14]
        0x0000167e:    463a        :F      MOV      r2,r7
        0x00001680:    f7fff989    ....    BL       AES_init_ctx_iv ; 0x996
        0x00001684:    ae36        6.      ADD      r6,sp,#0xd8
        0x00001686:    4628        (F      MOV      r0,r5
        0x00001688:    4631        1F      MOV      r1,r6
        0x0000168a:    4622        "F      MOV      r2,r4
        0x0000168c:    f7fff968    ..h.    BL       AES_CBC_encrypt_buffer ; 0x960
        0x00001690:    ad4e        N.      ADD      r5,sp,#0x138
        0x00001692:    4628        (F      MOV      r0,r5
        0x00001694:    f003fc7a    ..z.    BL       Sha256Initialise ; 0x4f8c
        0x00001698:    4628        (F      MOV      r0,r5
        0x0000169a:    4631        1F      MOV      r1,r6
        0x0000169c:    4622        "F      MOV      r2,r4
        0x0000169e:    f003fc9b    ....    BL       Sha256Update ; 0x4fd8
        0x000016a2:    ac46        F.      ADD      r4,sp,#0x118
        0x000016a4:    4628        (F      MOV      r0,r5
        0x000016a6:    4621        !F      MOV      r1,r4
        0x000016a8:    f003fc1c    ....    BL       Sha256Finalise ; 0x4ee4
        0x000016ac:    a83a        :.      ADD      r0,sp,#0xe8
        0x000016ae:    2220         "      MOVS     r2,#0x20
        0x000016b0:    4621        !F      MOV      r1,r4
        0x000016b2:    f7fefd59    ..Y.    BL       memcmp ; 0x168
        0x000016b6:    2400        .$      MOVS     r4,#0
        0x000016b8:    2800        .(      CMP      r0,#0
        0x000016ba:    d121        !.      BNE      0x1700 ; Decode_Packet_Receive_AESSHA + 248
        0x000016bc:    af01        ..      ADD      r7,sp,#4
        0x000016be:    cfe0        ..      LDM      r7,{r5-r7}
        0x000016c0:    f003fed4    ....    BL       Timer3_GetTickMs ; 0x546c
        0x000016c4:    f003fed6    ....    BL       Timer3_ResetTickMs ; 0x5474
        0x000016c8:    9a04        ..      LDR      r2,[sp,#0x10]
        0x000016ca:    0790        ..      LSLS     r0,r2,#30
        0x000016cc:    d118        ..      BNE      0x1700 ; Decode_Packet_Receive_AESSHA + 248
        0x000016ce:    4960        `I      LDR      r1,[pc,#384] ; [0x1850] = 0x20000408
        0x000016d0:    7e48        H~      LDRB     r0,[r1,#0x19]
        0x000016d2:    4285        .B      CMP      r5,r0
        0x000016d4:    d114        ..      BNE      0x1700 ; Decode_Packet_Receive_AESSHA + 248
        0x000016d6:    0910        ..      LSRS     r0,r2,#4
        0x000016d8:    7e09        .~      LDRB     r1,[r1,#0x18]
        0x000016da:    0909        ..      LSRS     r1,r1,#4
        0x000016dc:    4288        .B      CMP      r0,r1
        0x000016de:    d10f        ..      BNE      0x1700 ; Decode_Packet_Receive_AESSHA + 248
        0x000016e0:    0711        ..      LSLS     r1,r2,#28
        0x000016e2:    0f89        ..      LSRS     r1,r1,#30
        0x000016e4:    2230        0"      MOVS     r2,#0x30
        0x000016e6:    436a        jC      MULS     r2,r5,r2
        0x000016e8:    4b5b        [K      LDR      r3,[pc,#364] ; [0x1858] = 0x2000073c
        0x000016ea:    5498        .T      STRB     r0,[r3,r2]
        0x000016ec:    1898        ..      ADDS     r0,r3,r2
        0x000016ee:    7147        Gq      STRB     r7,[r0,#5]
        0x000016f0:    7106        .q      STRB     r6,[r0,#4]
        0x000016f2:    70c5        .p      STRB     r5,[r0,#3]
        0x000016f4:    2200        ."      MOVS     r2,#0
        0x000016f6:    7082        .p      STRB     r2,[r0,#2]
        0x000016f8:    7041        Ap      STRB     r1,[r0,#1]
        0x000016fa:    f004fb3d    ..=.    BL       Update_DataFlash_From_Master ; 0x5d78
        0x000016fe:    2401        .$      MOVS     r4,#1
        0x00001700:    4620         F      MOV      r0,r4
        0x00001702:    b073        s.      ADD      sp,sp,#0x1cc
        0x00001704:    bdf0        ..      POP      {r4-r7,pc}
        0x00001706:    46c0        .F      MOV      r8,r8
    $d.22
    __arm_cp.13_0
        0x00001708:    000076c0    .v..    DCD    30400
    __arm_cp.13_1
        0x0000170c:    000076d0    .v..    DCD    30416
    $t.1
    Decode_Packet_Receive_CRC
        0x00001710:    b5f0        ..      PUSH     {r4-r7,lr}
        0x00001712:    b085        ..      SUB      sp,sp,#0x14
        0x00001714:    460c        .F      MOV      r4,r1
        0x00001716:    f003feb7    ....    BL       Timer3_SetTickMs ; 0x5488
        0x0000171a:    f003fea7    ....    BL       Timer3_GetTickMs ; 0x546c
        0x0000171e:    78e1        .x      LDRB     r1,[r4,#3]
        0x00001720:    a804        ..      ADD      r0,sp,#0x10
        0x00001722:    9102        ..      STR      r1,[sp,#8]
        0x00001724:    70c1        .p      STRB     r1,[r0,#3]
        0x00001726:    78a1        .x      LDRB     r1,[r4,#2]
        0x00001728:    9101        ..      STR      r1,[sp,#4]
        0x0000172a:    7081        .p      STRB     r1,[r0,#2]
        0x0000172c:    7861        ax      LDRB     r1,[r4,#1]
        0x0000172e:    9103        ..      STR      r1,[sp,#0xc]
        0x00001730:    7041        Ap      STRB     r1,[r0,#1]
        0x00001732:    7826        &x      LDRB     r6,[r4,#0]
        0x00001734:    7006        .p      STRB     r6,[r0,#0]
        0x00001736:    7961        ay      LDRB     r1,[r4,#5]
        0x00001738:    7922        "y      LDRB     r2,[r4,#4]
        0x0000173a:    0212        ..      LSLS     r2,r2,#8
        0x0000173c:    1855        U.      ADDS     r5,r2,r1
        0x0000173e:    b2af        ..      UXTH     r7,r5
        0x00001740:    2104        .!      MOVS     r1,#4
        0x00001742:    f004fd15    ....    BL       crc16 ; 0x6170
        0x00001746:    2400        .$      MOVS     r4,#0
        0x00001748:    42b8        .B      CMP      r0,r7
        0x0000174a:    d124        $.      BNE      0x1796 ; Decode_Packet_Receive_CRC + 134
        0x0000174c:    f003fe8e    ....    BL       Timer3_GetTickMs ; 0x546c
        0x00001750:    f003fe90    ....    BL       Timer3_ResetTickMs ; 0x5474
        0x00001754:    493e        >I      LDR      r1,[pc,#248] ; [0x1850] = 0x20000408
        0x00001756:    7e48        H~      LDRB     r0,[r1,#0x19]
        0x00001758:    4a3e        >J      LDR      r2,[pc,#248] ; [0x1854] = 0x20000212
        0x0000175a:    7050        Pp      STRB     r0,[r2,#1]
        0x0000175c:    07b2        ..      LSLS     r2,r6,#30
        0x0000175e:    d11a        ..      BNE      0x1796 ; Decode_Packet_Receive_CRC + 134
        0x00001760:    9f03        ..      LDR      r7,[sp,#0xc]
        0x00001762:    42b8        .B      CMP      r0,r7
        0x00001764:    d117        ..      BNE      0x1796 ; Decode_Packet_Receive_CRC + 134
        0x00001766:    0930        0.      LSRS     r0,r6,#4
        0x00001768:    7e09        .~      LDRB     r1,[r1,#0x18]
        0x0000176a:    0909        ..      LSRS     r1,r1,#4
        0x0000176c:    4281        .B      CMP      r1,r0
        0x0000176e:    d112        ..      BNE      0x1796 ; Decode_Packet_Receive_CRC + 134
        0x00001770:    0731        1.      LSLS     r1,r6,#28
        0x00001772:    0f89        ..      LSRS     r1,r1,#30
        0x00001774:    2230        0"      MOVS     r2,#0x30
        0x00001776:    437a        zC      MULS     r2,r7,r2
        0x00001778:    4b37        7K      LDR      r3,[pc,#220] ; [0x1858] = 0x2000073c
        0x0000177a:    5498        .T      STRB     r0,[r3,r2]
        0x0000177c:    1898        ..      ADDS     r0,r3,r2
        0x0000177e:    8105        ..      STRH     r5,[r0,#8]
        0x00001780:    9a02        ..      LDR      r2,[sp,#8]
        0x00001782:    7142        Bq      STRB     r2,[r0,#5]
        0x00001784:    9a01        ..      LDR      r2,[sp,#4]
        0x00001786:    7102        .q      STRB     r2,[r0,#4]
        0x00001788:    70c7        .p      STRB     r7,[r0,#3]
        0x0000178a:    2200        ."      MOVS     r2,#0
        0x0000178c:    7082        .p      STRB     r2,[r0,#2]
        0x0000178e:    7041        Ap      STRB     r1,[r0,#1]
        0x00001790:    f004faf2    ....    BL       Update_DataFlash_From_Master ; 0x5d78
        0x00001794:    2401        .$      MOVS     r4,#1
        0x00001796:    4620         F      MOV      r0,r4
        0x00001798:    b005        ..      ADD      sp,sp,#0x14
        0x0000179a:    bdf0        ..      POP      {r4-r7,pc}
    Decode_Packet_Receive_SHA
        0x0000179c:    b5f0        ..      PUSH     {r4-r7,lr}
        0x0000179e:    b0b1        ..      SUB      sp,sp,#0xc4
        0x000017a0:    460c        .F      MOV      r4,r1
        0x000017a2:    78ce        .x      LDRB     r6,[r1,#3]
        0x000017a4:    788d        .x      LDRB     r5,[r1,#2]
        0x000017a6:    784f        Ox      LDRB     r7,[r1,#1]
        0x000017a8:    7808        .x      LDRB     r0,[r1,#0]
        0x000017aa:    9002        ..      STR      r0,[sp,#8]
        0x000017ac:    f003fe6c    ..l.    BL       Timer3_SetTickMs ; 0x5488
        0x000017b0:    f003fe5c    ..\.    BL       Timer3_GetTickMs ; 0x546c
        0x000017b4:    1d20         .      ADDS     r0,r4,#4
        0x000017b6:    2100        .!      MOVS     r1,#0
        0x000017b8:    2920         )      CMP      r1,#0x20
        0x000017ba:    d004        ..      BEQ      0x17c6 ; Decode_Packet_Receive_SHA + 42
        0x000017bc:    5c42        B\      LDRB     r2,[r0,r1]
        0x000017be:    ab04        ..      ADD      r3,sp,#0x10
        0x000017c0:    545a        ZT      STRB     r2,[r3,r1]
        0x000017c2:    1c49        I.      ADDS     r1,r1,#1
        0x000017c4:    e7f8        ..      B        0x17b8 ; Decode_Packet_Receive_SHA + 28
        0x000017c6:    ac03        ..      ADD      r4,sp,#0xc
        0x000017c8:    70e6        .p      STRB     r6,[r4,#3]
        0x000017ca:    70a5        .p      STRB     r5,[r4,#2]
        0x000017cc:    7067        gp      STRB     r7,[r4,#1]
        0x000017ce:    9802        ..      LDR      r0,[sp,#8]
        0x000017d0:    7020         p      STRB     r0,[r4,#0]
        0x000017d2:    9501        ..      STR      r5,[sp,#4]
        0x000017d4:    ad14        ..      ADD      r5,sp,#0x50
        0x000017d6:    4628        (F      MOV      r0,r5
        0x000017d8:    f003fbd8    ....    BL       Sha256Initialise ; 0x4f8c
        0x000017dc:    2204        ."      MOVS     r2,#4
        0x000017de:    4628        (F      MOV      r0,r5
        0x000017e0:    4621        !F      MOV      r1,r4
        0x000017e2:    f003fbf9    ....    BL       Sha256Update ; 0x4fd8
        0x000017e6:    ac0c        ..      ADD      r4,sp,#0x30
        0x000017e8:    4628        (F      MOV      r0,r5
        0x000017ea:    4621        !F      MOV      r1,r4
        0x000017ec:    f003fb7a    ..z.    BL       Sha256Finalise ; 0x4ee4
        0x000017f0:    a804        ..      ADD      r0,sp,#0x10
        0x000017f2:    2220         "      MOVS     r2,#0x20
        0x000017f4:    4621        !F      MOV      r1,r4
        0x000017f6:    f7fefcb7    ....    BL       memcmp ; 0x168
        0x000017fa:    2400        .$      MOVS     r4,#0
        0x000017fc:    2800        .(      CMP      r0,#0
        0x000017fe:    d123        #.      BNE      0x1848 ; Decode_Packet_Receive_SHA + 172
        0x00001800:    f003fe34    ..4.    BL       Timer3_GetTickMs ; 0x546c
        0x00001804:    f003fe36    ..6.    BL       Timer3_ResetTickMs ; 0x5474
        0x00001808:    4911        .I      LDR      r1,[pc,#68] ; [0x1850] = 0x20000408
        0x0000180a:    7e48        H~      LDRB     r0,[r1,#0x19]
        0x0000180c:    4a11        .J      LDR      r2,[pc,#68] ; [0x1854] = 0x20000212
        0x0000180e:    7050        Pp      STRB     r0,[r2,#1]
        0x00001810:    9b02        ..      LDR      r3,[sp,#8]
        0x00001812:    079a        ..      LSLS     r2,r3,#30
        0x00001814:    d118        ..      BNE      0x1848 ; Decode_Packet_Receive_SHA + 172
        0x00001816:    42b8        .B      CMP      r0,r7
        0x00001818:    d116        ..      BNE      0x1848 ; Decode_Packet_Receive_SHA + 172
        0x0000181a:    461a        .F      MOV      r2,r3
        0x0000181c:    0918        ..      LSRS     r0,r3,#4
        0x0000181e:    7e09        .~      LDRB     r1,[r1,#0x18]
        0x00001820:    0909        ..      LSRS     r1,r1,#4
        0x00001822:    4281        .B      CMP      r1,r0
        0x00001824:    d110        ..      BNE      0x1848 ; Decode_Packet_Receive_SHA + 172
        0x00001826:    0711        ..      LSLS     r1,r2,#28
        0x00001828:    0f89        ..      LSRS     r1,r1,#30
        0x0000182a:    2230        0"      MOVS     r2,#0x30
        0x0000182c:    437a        zC      MULS     r2,r7,r2
        0x0000182e:    4b0a        .K      LDR      r3,[pc,#40] ; [0x1858] = 0x2000073c
        0x00001830:    5498        .T      STRB     r0,[r3,r2]
        0x00001832:    1898        ..      ADDS     r0,r3,r2
        0x00001834:    7146        Fq      STRB     r6,[r0,#5]
        0x00001836:    9a01        ..      LDR      r2,[sp,#4]
        0x00001838:    7102        .q      STRB     r2,[r0,#4]
        0x0000183a:    70c7        .p      STRB     r7,[r0,#3]
        0x0000183c:    2200        ."      MOVS     r2,#0
        0x0000183e:    7082        .p      STRB     r2,[r0,#2]
        0x00001840:    7041        Ap      STRB     r1,[r0,#1]
        0x00001842:    f004fa99    ....    BL       Update_DataFlash_From_Master ; 0x5d78
        0x00001846:    2401        .$      MOVS     r4,#1
        0x00001848:    4620         F      MOV      r0,r4
        0x0000184a:    b031        1.      ADD      sp,sp,#0xc4
        0x0000184c:    bdf0        ..      POP      {r4-r7,pc}
        0x0000184e:    46c0        .F      MOV      r8,r8
    $d.15
    __arm_cp.9_0
        0x00001850:    20000408    ...     DCD    536871944
    __arm_cp.9_1
        0x00001854:    20000212    ...     DCD    536871442
    __arm_cp.9_2
        0x00001858:    2000073c    <..     DCD    536872764
    $t.3
    EP3_Handler
        0x0000185c:    b510        ..      PUSH     {r4,lr}
        0x0000185e:    4c05        .L      LDR      r4,[pc,#20] ; [0x1874] = 0x40060050
        0x00001860:    6820         h      LDR      r0,[r4,#0]
        0x00001862:    1900        ..      ADDS     r0,r0,r4
        0x00001864:    30b0        .0      ADDS     r0,r0,#0xb0
        0x00001866:    6861        ah      LDR      r1,[r4,#4]
        0x00001868:    f000f968    ..h.    BL       HID_GetOutReport ; 0x1b3c
        0x0000186c:    2040        @       MOVS     r0,#0x40
        0x0000186e:    6060        ``      STR      r0,[r4,#4]
        0x00001870:    bd10        ..      POP      {r4,pc}
        0x00001872:    46c0        .F      MOV      r8,r8
    $d.4
    __arm_cp.2_0
        0x00001874:    40060050    P..@    DCD    1074135120
    $t.18
    FMC_Open
        0x00001878:    4802        .H      LDR      r0,[pc,#8] ; [0x1884] = 0x5000c000
        0x0000187a:    6801        .h      LDR      r1,[r0,#0]
        0x0000187c:    2201        ."      MOVS     r2,#1
        0x0000187e:    430a        .C      ORRS     r2,r2,r1
        0x00001880:    6002        .`      STR      r2,[r0,#0]
        0x00001882:    4770        pG      BX       lr
    $d.19
    __arm_cp.9_0
        0x00001884:    5000c000    ...P    DCD    1342226432
    $t.1
    FMC_Read
        0x00001888:    4932        2I      LDR      r1,[pc,#200] ; [0x1954] = 0x5000c004
        0x0000188a:    2200        ."      MOVS     r2,#0
        0x0000188c:    608a        .`      STR      r2,[r1,#8]
        0x0000188e:    6008        .`      STR      r0,[r1,#0]
        0x00001890:    2001        .       MOVS     r0,#1
        0x00001892:    60c8        .`      STR      r0,[r1,#0xc]
        0x00001894:    f3bf8f6f    ..o.    ISB      
        0x00001898:    68c8        .h      LDR      r0,[r1,#0xc]
        0x0000189a:    2800        .(      CMP      r0,#0
        0x0000189c:    d1fc        ..      BNE      0x1898 ; FMC_Read + 16
        0x0000189e:    6848        Hh      LDR      r0,[r1,#4]
        0x000018a0:    4770        pG      BX       lr
        0x000018a2:    46c0        .F      MOV      r8,r8
    FMC_Read
        0x000018a4:    492b        +I      LDR      r1,[pc,#172] ; [0x1954] = 0x5000c004
        0x000018a6:    2200        ."      MOVS     r2,#0
        0x000018a8:    608a        .`      STR      r2,[r1,#8]
        0x000018aa:    6008        .`      STR      r0,[r1,#0]
        0x000018ac:    2001        .       MOVS     r0,#1
        0x000018ae:    60c8        .`      STR      r0,[r1,#0xc]
        0x000018b0:    f3bf8f6f    ..o.    ISB      
        0x000018b4:    68c8        .h      LDR      r0,[r1,#0xc]
        0x000018b6:    2800        .(      CMP      r0,#0
        0x000018b8:    d1fc        ..      BNE      0x18b4 ; FMC_Read + 16
        0x000018ba:    6848        Hh      LDR      r0,[r1,#4]
        0x000018bc:    4770        pG      BX       lr
        0x000018be:    46c0        .F      MOV      r8,r8
    FMC_ReadConfig
        0x000018c0:    b570        p.      PUSH     {r4-r6,lr}
        0x000018c2:    460c        .F      MOV      r4,r1
        0x000018c4:    4605        .F      MOV      r5,r0
        0x000018c6:    2003        .       MOVS     r0,#3
        0x000018c8:    0506        ..      LSLS     r6,r0,#20
        0x000018ca:    2c00        .,      CMP      r4,#0
        0x000018cc:    d006        ..      BEQ      0x18dc ; FMC_ReadConfig + 28
        0x000018ce:    4630        0F      MOV      r0,r6
        0x000018d0:    f7ffffe8    ....    BL       FMC_Read ; 0x18a4
        0x000018d4:    c501        ..      STM      r5!,{r0}
        0x000018d6:    1d36        6.      ADDS     r6,r6,#4
        0x000018d8:    1e64        d.      SUBS     r4,r4,#1
        0x000018da:    e7f6        ..      B        0x18ca ; FMC_ReadConfig + 10
        0x000018dc:    2000        .       MOVS     r0,#0
        0x000018de:    bd70        p.      POP      {r4-r6,pc}
    FMC_ReadDataFlashBaseAddr
        0x000018e0:    4801        .H      LDR      r0,[pc,#4] ; [0x18e8] = 0x5000c014
        0x000018e2:    6800        .h      LDR      r0,[r0,#0]
        0x000018e4:    4770        pG      BX       lr
        0x000018e6:    46c0        .F      MOV      r8,r8
    $d.21
    __arm_cp.10_0
        0x000018e8:    5000c014    ...P    DCD    1342226452
    $t.5
    FMC_Write
        0x000018ec:    4a19        .J      LDR      r2,[pc,#100] ; [0x1954] = 0x5000c004
        0x000018ee:    2321        !#      MOVS     r3,#0x21
        0x000018f0:    6093        .`      STR      r3,[r2,#8]
        0x000018f2:    6010        .`      STR      r0,[r2,#0]
        0x000018f4:    6051        Q`      STR      r1,[r2,#4]
        0x000018f6:    2001        .       MOVS     r0,#1
        0x000018f8:    60d0        .`      STR      r0,[r2,#0xc]
        0x000018fa:    f3bf8f6f    ..o.    ISB      
        0x000018fe:    68d0        .h      LDR      r0,[r2,#0xc]
        0x00001900:    2800        .(      CMP      r0,#0
        0x00001902:    d1fc        ..      BNE      0x18fe ; FMC_Write + 18
        0x00001904:    4770        pG      BX       lr
        0x00001906:    46c0        .F      MOV      r8,r8
    FMC_WriteConfig
        0x00001908:    b5fe        ..      PUSH     {r1-r7,lr}
        0x0000190a:    9102        ..      STR      r1,[sp,#8]
        0x0000190c:    4606        .F      MOV      r6,r0
        0x0000190e:    2400        .$      MOVS     r4,#0
        0x00001910:    4f10        .O      LDR      r7,[pc,#64] ; [0x1954] = 0x5000c004
        0x00001912:    9401        ..      STR      r4,[sp,#4]
        0x00001914:    9802        ..      LDR      r0,[sp,#8]
        0x00001916:    4284        .B      CMP      r4,r0
        0x00001918:    d019        ..      BEQ      0x194e ; FMC_WriteConfig + 70
        0x0000191a:    00a1        ..      LSLS     r1,r4,#2
        0x0000191c:    5872        rX      LDR      r2,[r6,r1]
        0x0000191e:    2021        !       MOVS     r0,#0x21
        0x00001920:    60b8        .`      STR      r0,[r7,#8]
        0x00001922:    2003        .       MOVS     r0,#3
        0x00001924:    0500        ..      LSLS     r0,r0,#20
        0x00001926:    1808        ..      ADDS     r0,r1,r0
        0x00001928:    6038        8`      STR      r0,[r7,#0]
        0x0000192a:    607a        z`      STR      r2,[r7,#4]
        0x0000192c:    2201        ."      MOVS     r2,#1
        0x0000192e:    60fa        .`      STR      r2,[r7,#0xc]
        0x00001930:    1875        u.      ADDS     r5,r6,r1
        0x00001932:    f3bf8f6f    ..o.    ISB      
        0x00001936:    68f9        .h      LDR      r1,[r7,#0xc]
        0x00001938:    2900        .)      CMP      r1,#0
        0x0000193a:    d1fc        ..      BNE      0x1936 ; FMC_WriteConfig + 46
        0x0000193c:    f7ffffb2    ....    BL       FMC_Read ; 0x18a4
        0x00001940:    1c64        d.      ADDS     r4,r4,#1
        0x00001942:    6829        )h      LDR      r1,[r5,#0]
        0x00001944:    4288        .B      CMP      r0,r1
        0x00001946:    d0e5        ..      BEQ      0x1914 ; FMC_WriteConfig + 12
        0x00001948:    2000        .       MOVS     r0,#0
        0x0000194a:    43c0        .C      MVNS     r0,r0
        0x0000194c:    bdfe        ..      POP      {r1-r7,pc}
        0x0000194e:    9801        ..      LDR      r0,[sp,#4]
        0x00001950:    bdfe        ..      POP      {r1-r7,pc}
        0x00001952:    46c0        .F      MOV      r8,r8
    $d.26
    __arm_cp.13_0
        0x00001954:    5000c004    ...P    DCD    1342226436
    $t.32
    GPAB_IRQHandler
        0x00001958:    b5b0        ..      PUSH     {r4,r5,r7,lr}
        0x0000195a:    4c25        %L      LDR      r4,[pc,#148] ; [0x19f0] = 0x50004020
        0x0000195c:    6820         h      LDR      r0,[r4,#0]
        0x0000195e:    0640        @.      LSLS     r0,r0,#25
        0x00001960:    d507        ..      BPL      0x1972 ; GPAB_IRQHandler + 26
        0x00001962:    4834        4H      LDR      r0,[pc,#208] ; [0x1a34] = 0x2000036c
        0x00001964:    2100        .!      MOVS     r1,#0
        0x00001966:    6081        .`      STR      r1,[r0,#8]
        0x00001968:    60c1        .`      STR      r1,[r0,#0xc]
        0x0000196a:    2040        @       MOVS     r0,#0x40
        0x0000196c:    6020         `      STR      r0,[r4,#0]
        0x0000196e:    f7fffa85    ....    BL       Check_Button_Status_1 ; 0xe7c
        0x00001972:    2501        .%      MOVS     r5,#1
        0x00001974:    6c20         l      LDR      r0,[r4,#0x40]
        0x00001976:    0400        ..      LSLS     r0,r0,#16
        0x00001978:    d507        ..      BPL      0x198a ; GPAB_IRQHandler + 50
        0x0000197a:    03e8        ..      LSLS     r0,r5,#15
        0x0000197c:    492d        -I      LDR      r1,[pc,#180] ; [0x1a34] = 0x2000036c
        0x0000197e:    2200        ."      MOVS     r2,#0
        0x00001980:    620a        .b      STR      r2,[r1,#0x20]
        0x00001982:    624a        Jb      STR      r2,[r1,#0x24]
        0x00001984:    6420         d      STR      r0,[r4,#0x40]
        0x00001986:    f7fffae5    ....    BL       Check_Button_Status_4 ; 0xf54
        0x0000198a:    6c20         l      LDR      r0,[r4,#0x40]
        0x0000198c:    05c0        ..      LSLS     r0,r0,#23
        0x0000198e:    d507        ..      BPL      0x19a0 ; GPAB_IRQHandler + 72
        0x00001990:    0228        (.      LSLS     r0,r5,#8
        0x00001992:    4928        (I      LDR      r1,[pc,#160] ; [0x1a34] = 0x2000036c
        0x00001994:    2200        ."      MOVS     r2,#0
        0x00001996:    628a        .b      STR      r2,[r1,#0x28]
        0x00001998:    62ca        .b      STR      r2,[r1,#0x2c]
        0x0000199a:    6420         d      STR      r0,[r4,#0x40]
        0x0000199c:    f7fffafe    ....    BL       Check_Button_Status_5 ; 0xf9c
        0x000019a0:    6820         h      LDR      r0,[r4,#0]
        0x000019a2:    0500        ..      LSLS     r0,r0,#20
        0x000019a4:    d507        ..      BPL      0x19b6 ; GPAB_IRQHandler + 94
        0x000019a6:    02e8        ..      LSLS     r0,r5,#11
        0x000019a8:    4922        "I      LDR      r1,[pc,#136] ; [0x1a34] = 0x2000036c
        0x000019aa:    2200        ."      MOVS     r2,#0
        0x000019ac:    630a        .c      STR      r2,[r1,#0x30]
        0x000019ae:    634a        Jc      STR      r2,[r1,#0x34]
        0x000019b0:    6020         `      STR      r0,[r4,#0]
        0x000019b2:    f7fffb17    ....    BL       Check_Button_Status_6 ; 0xfe4
        0x000019b6:    6820         h      LDR      r0,[r4,#0]
        0x000019b8:    0540        @.      LSLS     r0,r0,#21
        0x000019ba:    d507        ..      BPL      0x19cc ; GPAB_IRQHandler + 116
        0x000019bc:    02a8        ..      LSLS     r0,r5,#10
        0x000019be:    491d        .I      LDR      r1,[pc,#116] ; [0x1a34] = 0x2000036c
        0x000019c0:    2200        ."      MOVS     r2,#0
        0x000019c2:    638a        .c      STR      r2,[r1,#0x38]
        0x000019c4:    63ca        .c      STR      r2,[r1,#0x3c]
        0x000019c6:    6020         `      STR      r0,[r4,#0]
        0x000019c8:    f7fffb30    ..0.    BL       Check_Button_Status_7 ; 0x102c
        0x000019cc:    6820         h      LDR      r0,[r4,#0]
        0x000019ce:    0580        ..      LSLS     r0,r0,#22
        0x000019d0:    d404        ..      BMI      0x19dc ; GPAB_IRQHandler + 132
        0x000019d2:    6820         h      LDR      r0,[r4,#0]
        0x000019d4:    6020         `      STR      r0,[r4,#0]
        0x000019d6:    6c20         l      LDR      r0,[r4,#0x40]
        0x000019d8:    6420         d      STR      r0,[r4,#0x40]
        0x000019da:    bdb0        ..      POP      {r4,r5,r7,pc}
        0x000019dc:    0268        h.      LSLS     r0,r5,#9
        0x000019de:    4915        .I      LDR      r1,[pc,#84] ; [0x1a34] = 0x2000036c
        0x000019e0:    2200        ."      MOVS     r2,#0
        0x000019e2:    640a        .d      STR      r2,[r1,#0x40]
        0x000019e4:    644a        Jd      STR      r2,[r1,#0x44]
        0x000019e6:    6020         `      STR      r0,[r4,#0]
        0x000019e8:    f7fffb44    ..D.    BL       Check_Button_Status_8 ; 0x1074
        0x000019ec:    bdb0        ..      POP      {r4,r5,r7,pc}
        0x000019ee:    46c0        .F      MOV      r8,r8
    $d.33
    __arm_cp.16_0
        0x000019f0:    50004020     @.P    DCD    1342193696
    $t.34
    GPCDEF_IRQHandler
        0x000019f4:    b510        ..      PUSH     {r4,lr}
        0x000019f6:    4c0e        .L      LDR      r4,[pc,#56] ; [0x1a30] = 0x500040a0
        0x000019f8:    6820         h      LDR      r0,[r4,#0]
        0x000019fa:    0600        ..      LSLS     r0,r0,#24
        0x000019fc:    d507        ..      BPL      0x1a0e ; GPCDEF_IRQHandler + 26
        0x000019fe:    480d        .H      LDR      r0,[pc,#52] ; [0x1a34] = 0x2000036c
        0x00001a00:    2100        .!      MOVS     r1,#0
        0x00001a02:    6101        .a      STR      r1,[r0,#0x10]
        0x00001a04:    6141        Aa      STR      r1,[r0,#0x14]
        0x00001a06:    2080        .       MOVS     r0,#0x80
        0x00001a08:    6020         `      STR      r0,[r4,#0]
        0x00001a0a:    f7fffa5b    ..[.    BL       Check_Button_Status_2 ; 0xec4
        0x00001a0e:    6820         h      LDR      r0,[r4,#0]
        0x00001a10:    0640        @.      LSLS     r0,r0,#25
        0x00001a12:    d404        ..      BMI      0x1a1e ; GPCDEF_IRQHandler + 42
        0x00001a14:    6820         h      LDR      r0,[r4,#0]
        0x00001a16:    6020         `      STR      r0,[r4,#0]
        0x00001a18:    6c20         l      LDR      r0,[r4,#0x40]
        0x00001a1a:    6420         d      STR      r0,[r4,#0x40]
        0x00001a1c:    bd10        ..      POP      {r4,pc}
        0x00001a1e:    4805        .H      LDR      r0,[pc,#20] ; [0x1a34] = 0x2000036c
        0x00001a20:    2100        .!      MOVS     r1,#0
        0x00001a22:    6181        .a      STR      r1,[r0,#0x18]
        0x00001a24:    61c1        .a      STR      r1,[r0,#0x1c]
        0x00001a26:    2040        @       MOVS     r0,#0x40
        0x00001a28:    6020         `      STR      r0,[r4,#0]
        0x00001a2a:    f7fffa6f    ..o.    BL       Check_Button_Status_3 ; 0xf0c
        0x00001a2e:    bd10        ..      POP      {r4,pc}
    $d.35
    __arm_cp.17_0
        0x00001a30:    500040a0    .@.P    DCD    1342193824
    __arm_cp.17_1
        0x00001a34:    2000036c    l..     DCD    536871788
    $t.1
    GPIO_EnableInt
        0x00001a38:    b5b0        ..      PUSH     {r4,r5,r7,lr}
        0x00001a3a:    0e13        ..      LSRS     r3,r2,#24
        0x00001a3c:    408b        .@      LSLS     r3,r3,r1
        0x00001a3e:    2401        .$      MOVS     r4,#1
        0x00001a40:    408c        .@      LSLS     r4,r4,r1
        0x00001a42:    6985        .i      LDR      r5,[r0,#0x18]
        0x00001a44:    43a5        .C      BICS     r5,r5,r4
        0x00001a46:    431d        .C      ORRS     r5,r5,r3
        0x00001a48:    6185        .a      STR      r5,[r0,#0x18]
        0x00001a4a:    23ff        .#      MOVS     r3,#0xff
        0x00001a4c:    061b        ..      LSLS     r3,r3,#24
        0x00001a4e:    439a        .C      BICS     r2,r2,r3
        0x00001a50:    408a        .@      LSLS     r2,r2,r1
        0x00001a52:    4b03        .K      LDR      r3,[pc,#12] ; [0x1a60] = 0x10001
        0x00001a54:    408b        .@      LSLS     r3,r3,r1
        0x00001a56:    69c1        .i      LDR      r1,[r0,#0x1c]
        0x00001a58:    4399        .C      BICS     r1,r1,r3
        0x00001a5a:    4311        .C      ORRS     r1,r1,r2
        0x00001a5c:    61c1        .a      STR      r1,[r0,#0x1c]
        0x00001a5e:    bdb0        ..      POP      {r4,r5,r7,pc}
    $d.2
    __arm_cp.1_0
        0x00001a60:    00010001    ....    DCD    65537
    $t.0
    GPIO_SetMode
        0x00001a64:    b5f0        ..      PUSH     {r4-r7,lr}
        0x00001a66:    2300        .#      MOVS     r3,#0
        0x00001a68:    461c        .F      MOV      r4,r3
        0x00001a6a:    2b20         +      CMP      r3,#0x20
        0x00001a6c:    d00e        ..      BEQ      0x1a8c ; GPIO_SetMode + 40
        0x00001a6e:    460d        .F      MOV      r5,r1
        0x00001a70:    40e5        .@      LSRS     r5,r5,r4
        0x00001a72:    07ed        ..      LSLS     r5,r5,#31
        0x00001a74:    d007        ..      BEQ      0x1a86 ; GPIO_SetMode + 34
        0x00001a76:    4615        .F      MOV      r5,r2
        0x00001a78:    409d        .@      LSLS     r5,r5,r3
        0x00001a7a:    2603        .&      MOVS     r6,#3
        0x00001a7c:    409e        .@      LSLS     r6,r6,r3
        0x00001a7e:    6807        .h      LDR      r7,[r0,#0]
        0x00001a80:    43b7        .C      BICS     r7,r7,r6
        0x00001a82:    432f        /C      ORRS     r7,r7,r5
        0x00001a84:    6007        .`      STR      r7,[r0,#0]
        0x00001a86:    1c9b        ..      ADDS     r3,r3,#2
        0x00001a88:    1c64        d.      ADDS     r4,r4,#1
        0x00001a8a:    e7ee        ..      B        0x1a6a ; GPIO_SetMode + 6
        0x00001a8c:    bdf0        ..      POP      {r4-r7,pc}
        0x00001a8e:    0000        ..      MOVS     r0,r0
    HID_ClassRequest
        0x00001a90:    b51c        ..      PUSH     {r2-r4,lr}
        0x00001a92:    466c        lF      MOV      r4,sp
        0x00001a94:    4620         F      MOV      r0,r4
        0x00001a96:    f003ff09    ....    BL       USBD_GetSetupPacket ; 0x58ac
        0x00001a9a:    2000        .       MOVS     r0,#0
        0x00001a9c:    5622        "V      LDRSB    r2,[r4,r0]
        0x00001a9e:    7861        ax      LDRB     r1,[r4,#1]
        0x00001aa0:    2a00        .*      CMP      r2,#0
        0x00001aa2:    d410        ..      BMI      0x1ac6 ; HID_ClassRequest + 54
        0x00001aa4:    290b        .)      CMP      r1,#0xb
        0x00001aa6:    d039        9.      BEQ      0x1b1c ; HID_ClassRequest + 140
        0x00001aa8:    290a        .)      CMP      r1,#0xa
        0x00001aaa:    d02d        -.      BEQ      0x1b08 ; HID_ClassRequest + 120
        0x00001aac:    2909        .)      CMP      r1,#9
        0x00001aae:    d124        $.      BNE      0x1afa ; HID_ClassRequest + 106
        0x00001ab0:    4669        iF      MOV      r1,sp
        0x00001ab2:    78c9        .x      LDRB     r1,[r1,#3]
        0x00001ab4:    2903        .)      CMP      r1,#3
        0x00001ab6:    d126        &.      BNE      0x1b06 ; HID_ClassRequest + 118
        0x00001ab8:    491e        .I      LDR      r1,[pc,#120] ; [0x1b34] = 0x40060024
        0x00001aba:    694a        Ji      LDR      r2,[r1,#0x14]
        0x00001abc:    2380        .#      MOVS     r3,#0x80
        0x00001abe:    4313        .C      ORRS     r3,r3,r2
        0x00001ac0:    614b        Ka      STR      r3,[r1,#0x14]
        0x00001ac2:    6108        .a      STR      r0,[r1,#0x10]
        0x00001ac4:    bd1c        ..      POP      {r2-r4,pc}
        0x00001ac6:    1e48        H.      SUBS     r0,r1,#1
        0x00001ac8:    2802        .(      CMP      r0,#2
        0x00001aca:    d206        ..      BCS      0x1ada ; HID_ClassRequest + 74
        0x00001acc:    4668        hF      MOV      r0,sp
        0x00001ace:    7981        .y      LDRB     r1,[r0,#6]
        0x00001ad0:    4a18        .J      LDR      r2,[pc,#96] ; [0x1b34] = 0x40060024
        0x00001ad2:    6111        .a      STR      r1,[r2,#0x10]
        0x00001ad4:    7981        .y      LDRB     r1,[r0,#6]
        0x00001ad6:    4818        .H      LDR      r0,[pc,#96] ; [0x1b38] = 0x20000210
        0x00001ad8:    e008        ..      B        0x1aec ; HID_ClassRequest + 92
        0x00001ada:    2903        .)      CMP      r1,#3
        0x00001adc:    d10d        ..      BNE      0x1afa ; HID_ClassRequest + 106
        0x00001ade:    4668        hF      MOV      r0,sp
        0x00001ae0:    7981        .y      LDRB     r1,[r0,#6]
        0x00001ae2:    4a14        .J      LDR      r2,[pc,#80] ; [0x1b34] = 0x40060024
        0x00001ae4:    6111        .a      STR      r1,[r2,#0x10]
        0x00001ae6:    7981        .y      LDRB     r1,[r0,#6]
        0x00001ae8:    4813        .H      LDR      r0,[pc,#76] ; [0x1b38] = 0x20000210
        0x00001aea:    1c40        @.      ADDS     r0,r0,#1
        0x00001aec:    f003ff78    ..x.    BL       USBD_PrepareCtrlIn ; 0x59e0
        0x00001af0:    2000        .       MOVS     r0,#0
        0x00001af2:    4601        .F      MOV      r1,r0
        0x00001af4:    f003ffa2    ....    BL       USBD_PrepareCtrlOut ; 0x5a3c
        0x00001af8:    bd1c        ..      POP      {r2-r4,pc}
        0x00001afa:    2000        .       MOVS     r0,#0
        0x00001afc:    f003ffd8    ....    BL       USBD_SetStall ; 0x5ab0
        0x00001b00:    2001        .       MOVS     r0,#1
        0x00001b02:    f003ffd5    ....    BL       USBD_SetStall ; 0x5ab0
        0x00001b06:    bd1c        ..      POP      {r2-r4,pc}
        0x00001b08:    4669        iF      MOV      r1,sp
        0x00001b0a:    78c9        .x      LDRB     r1,[r1,#3]
        0x00001b0c:    4a09        .J      LDR      r2,[pc,#36] ; [0x1b34] = 0x40060024
        0x00001b0e:    6853        Sh      LDR      r3,[r2,#4]
        0x00001b10:    2480        .$      MOVS     r4,#0x80
        0x00001b12:    431c        .C      ORRS     r4,r4,r3
        0x00001b14:    6054        T`      STR      r4,[r2,#4]
        0x00001b16:    4b08        .K      LDR      r3,[pc,#32] ; [0x1b38] = 0x20000210
        0x00001b18:    7019        .p      STRB     r1,[r3,#0]
        0x00001b1a:    e008        ..      B        0x1b2e ; HID_ClassRequest + 158
        0x00001b1c:    4669        iF      MOV      r1,sp
        0x00001b1e:    7889        .x      LDRB     r1,[r1,#2]
        0x00001b20:    4a04        .J      LDR      r2,[pc,#16] ; [0x1b34] = 0x40060024
        0x00001b22:    6853        Sh      LDR      r3,[r2,#4]
        0x00001b24:    2480        .$      MOVS     r4,#0x80
        0x00001b26:    431c        .C      ORRS     r4,r4,r3
        0x00001b28:    6054        T`      STR      r4,[r2,#4]
        0x00001b2a:    4b03        .K      LDR      r3,[pc,#12] ; [0x1b38] = 0x20000210
        0x00001b2c:    7059        Yp      STRB     r1,[r3,#1]
        0x00001b2e:    6010        .`      STR      r0,[r2,#0]
        0x00001b30:    bd1c        ..      POP      {r2-r4,pc}
        0x00001b32:    46c0        .F      MOV      r8,r8
    $d.8
    __arm_cp.4_0
        0x00001b34:    40060024    $..@    DCD    1074135076
    __arm_cp.4_1
        0x00001b38:    20000210    ...     DCD    536871440
    $t.13
    HID_GetOutReport
        0x00001b3c:    b580        ..      PUSH     {r7,lr}
        0x00001b3e:    f000fd0d    ....    BL       ProcessCommand ; 0x255c
        0x00001b42:    bd80        ..      POP      {r7,pc}
    HID_Init
        0x00001b44:    480b        .H      LDR      r0,[pc,#44] ; [0x1b74] = 0x40060018
        0x00001b46:    2100        .!      MOVS     r1,#0
        0x00001b48:    6001        .`      STR      r1,[r0,#0]
        0x00001b4a:    2111        .!      MOVS     r1,#0x11
        0x00001b4c:    0149        I.      LSLS     r1,r1,#5
        0x00001b4e:    460a        .F      MOV      r2,r1
        0x00001b50:    3220         2      ADDS     r2,r2,#0x20
        0x00001b52:    6102        .a      STR      r2,[r0,#0x10]
        0x00001b54:    2208        ."      MOVS     r2,#8
        0x00001b56:    6082        .`      STR      r2,[r0,#8]
        0x00001b58:    6201        .b      STR      r1,[r0,#0x20]
        0x00001b5a:    6182        .a      STR      r2,[r0,#0x18]
        0x00001b5c:    2141        A!      MOVS     r1,#0x41
        0x00001b5e:    6301        .c      STR      r1,[r0,#0x30]
        0x00001b60:    2110        .!      MOVS     r1,#0x10
        0x00001b62:    6281        .b      STR      r1,[r0,#0x28]
        0x00001b64:    2122        "!      MOVS     r1,#0x22
        0x00001b66:    6401        .d      STR      r1,[r0,#0x40]
        0x00001b68:    2150        P!      MOVS     r1,#0x50
        0x00001b6a:    6381        .c      STR      r1,[r0,#0x38]
        0x00001b6c:    2140        @!      MOVS     r1,#0x40
        0x00001b6e:    63c1        .c      STR      r1,[r0,#0x3c]
        0x00001b70:    4770        pG      BX       lr
        0x00001b72:    46c0        .F      MOV      r8,r8
    $d.6
    __arm_cp.3_0
        0x00001b74:    40060018    ...@    DCD    1074135064
    $t.14
    HID_SetInReport
        0x00001b78:    4770        pG      BX       lr
        0x00001b7a:    0000        ..      MOVS     r0,r0
    HardFault_Handler
        0x00001b7c:    4806        .H      LDR      r0,[pc,#24] ; [0x1b98] = 0x1b9d
        0x00001b7e:    2004        .       MOVS     r0,#4
        0x00001b80:    4671        qF      MOV      r1,lr
        0x00001b82:    4208        .B      TST      r0,r1
        0x00001b84:    d003        ..      BEQ      0x1b8e ; HardFault_Handler + 18
        0x00001b86:    f3ef8009    ....    MRS      r0,PSP
        0x00001b8a:    4671        qF      MOV      r1,lr
        0x00001b8c:    e006        ..      B        Hard_Fault_Handler ; 0x1b9c
        0x00001b8e:    f3ef8008    ....    MRS      r0,MSP
        0x00001b92:    e003        ..      B        Hard_Fault_Handler ; 0x1b9c
        0x00001b94:    e7fe        ..      B        0x1b94 ; HardFault_Handler + 24
        0x00001b96:    46c0        .F      MOV      r8,r8
    $d.3
    __arm_cp.1_0
        0x00001b98:    00001b9d    ....    DCD    7069
    $t.0
    Hard_Fault_Handler
        0x00001b9c:    b5b0        ..      PUSH     {r4,r5,r7,lr}
        0x00001b9e:    4604        .F      MOV      r4,r0
        0x00001ba0:    a00f        ..      ADR      r0,{pc}+0x40 ; 0x1be0
        0x00001ba2:    f005fb49    ..I.    BL       puts ; 0x7238
        0x00001ba6:    6821        !h      LDR      r1,[r4,#0]
        0x00001ba8:    a013        ..      ADR      r0,{pc}+0x50 ; 0x1bf8
        0x00001baa:    4d16        .M      LDR      r5,[pc,#88] ; [0x1c04] = 0x6cb1
        0x00001bac:    47a8        .G      BLX      r5
        0x00001bae:    6861        ah      LDR      r1,[r4,#4]
        0x00001bb0:    a015        ..      ADR      r0,{pc}+0x58 ; 0x1c08
        0x00001bb2:    47a8        .G      BLX      r5
        0x00001bb4:    68a1        .h      LDR      r1,[r4,#8]
        0x00001bb6:    a017        ..      ADR      r0,{pc}+0x5e ; 0x1c14
        0x00001bb8:    47a8        .G      BLX      r5
        0x00001bba:    68e1        .h      LDR      r1,[r4,#0xc]
        0x00001bbc:    a018        ..      ADR      r0,{pc}+0x64 ; 0x1c20
        0x00001bbe:    47a8        .G      BLX      r5
        0x00001bc0:    6921        !i      LDR      r1,[r4,#0x10]
        0x00001bc2:    a01a        ..      ADR      r0,{pc}+0x6a ; 0x1c2c
        0x00001bc4:    47a8        .G      BLX      r5
        0x00001bc6:    6961        ai      LDR      r1,[r4,#0x14]
        0x00001bc8:    a01b        ..      ADR      r0,{pc}+0x70 ; 0x1c38
        0x00001bca:    47a8        .G      BLX      r5
        0x00001bcc:    69a1        .i      LDR      r1,[r4,#0x18]
        0x00001bce:    a01d        ..      ADR      r0,{pc}+0x76 ; 0x1c44
        0x00001bd0:    47a8        .G      BLX      r5
        0x00001bd2:    69e1        .i      LDR      r1,[r4,#0x1c]
        0x00001bd4:    a01e        ..      ADR      r0,{pc}+0x7c ; 0x1c50
        0x00001bd6:    47a8        .G      BLX      r5
        0x00001bd8:    4820         H      LDR      r0,[pc,#128] ; [0x1c5c] = 0x50000008
        0x00001bda:    2101        .!      MOVS     r1,#1
        0x00001bdc:    6001        .`      STR      r1,[r0,#0]
        0x00001bde:    bdb0        ..      POP      {r4,r5,r7,pc}
    $d.1
        0x00001be0:    48206e49    In H    DCD    1210084937
        0x00001be4:    20647261    ard     DCD    543453793
        0x00001be8:    6c756146    Faul    DCD    1819631942
        0x00001bec:    61482074    t Ha    DCD    1632116852
        0x00001bf0:    656c646e    ndle    DCD    1701602414
        0x00001bf4:    00000072    r...    DCD    114
        0x00001bf8:    20203072    r0      DCD    538980466
        0x00001bfc:    7830203d    = 0x    DCD    2016419901
        0x00001c00:    000a7825    %x..    DCD    686117
    __arm_cp.0_2
        0x00001c04:    00006cb1    .l..    DCD    27825
        0x00001c08:    20203172    r1      DCD    538980722
        0x00001c0c:    7830203d    = 0x    DCD    2016419901
        0x00001c10:    000a7825    %x..    DCD    686117
        0x00001c14:    20203272    r2      DCD    538980978
        0x00001c18:    7830203d    = 0x    DCD    2016419901
        0x00001c1c:    000a7825    %x..    DCD    686117
        0x00001c20:    20203372    r3      DCD    538981234
        0x00001c24:    7830203d    = 0x    DCD    2016419901
        0x00001c28:    000a7825    %x..    DCD    686117
        0x00001c2c:    20323172    r12     DCD    540160370
        0x00001c30:    7830203d    = 0x    DCD    2016419901
        0x00001c34:    000a7825    %x..    DCD    686117
        0x00001c38:    2020726c    lr      DCD    538997356
        0x00001c3c:    7830203d    = 0x    DCD    2016419901
        0x00001c40:    000a7825    %x..    DCD    686117
        0x00001c44:    20206370    pc      DCD    538993520
        0x00001c48:    7830203d    = 0x    DCD    2016419901
        0x00001c4c:    000a7825    %x..    DCD    686117
        0x00001c50:    20727370    psr     DCD    544371568
        0x00001c54:    7830203d    = 0x    DCD    2016419901
        0x00001c58:    000a7825    %x..    DCD    686117
    __arm_cp.0_10
        0x00001c5c:    50000008    ...P    DCD    1342177288
    $t.9
    InvCipher
        0x00001c60:    b5f0        ..      PUSH     {r4-r7,lr}
        0x00001c62:    b093        ..      SUB      sp,sp,#0x4c
        0x00001c64:    460a        .F      MOV      r2,r1
        0x00001c66:    4601        .F      MOV      r1,r0
        0x00001c68:    200a        .       MOVS     r0,#0xa
        0x00001c6a:    9107        ..      STR      r1,[sp,#0x1c]
        0x00001c6c:    9201        ..      STR      r2,[sp,#4]
        0x00001c6e:    f7fefe9e    ....    BL       AddRoundKey ; 0x9ae
        0x00001c72:    2409        .$      MOVS     r4,#9
        0x00001c74:    4d6f        oM      LDR      r5,[pc,#444] ; [0x1e34] = 0x771a
        0x00001c76:    9b07        ..      LDR      r3,[sp,#0x1c]
        0x00001c78:    7b58        X{      LDRB     r0,[r3,#0xd]
        0x00001c7a:    7a59        Yz      LDRB     r1,[r3,#9]
        0x00001c7c:    7359        Ys      STRB     r1,[r3,#0xd]
        0x00001c7e:    7959        Yy      LDRB     r1,[r3,#5]
        0x00001c80:    785a        Zx      LDRB     r2,[r3,#1]
        0x00001c82:    715a        Zq      STRB     r2,[r3,#5]
        0x00001c84:    7259        Yr      STRB     r1,[r3,#9]
        0x00001c86:    7058        Xp      STRB     r0,[r3,#1]
        0x00001c88:    7898        .x      LDRB     r0,[r3,#2]
        0x00001c8a:    7a99        .z      LDRB     r1,[r3,#0xa]
        0x00001c8c:    7099        .p      STRB     r1,[r3,#2]
        0x00001c8e:    7298        .r      STRB     r0,[r3,#0xa]
        0x00001c90:    7998        .y      LDRB     r0,[r3,#6]
        0x00001c92:    7b99        .{      LDRB     r1,[r3,#0xe]
        0x00001c94:    7199        .q      STRB     r1,[r3,#6]
        0x00001c96:    7398        .s      STRB     r0,[r3,#0xe]
        0x00001c98:    78d8        .x      LDRB     r0,[r3,#3]
        0x00001c9a:    79d9        .y      LDRB     r1,[r3,#7]
        0x00001c9c:    70d9        .p      STRB     r1,[r3,#3]
        0x00001c9e:    7ad9        .z      LDRB     r1,[r3,#0xb]
        0x00001ca0:    71d9        .q      STRB     r1,[r3,#7]
        0x00001ca2:    7bd9        .{      LDRB     r1,[r3,#0xf]
        0x00001ca4:    73d8        .s      STRB     r0,[r3,#0xf]
        0x00001ca6:    72d9        .r      STRB     r1,[r3,#0xb]
        0x00001ca8:    2000        .       MOVS     r0,#0
        0x00001caa:    4619        .F      MOV      r1,r3
        0x00001cac:    2804        .(      CMP      r0,#4
        0x00001cae:    d00a        ..      BEQ      0x1cc6 ; InvCipher + 102
        0x00001cb0:    2200        ."      MOVS     r2,#0
        0x00001cb2:    2a10        .*      CMP      r2,#0x10
        0x00001cb4:    d004        ..      BEQ      0x1cc0 ; InvCipher + 96
        0x00001cb6:    5c8b        .\      LDRB     r3,[r1,r2]
        0x00001cb8:    5ceb        .\      LDRB     r3,[r5,r3]
        0x00001cba:    548b        .T      STRB     r3,[r1,r2]
        0x00001cbc:    1d12        ..      ADDS     r2,r2,#4
        0x00001cbe:    e7f8        ..      B        0x1cb2 ; InvCipher + 82
        0x00001cc0:    1c49        I.      ADDS     r1,r1,#1
        0x00001cc2:    1c40        @.      ADDS     r0,r0,#1
        0x00001cc4:    e7f2        ..      B        0x1cac ; InvCipher + 76
        0x00001cc6:    9402        ..      STR      r4,[sp,#8]
        0x00001cc8:    b2e6        ..      UXTB     r6,r4
        0x00001cca:    4630        0F      MOV      r0,r6
        0x00001ccc:    9907        ..      LDR      r1,[sp,#0x1c]
        0x00001cce:    9a01        ..      LDR      r2,[sp,#4]
        0x00001cd0:    f7fefe6d    ..m.    BL       AddRoundKey ; 0x9ae
        0x00001cd4:    2e00        ..      CMP      r6,#0
        0x00001cd6:    d100        ..      BNE      0x1cda ; InvCipher + 122
        0x00001cd8:    e0a9        ..      B        0x1e2e ; InvCipher + 462
        0x00001cda:    2000        .       MOVS     r0,#0
        0x00001cdc:    2810        .(      CMP      r0,#0x10
        0x00001cde:    d100        ..      BNE      0x1ce2 ; InvCipher + 130
        0x00001ce0:    e0a2        ..      B        0x1e28 ; InvCipher + 456
        0x00001ce2:    9a07        ..      LDR      r2,[sp,#0x1c]
        0x00001ce4:    5611        .V      LDRSB    r1,[r2,r0]
        0x00001ce6:    9110        ..      STR      r1,[sp,#0x40]
        0x00001ce8:    09cb        ..      LSRS     r3,r1,#7
        0x00001cea:    241b        .$      MOVS     r4,#0x1b
        0x00001cec:    4023        #@      ANDS     r3,r3,r4
        0x00001cee:    0049        I.      LSLS     r1,r1,#1
        0x00001cf0:    404b        K@      EORS     r3,r3,r1
        0x00001cf2:    461d        .F      MOV      r5,r3
        0x00001cf4:    1813        ..      ADDS     r3,r2,r0
        0x00001cf6:    9306        ..      STR      r3,[sp,#0x18]
        0x00001cf8:    9011        ..      STR      r0,[sp,#0x44]
        0x00001cfa:    2001        .       MOVS     r0,#1
        0x00001cfc:    561e        .V      LDRSB    r6,[r3,r0]
        0x00001cfe:    2002        .       MOVS     r0,#2
        0x00001d00:    561f        .V      LDRSB    r7,[r3,r0]
        0x00001d02:    463a        :F      MOV      r2,r7
        0x00001d04:    4072        r@      EORS     r2,r2,r6
        0x00001d06:    2003        .       MOVS     r0,#3
        0x00001d08:    5618        .V      LDRSB    r0,[r3,r0]
        0x00001d0a:    9012        ..      STR      r0,[sp,#0x48]
        0x00001d0c:    4042        B@      EORS     r2,r2,r0
        0x00001d0e:    462b        +F      MOV      r3,r5
        0x00001d10:    9505        ..      STR      r5,[sp,#0x14]
        0x00001d12:    406a        j@      EORS     r2,r2,r5
        0x00001d14:    09f0        ..      LSRS     r0,r6,#7
        0x00001d16:    4020         @      ANDS     r0,r0,r4
        0x00001d18:    0075        u.      LSLS     r5,r6,#1
        0x00001d1a:    950d        ..      STR      r5,[sp,#0x34]
        0x00001d1c:    4068        h@      EORS     r0,r0,r5
        0x00001d1e:    900f        ..      STR      r0,[sp,#0x3c]
        0x00001d20:    4042        B@      EORS     r2,r2,r0
        0x00001d22:    005b        [.      LSLS     r3,r3,#1
        0x00001d24:    b249        I.      SXTB     r1,r1
        0x00001d26:    09c8        ..      LSRS     r0,r1,#7
        0x00001d28:    4020         @      ANDS     r0,r0,r4
        0x00001d2a:    4058        X@      EORS     r0,r0,r3
        0x00001d2c:    900c        ..      STR      r0,[sp,#0x30]
        0x00001d2e:    4042        B@      EORS     r2,r2,r0
        0x00001d30:    09f9        ..      LSRS     r1,r7,#7
        0x00001d32:    4021        !@      ANDS     r1,r1,r4
        0x00001d34:    007d        }.      LSLS     r5,r7,#1
        0x00001d36:    4069        i@      EORS     r1,r1,r5
        0x00001d38:    910e        ..      STR      r1,[sp,#0x38]
        0x00001d3a:    0048        H.      LSLS     r0,r1,#1
        0x00001d3c:    900a        ..      STR      r0,[sp,#0x28]
        0x00001d3e:    b26d        m.      SXTB     r5,r5
        0x00001d40:    09e9        ..      LSRS     r1,r5,#7
        0x00001d42:    4021        !@      ANDS     r1,r1,r4
        0x00001d44:    4041        A@      EORS     r1,r1,r0
        0x00001d46:    404a        J@      EORS     r2,r2,r1
        0x00001d48:    460d        .F      MOV      r5,r1
        0x00001d4a:    9104        ..      STR      r1,[sp,#0x10]
        0x00001d4c:    b25b        [.      SXTB     r3,r3
        0x00001d4e:    09db        ..      LSRS     r3,r3,#7
        0x00001d50:    4023        #@      ANDS     r3,r3,r4
        0x00001d52:    980c        ..      LDR      r0,[sp,#0x30]
        0x00001d54:    0040        @.      LSLS     r0,r0,#1
        0x00001d56:    4058        X@      EORS     r0,r0,r3
        0x00001d58:    900b        ..      STR      r0,[sp,#0x2c]
        0x00001d5a:    4042        B@      EORS     r2,r2,r0
        0x00001d5c:    980f        ..      LDR      r0,[sp,#0x3c]
        0x00001d5e:    0041        A.      LSLS     r1,r0,#1
        0x00001d60:    b24b        K.      SXTB     r3,r1
        0x00001d62:    09d8        ..      LSRS     r0,r3,#7
        0x00001d64:    4020         @      ANDS     r0,r0,r4
        0x00001d66:    9b0d        ..      LDR      r3,[sp,#0x34]
        0x00001d68:    b25b        [.      SXTB     r3,r3
        0x00001d6a:    09db        ..      LSRS     r3,r3,#7
        0x00001d6c:    4023        #@      ANDS     r3,r3,r4
        0x00001d6e:    404b        K@      EORS     r3,r3,r1
        0x00001d70:    930d        ..      STR      r3,[sp,#0x34]
        0x00001d72:    0059        Y.      LSLS     r1,r3,#1
        0x00001d74:    4041        A@      EORS     r1,r1,r0
        0x00001d76:    9103        ..      STR      r1,[sp,#0xc]
        0x00001d78:    404a        J@      EORS     r2,r2,r1
        0x00001d7a:    980a        ..      LDR      r0,[sp,#0x28]
        0x00001d7c:    b240        @.      SXTB     r0,r0
        0x00001d7e:    09c0        ..      LSRS     r0,r0,#7
        0x00001d80:    4020         @      ANDS     r0,r0,r4
        0x00001d82:    0069        i.      LSLS     r1,r5,#1
        0x00001d84:    4041        A@      EORS     r1,r1,r0
        0x00001d86:    9109        ..      STR      r1,[sp,#0x24]
        0x00001d88:    404a        J@      EORS     r2,r2,r1
        0x00001d8a:    9912        ..      LDR      r1,[sp,#0x48]
        0x00001d8c:    09c8        ..      LSRS     r0,r1,#7
        0x00001d8e:    4020         @      ANDS     r0,r0,r4
        0x00001d90:    0049        I.      LSLS     r1,r1,#1
        0x00001d92:    4048        H@      EORS     r0,r0,r1
        0x00001d94:    0043        C.      LSLS     r3,r0,#1
        0x00001d96:    b25d        ].      SXTB     r5,r3
        0x00001d98:    09ed        ..      LSRS     r5,r5,#7
        0x00001d9a:    4025        %@      ANDS     r5,r5,r4
        0x00001d9c:    b249        I.      SXTB     r1,r1
        0x00001d9e:    09c9        ..      LSRS     r1,r1,#7
        0x00001da0:    4021        !@      ANDS     r1,r1,r4
        0x00001da2:    4059        Y@      EORS     r1,r1,r3
        0x00001da4:    910a        ..      STR      r1,[sp,#0x28]
        0x00001da6:    0049        I.      LSLS     r1,r1,#1
        0x00001da8:    4069        i@      EORS     r1,r1,r5
        0x00001daa:    9108        ..      STR      r1,[sp,#0x20]
        0x00001dac:    404a        J@      EORS     r2,r2,r1
        0x00001dae:    9b11        ..      LDR      r3,[sp,#0x44]
        0x00001db0:    9d07        ..      LDR      r5,[sp,#0x1c]
        0x00001db2:    54ea        .T      STRB     r2,[r5,r3]
        0x00001db4:    9a10        ..      LDR      r2,[sp,#0x40]
        0x00001db6:    4056        V@      EORS     r6,r6,r2
        0x00001db8:    4046        F@      EORS     r6,r6,r0
        0x00001dba:    4630        0F      MOV      r0,r6
        0x00001dbc:    4078        x@      EORS     r0,r0,r7
        0x00001dbe:    9a05        ..      LDR      r2,[sp,#0x14]
        0x00001dc0:    4050        P@      EORS     r0,r0,r2
        0x00001dc2:    990d        ..      LDR      r1,[sp,#0x34]
        0x00001dc4:    4048        H@      EORS     r0,r0,r1
        0x00001dc6:    9c0b        ..      LDR      r4,[sp,#0x2c]
        0x00001dc8:    4060        `@      EORS     r0,r0,r4
        0x00001dca:    990a        ..      LDR      r1,[sp,#0x28]
        0x00001dcc:    4048        H@      EORS     r0,r0,r1
        0x00001dce:    9903        ..      LDR      r1,[sp,#0xc]
        0x00001dd0:    4048        H@      EORS     r0,r0,r1
        0x00001dd2:    9b09        ..      LDR      r3,[sp,#0x24]
        0x00001dd4:    4058        X@      EORS     r0,r0,r3
        0x00001dd6:    9a08        ..      LDR      r2,[sp,#0x20]
        0x00001dd8:    4050        P@      EORS     r0,r0,r2
        0x00001dda:    9a06        ..      LDR      r2,[sp,#0x18]
        0x00001ddc:    70d0        .p      STRB     r0,[r2,#3]
        0x00001dde:    9811        ..      LDR      r0,[sp,#0x44]
        0x00001de0:    9d12        ..      LDR      r5,[sp,#0x48]
        0x00001de2:    406e        n@      EORS     r6,r6,r5
        0x00001de4:    9d0e        ..      LDR      r5,[sp,#0x38]
        0x00001de6:    406e        n@      EORS     r6,r6,r5
        0x00001de8:    9d0c        ..      LDR      r5,[sp,#0x30]
        0x00001dea:    406e        n@      EORS     r6,r6,r5
        0x00001dec:    9d04        ..      LDR      r5,[sp,#0x10]
        0x00001dee:    406e        n@      EORS     r6,r6,r5
        0x00001df0:    4066        f@      EORS     r6,r6,r4
        0x00001df2:    404e        N@      EORS     r6,r6,r1
        0x00001df4:    460d        .F      MOV      r5,r1
        0x00001df6:    405e        ^@      EORS     r6,r6,r3
        0x00001df8:    9c08        ..      LDR      r4,[sp,#0x20]
        0x00001dfa:    4066        f@      EORS     r6,r6,r4
        0x00001dfc:    7096        .p      STRB     r6,[r2,#2]
        0x00001dfe:    9b10        ..      LDR      r3,[sp,#0x40]
        0x00001e00:    405f        _@      EORS     r7,r7,r3
        0x00001e02:    9912        ..      LDR      r1,[sp,#0x48]
        0x00001e04:    404f        O@      EORS     r7,r7,r1
        0x00001e06:    9b0f        ..      LDR      r3,[sp,#0x3c]
        0x00001e08:    405f        _@      EORS     r7,r7,r3
        0x00001e0a:    990e        ..      LDR      r1,[sp,#0x38]
        0x00001e0c:    404f        O@      EORS     r7,r7,r1
        0x00001e0e:    990d        ..      LDR      r1,[sp,#0x34]
        0x00001e10:    404f        O@      EORS     r7,r7,r1
        0x00001e12:    990b        ..      LDR      r1,[sp,#0x2c]
        0x00001e14:    404f        O@      EORS     r7,r7,r1
        0x00001e16:    990a        ..      LDR      r1,[sp,#0x28]
        0x00001e18:    404f        O@      EORS     r7,r7,r1
        0x00001e1a:    406f        o@      EORS     r7,r7,r5
        0x00001e1c:    9909        ..      LDR      r1,[sp,#0x24]
        0x00001e1e:    404f        O@      EORS     r7,r7,r1
        0x00001e20:    4067        g@      EORS     r7,r7,r4
        0x00001e22:    7057        Wp      STRB     r7,[r2,#1]
        0x00001e24:    1d00        ..      ADDS     r0,r0,#4
        0x00001e26:    e759        Y.      B        0x1cdc ; InvCipher + 124
        0x00001e28:    9c02        ..      LDR      r4,[sp,#8]
        0x00001e2a:    1e64        d.      SUBS     r4,r4,#1
        0x00001e2c:    e722        ".      B        0x1c74 ; InvCipher + 20
        0x00001e2e:    b013        ..      ADD      sp,sp,#0x4c
        0x00001e30:    bdf0        ..      POP      {r4-r7,pc}
        0x00001e32:    46c0        .F      MOV      r8,r8
    $d.10
    __arm_cp.7_0
        0x00001e34:    0000771a    .w..    DCD    30490
    $t.1
    KeyExpansion
        0x00001e38:    b5fc        ..      PUSH     {r2-r7,lr}
        0x00001e3a:    9001        ..      STR      r0,[sp,#4]
        0x00001e3c:    2200        ."      MOVS     r2,#0
        0x00001e3e:    2a10        .*      CMP      r2,#0x10
        0x00001e40:    d00c        ..      BEQ      0x1e5c ; KeyExpansion + 36
        0x00001e42:    5c88        .\      LDRB     r0,[r1,r2]
        0x00001e44:    9b01        ..      LDR      r3,[sp,#4]
        0x00001e46:    5498        .T      STRB     r0,[r3,r2]
        0x00001e48:    1898        ..      ADDS     r0,r3,r2
        0x00001e4a:    188b        ..      ADDS     r3,r1,r2
        0x00001e4c:    785c        \x      LDRB     r4,[r3,#1]
        0x00001e4e:    7044        Dp      STRB     r4,[r0,#1]
        0x00001e50:    789c        .x      LDRB     r4,[r3,#2]
        0x00001e52:    7084        .p      STRB     r4,[r0,#2]
        0x00001e54:    78db        .x      LDRB     r3,[r3,#3]
        0x00001e56:    70c3        .p      STRB     r3,[r0,#3]
        0x00001e58:    1d12        ..      ADDS     r2,r2,#4
        0x00001e5a:    e7f0        ..      B        0x1e3e ; KeyExpansion + 6
        0x00001e5c:    2704        .'      MOVS     r7,#4
        0x00001e5e:    2200        ."      MOVS     r2,#0
        0x00001e60:    2aa0        .*      CMP      r2,#0xa0
        0x00001e62:    d029        ).      BEQ      0x1eb8 ; KeyExpansion + 128
        0x00001e64:    9801        ..      LDR      r0,[sp,#4]
        0x00001e66:    1885        ..      ADDS     r5,r0,r2
        0x00001e68:    7beb        .{      LDRB     r3,[r5,#0xf]
        0x00001e6a:    7bac        .{      LDRB     r4,[r5,#0xe]
        0x00001e6c:    7b6e        n{      LDRB     r6,[r5,#0xd]
        0x00001e6e:    7b28        ({      LDRB     r0,[r5,#0xc]
        0x00001e70:    07b9        ..      LSLS     r1,r7,#30
        0x00001e72:    d003        ..      BEQ      0x1e7c ; KeyExpansion + 68
        0x00001e74:    9300        ..      STR      r3,[sp,#0]
        0x00001e76:    4623        #F      MOV      r3,r4
        0x00001e78:    4601        .F      MOV      r1,r0
        0x00001e7a:    e00c        ..      B        0x1e96 ; KeyExpansion + 94
        0x00001e7c:    490f        .I      LDR      r1,[pc,#60] ; [0x1ebc] = 0x781a
        0x00001e7e:    5d89        .]      LDRB     r1,[r1,r6]
        0x00001e80:    9100        ..      STR      r1,[sp,#0]
        0x00001e82:    08b9        ..      LSRS     r1,r7,#2
        0x00001e84:    a60e        ..      ADR      r6,{pc}+0x3c ; 0x1ec0
        0x00001e86:    5c71        q\      LDRB     r1,[r6,r1]
        0x00001e88:    9e00        ..      LDR      r6,[sp,#0]
        0x00001e8a:    4071        q@      EORS     r1,r1,r6
        0x00001e8c:    4e0b        .N      LDR      r6,[pc,#44] ; [0x1ebc] = 0x781a
        0x00001e8e:    5c30        0\      LDRB     r0,[r6,r0]
        0x00001e90:    9000        ..      STR      r0,[sp,#0]
        0x00001e92:    5cf3        .\      LDRB     r3,[r6,r3]
        0x00001e94:    5d36        6]      LDRB     r6,[r6,r4]
        0x00001e96:    9801        ..      LDR      r0,[sp,#4]
        0x00001e98:    5c80        .\      LDRB     r0,[r0,r2]
        0x00001e9a:    4048        H@      EORS     r0,r0,r1
        0x00001e9c:    7428        (t      STRB     r0,[r5,#0x10]
        0x00001e9e:    7868        hx      LDRB     r0,[r5,#1]
        0x00001ea0:    4070        p@      EORS     r0,r0,r6
        0x00001ea2:    7468        ht      STRB     r0,[r5,#0x11]
        0x00001ea4:    78a8        .x      LDRB     r0,[r5,#2]
        0x00001ea6:    4058        X@      EORS     r0,r0,r3
        0x00001ea8:    74a8        .t      STRB     r0,[r5,#0x12]
        0x00001eaa:    78e8        .x      LDRB     r0,[r5,#3]
        0x00001eac:    9900        ..      LDR      r1,[sp,#0]
        0x00001eae:    4048        H@      EORS     r0,r0,r1
        0x00001eb0:    74e8        .t      STRB     r0,[r5,#0x13]
        0x00001eb2:    1d12        ..      ADDS     r2,r2,#4
        0x00001eb4:    1c7f        ..      ADDS     r7,r7,#1
        0x00001eb6:    e7d3        ..      B        0x1e60 ; KeyExpansion + 40
        0x00001eb8:    bdfc        ..      POP      {r2-r7,pc}
        0x00001eba:    46c0        .F      MOV      r8,r8
    $d.2
    __arm_cp.1_0
        0x00001ebc:    0000781a    .x..    DCD    30746
    Rcon
        0x00001ec0:    0402018d    ....    DCD    67240333
        0x00001ec4:    40201008    .. @    DCD    1075843080
        0x00001ec8:    00361b80    ..6.    DCD    3545984
    $t.18
    MBGetData16Bits
        0x00001ecc:    2801        .(      CMP      r0,#1
        0x00001ece:    d005        ..      BEQ      0x1edc ; MBGetData16Bits + 16
        0x00001ed0:    2800        .(      CMP      r0,#0
        0x00001ed2:    d107        ..      BNE      0x1ee4 ; MBGetData16Bits + 24
        0x00001ed4:    2910        .)      CMP      r1,#0x10
        0x00001ed6:    d803        ..      BHI      0x1ee0 ; MBGetData16Bits + 20
        0x00001ed8:    4813        .H      LDR      r0,[pc,#76] ; [0x1f28] = 0x200002e0
        0x00001eda:    e007        ..      B        0x1eec ; MBGetData16Bits + 32
        0x00001edc:    2910        .)      CMP      r1,#0x10
        0x00001ede:    d903        ..      BLS      0x1ee8 ; MBGetData16Bits + 28
        0x00001ee0:    2000        .       MOVS     r0,#0
        0x00001ee2:    4770        pG      BX       lr
        0x00001ee4:    2002        .       MOVS     r0,#2
        0x00001ee6:    4770        pG      BX       lr
        0x00001ee8:    480f        .H      LDR      r0,[pc,#60] ; [0x1f28] = 0x200002e0
        0x00001eea:    3020         0      ADDS     r0,r0,#0x20
        0x00001eec:    0049        I.      LSLS     r1,r1,#1
        0x00001eee:    1808        ..      ADDS     r0,r1,r0
        0x00001ef0:    1e80        ..      SUBS     r0,r0,#2
        0x00001ef2:    8800        ..      LDRH     r0,[r0,#0]
        0x00001ef4:    8010        ..      STRH     r0,[r2,#0]
        0x00001ef6:    2001        .       MOVS     r0,#1
        0x00001ef8:    4770        pG      BX       lr
        0x00001efa:    46c0        .F      MOV      r8,r8
    MBSetData16Bits
        0x00001efc:    2801        .(      CMP      r0,#1
        0x00001efe:    d005        ..      BEQ      0x1f0c ; MBSetData16Bits + 16
        0x00001f00:    2800        .(      CMP      r0,#0
        0x00001f02:    d107        ..      BNE      0x1f14 ; MBSetData16Bits + 24
        0x00001f04:    2910        .)      CMP      r1,#0x10
        0x00001f06:    d803        ..      BHI      0x1f10 ; MBSetData16Bits + 20
        0x00001f08:    4807        .H      LDR      r0,[pc,#28] ; [0x1f28] = 0x200002e0
        0x00001f0a:    e007        ..      B        0x1f1c ; MBSetData16Bits + 32
        0x00001f0c:    2910        .)      CMP      r1,#0x10
        0x00001f0e:    d903        ..      BLS      0x1f18 ; MBSetData16Bits + 28
        0x00001f10:    2000        .       MOVS     r0,#0
        0x00001f12:    4770        pG      BX       lr
        0x00001f14:    2002        .       MOVS     r0,#2
        0x00001f16:    4770        pG      BX       lr
        0x00001f18:    4803        .H      LDR      r0,[pc,#12] ; [0x1f28] = 0x200002e0
        0x00001f1a:    3020         0      ADDS     r0,r0,#0x20
        0x00001f1c:    0049        I.      LSLS     r1,r1,#1
        0x00001f1e:    1808        ..      ADDS     r0,r1,r0
        0x00001f20:    1e80        ..      SUBS     r0,r0,#2
        0x00001f22:    8002        ..      STRH     r2,[r0,#0]
        0x00001f24:    2001        .       MOVS     r0,#1
        0x00001f26:    4770        pG      BX       lr
    $d.23
    __arm_cp.11_0
        0x00001f28:    200002e0    ...     DCD    536871648
    $t.24
    ModbusMaster_ModbusMasterTransaction
        0x00001f2c:    b5f0        ..      PUSH     {r4-r7,lr}
        0x00001f2e:    b0c3        ..      SUB      sp,sp,#0x10c
        0x00001f30:    aa03        ..      ADD      r2,sp,#0xc
        0x00001f32:    7050        Pp      STRB     r0,[r2,#1]
        0x00001f34:    49cd        .I      LDR      r1,[pc,#820] ; [0x226c] = 0x200002d2
        0x00001f36:    78c9        .x      LDRB     r1,[r1,#3]
        0x00001f38:    7011        .p      STRB     r1,[r2,#0]
        0x00001f3a:    2702        .'      MOVS     r7,#2
        0x00001f3c:    2817        .(      CMP      r0,#0x17
        0x00001f3e:    9001        ..      STR      r0,[sp,#4]
        0x00001f40:    d810        ..      BHI      0x1f64 ; ModbusMaster_ModbusMasterTransaction + 56
        0x00001f42:    2201        ."      MOVS     r2,#1
        0x00001f44:    4082        .@      LSLS     r2,r2,r0
        0x00001f46:    49b0        .I      LDR      r1,[pc,#704] ; [0x2208] = 0x80001e
        0x00001f48:    420a        .B      TST      r2,r1
        0x00001f4a:    d00b        ..      BEQ      0x1f64 ; ModbusMaster_ModbusMasterTransaction + 56
        0x00001f4c:    4ac7        .J      LDR      r2,[pc,#796] ; [0x226c] = 0x200002d2
        0x00001f4e:    8910        ..      LDRH     r0,[r2,#8]
        0x00001f50:    a903        ..      ADD      r1,sp,#0xc
        0x00001f52:    70c8        .p      STRB     r0,[r1,#3]
        0x00001f54:    8952        R.      LDRH     r2,[r2,#0xa]
        0x00001f56:    714a        Jq      STRB     r2,[r1,#5]
        0x00001f58:    0a00        ..      LSRS     r0,r0,#8
        0x00001f5a:    7088        .p      STRB     r0,[r1,#2]
        0x00001f5c:    0a12        ..      LSRS     r2,r2,#8
        0x00001f5e:    9801        ..      LDR      r0,[sp,#4]
        0x00001f60:    710a        .q      STRB     r2,[r1,#4]
        0x00001f62:    2706        .'      MOVS     r7,#6
        0x00001f64:    2817        .(      CMP      r0,#0x17
        0x00001f66:    d80d        ..      BHI      0x1f84 ; ModbusMaster_ModbusMasterTransaction + 88
        0x00001f68:    2201        ."      MOVS     r2,#1
        0x00001f6a:    4082        .@      LSLS     r2,r2,r0
        0x00001f6c:    49a7        .I      LDR      r1,[pc,#668] ; [0x220c] = 0xc18060
        0x00001f6e:    420a        .B      TST      r2,r1
        0x00001f70:    d008        ..      BEQ      0x1f84 ; ModbusMaster_ModbusMasterTransaction + 88
        0x00001f72:    48be        .H      LDR      r0,[pc,#760] ; [0x226c] = 0x200002d2
        0x00001f74:    88c3        ..      LDRH     r3,[r0,#6]
        0x00001f76:    0a19        ..      LSRS     r1,r3,#8
        0x00001f78:    aa03        ..      ADD      r2,sp,#0xc
        0x00001f7a:    55d1        .U      STRB     r1,[r2,r7]
        0x00001f7c:    19d1        ..      ADDS     r1,r2,r7
        0x00001f7e:    9801        ..      LDR      r0,[sp,#4]
        0x00001f80:    704b        Kp      STRB     r3,[r1,#1]
        0x00001f82:    1cbf        ..      ADDS     r7,r7,#2
        0x00001f84:    4601        .F      MOV      r1,r0
        0x00001f86:    390f        .9      SUBS     r1,r1,#0xf
        0x00001f88:    2908        .)      CMP      r1,#8
        0x00001f8a:    d822        ".      BHI      0x1fd2 ; ModbusMaster_ModbusMasterTransaction + 166
        0x00001f8c:    4479        yD      ADD      r1,r1,pc
        0x00001f8e:    7909        .y      LDRB     r1,[r1,#4]
        0x00001f90:    0049        I.      LSLS     r1,r1,#1
        0x00001f92:    448f        .D      ADD      pc,pc,r1
    $d.25
        0x00001f94:    5c5c0432    2.\\    DCD    1549534258
        0x00001f98:    265c5c5c    \\\&    DCD    643587164
        0x00001f9c:    0004        ..      DCW    4
    $t.26
        0x00001f9e:    48b3        .H      LDR      r0,[pc,#716] ; [0x226c] = 0x200002d2
        0x00001fa0:    8980        ..      LDRH     r0,[r0,#0xc]
        0x00001fa2:    0a01        ..      LSRS     r1,r0,#8
        0x00001fa4:    aa03        ..      ADD      r2,sp,#0xc
        0x00001fa6:    55d1        .U      STRB     r1,[r2,r7]
        0x00001fa8:    19d1        ..      ADDS     r1,r2,r7
        0x00001faa:    7048        Hp      STRB     r0,[r1,#1]
        0x00001fac:    0042        B.      LSLS     r2,r0,#1
        0x00001fae:    708a        .p      STRB     r2,[r1,#2]
        0x00001fb0:    1cff        ..      ADDS     r7,r7,#3
        0x00001fb2:    b2c0        ..      UXTB     r0,r0
        0x00001fb4:    49ae        .I      LDR      r1,[pc,#696] ; [0x2270] = 0x200006bc
        0x00001fb6:    2800        .(      CMP      r0,#0
        0x00001fb8:    d049        I.      BEQ      0x204e ; ModbusMaster_ModbusMasterTransaction + 290
        0x00001fba:    b2fa        ..      UXTB     r2,r7
        0x00001fbc:    880b        ..      LDRH     r3,[r1,#0]
        0x00001fbe:    0a1c        ..      LSRS     r4,r3,#8
        0x00001fc0:    ad03        ..      ADD      r5,sp,#0xc
        0x00001fc2:    54ac        .T      STRB     r4,[r5,r2]
        0x00001fc4:    1c7a        z.      ADDS     r2,r7,#1
        0x00001fc6:    b2d2        ..      UXTB     r2,r2
        0x00001fc8:    54ab        .T      STRB     r3,[r5,r2]
        0x00001fca:    1c89        ..      ADDS     r1,r1,#2
        0x00001fcc:    1e40        @.      SUBS     r0,r0,#1
        0x00001fce:    1cbf        ..      ADDS     r7,r7,#2
        0x00001fd0:    e7f1        ..      B        0x1fb6 ; ModbusMaster_ModbusMasterTransaction + 138
        0x00001fd2:    2602        .&      MOVS     r6,#2
        0x00001fd4:    2101        .!      MOVS     r1,#1
        0x00001fd6:    2805        .(      CMP      r0,#5
        0x00001fd8:    d02f        /.      BEQ      0x203a ; ModbusMaster_ModbusMasterTransaction + 270
        0x00001fda:    2806        .(      CMP      r0,#6
        0x00001fdc:    d137        7.      BNE      0x204e ; ModbusMaster_ModbusMasterTransaction + 290
        0x00001fde:    4aa4        .J      LDR      r2,[pc,#656] ; [0x2270] = 0x200006bc
        0x00001fe0:    e02d        -.      B        0x203e ; ModbusMaster_ModbusMasterTransaction + 274
        0x00001fe2:    48a3        .H      LDR      r0,[pc,#652] ; [0x2270] = 0x200006bc
        0x00001fe4:    8801        ..      LDRH     r1,[r0,#0]
        0x00001fe6:    0a0a        ..      LSRS     r2,r1,#8
        0x00001fe8:    ab03        ..      ADD      r3,sp,#0xc
        0x00001fea:    55da        .U      STRB     r2,[r3,r7]
        0x00001fec:    19da        ..      ADDS     r2,r3,r7
        0x00001fee:    7051        Qp      STRB     r1,[r2,#1]
        0x00001ff0:    1c82        ..      ADDS     r2,r0,#2
        0x00001ff2:    1cbb        ..      ADDS     r3,r7,#2
        0x00001ff4:    2604        .&      MOVS     r6,#4
        0x00001ff6:    2103        .!      MOVS     r1,#3
        0x00001ff8:    e022        ".      B        0x2040 ; ModbusMaster_ModbusMasterTransaction + 276
        0x00001ffa:    489c        .H      LDR      r0,[pc,#624] ; [0x226c] = 0x200002d2
        0x00001ffc:    8981        ..      LDRH     r1,[r0,#0xc]
        0x00001ffe:    0a08        ..      LSRS     r0,r1,#8
        0x00002000:    aa03        ..      ADD      r2,sp,#0xc
        0x00002002:    55d0        .U      STRB     r0,[r2,r7]
        0x00002004:    19d0        ..      ADDS     r0,r2,r7
        0x00002006:    7041        Ap      STRB     r1,[r0,#1]
        0x00002008:    074a        J.      LSLS     r2,r1,#29
        0x0000200a:    08c9        ..      LSRS     r1,r1,#3
        0x0000200c:    2a00        .*      CMP      r2,#0
        0x0000200e:    d000        ..      BEQ      0x2012 ; ModbusMaster_ModbusMasterTransaction + 230
        0x00002010:    1c49        I.      ADDS     r1,r1,#1
        0x00002012:    7081        .p      STRB     r1,[r0,#2]
        0x00002014:    b2c8        ..      UXTB     r0,r1
        0x00002016:    1cff        ..      ADDS     r7,r7,#3
        0x00002018:    2100        .!      MOVS     r1,#0
        0x0000201a:    4a95        .J      LDR      r2,[pc,#596] ; [0x2270] = 0x200006bc
        0x0000201c:    4288        .B      CMP      r0,r1
        0x0000201e:    d016        ..      BEQ      0x204e ; ModbusMaster_ModbusMasterTransaction + 290
        0x00002020:    2301        .#      MOVS     r3,#1
        0x00002022:    460c        .F      MOV      r4,r1
        0x00002024:    439c        .C      BICS     r4,r4,r3
        0x00002026:    5b13        .[      LDRH     r3,[r2,r4]
        0x00002028:    07cc        ..      LSLS     r4,r1,#31
        0x0000202a:    0f24        $.      LSRS     r4,r4,#28
        0x0000202c:    40e3        .@      LSRS     r3,r3,r4
        0x0000202e:    b2fc        ..      UXTB     r4,r7
        0x00002030:    ad03        ..      ADD      r5,sp,#0xc
        0x00002032:    552b        +U      STRB     r3,[r5,r4]
        0x00002034:    1c49        I.      ADDS     r1,r1,#1
        0x00002036:    1c7f        ..      ADDS     r7,r7,#1
        0x00002038:    e7f0        ..      B        0x201c ; ModbusMaster_ModbusMasterTransaction + 240
        0x0000203a:    4a8c        .J      LDR      r2,[pc,#560] ; [0x226c] = 0x200002d2
        0x0000203c:    320c        .2      ADDS     r2,r2,#0xc
        0x0000203e:    463b        ;F      MOV      r3,r7
        0x00002040:    8812        ..      LDRH     r2,[r2,#0]
        0x00002042:    0a14        ..      LSRS     r4,r2,#8
        0x00002044:    ad03        ..      ADD      r5,sp,#0xc
        0x00002046:    54ec        .T      STRB     r4,[r5,r3]
        0x00002048:    1879        y.      ADDS     r1,r7,r1
        0x0000204a:    546a        jT      STRB     r2,[r5,r1]
        0x0000204c:    19bf        ..      ADDS     r7,r7,r6
        0x0000204e:    b2fc        ..      UXTB     r4,r7
        0x00002050:    2600        .&      MOVS     r6,#0
        0x00002052:    4d79        yM      LDR      r5,[pc,#484] ; [0x2238] = 0xffff
        0x00002054:    4628        (F      MOV      r0,r5
        0x00002056:    42b4        .B      CMP      r4,r6
        0x00002058:    d006        ..      BEQ      0x2068 ; ModbusMaster_ModbusMasterTransaction + 316
        0x0000205a:    a903        ..      ADD      r1,sp,#0xc
        0x0000205c:    5d89        .]      LDRB     r1,[r1,r6]
        0x0000205e:    b280        ..      UXTH     r0,r0
        0x00002060:    f004f89e    ....    BL       crc16_update ; 0x61a0
        0x00002064:    1c76        v.      ADDS     r6,r6,#1
        0x00002066:    e7f6        ..      B        0x2056 ; ModbusMaster_ModbusMasterTransaction + 298
        0x00002068:    ae03        ..      ADD      r6,sp,#0xc
        0x0000206a:    5530        0U      STRB     r0,[r6,r4]
        0x0000206c:    0a00        ..      LSRS     r0,r0,#8
        0x0000206e:    1c79        y.      ADDS     r1,r7,#1
        0x00002070:    b2c9        ..      UXTB     r1,r1
        0x00002072:    5470        pT      STRB     r0,[r6,r1]
        0x00002074:    1cb8        ..      ADDS     r0,r7,#2
        0x00002076:    b2c7        ..      UXTB     r7,r0
        0x00002078:    2400        .$      MOVS     r4,#0
        0x0000207a:    55f4        .U      STRB     r4,[r6,r7]
        0x0000207c:    f000f94e    ..N.    BL       Modbus_Master_Rece_Flush ; 0x231c
        0x00002080:    4630        0F      MOV      r0,r6
        0x00002082:    4639        9F      MOV      r1,r7
        0x00002084:    f000f960    ..`.    BL       Modbus_Master_Write ; 0x2348
        0x00002088:    2708        .'      MOVS     r7,#8
        0x0000208a:    f000f91f    ....    BL       Modbus_Master_Millis ; 0x22cc
        0x0000208e:    9002        ..      STR      r0,[sp,#8]
        0x00002090:    4621        !F      MOV      r1,r4
        0x00002092:    0638        8.      LSLS     r0,r7,#24
        0x00002094:    d03f        ?.      BEQ      0x2116 ; ModbusMaster_ModbusMasterTransaction + 490
        0x00002096:    0608        ..      LSLS     r0,r1,#24
        0x00002098:    d13d        =.      BNE      0x2116 ; ModbusMaster_ModbusMasterTransaction + 490
        0x0000209a:    f000f931    ..1.    BL       Modbus_Master_Rece_Available ; 0x2300
        0x0000209e:    2800        .(      CMP      r0,#0
        0x000020a0:    d006        ..      BEQ      0x20b0 ; ModbusMaster_ModbusMasterTransaction + 388
        0x000020a2:    b2e6        ..      UXTB     r6,r4
        0x000020a4:    f000f920    .. .    BL       Modbus_Master_Read ; 0x22e8
        0x000020a8:    a903        ..      ADD      r1,sp,#0xc
        0x000020aa:    5588        .U      STRB     r0,[r1,r6]
        0x000020ac:    1e7f        ..      SUBS     r7,r7,#1
        0x000020ae:    1c64        d.      ADDS     r4,r4,#1
        0x000020b0:    b2e0        ..      UXTB     r0,r4
        0x000020b2:    2805        .(      CMP      r0,#5
        0x000020b4:    d11e        ..      BNE      0x20f4 ; ModbusMaster_ModbusMasterTransaction + 456
        0x000020b6:    486d        mH      LDR      r0,[pc,#436] ; [0x226c] = 0x200002d2
        0x000020b8:    78c1        .x      LDRB     r1,[r0,#3]
        0x000020ba:    a803        ..      ADD      r0,sp,#0xc
        0x000020bc:    7802        .x      LDRB     r2,[r0,#0]
        0x000020be:    2005        .       MOVS     r0,#5
        0x000020c0:    428a        .B      CMP      r2,r1
        0x000020c2:    d12a        *.      BNE      0x211a ; ModbusMaster_ModbusMasterTransaction + 494
        0x000020c4:    a903        ..      ADD      r1,sp,#0xc
        0x000020c6:    7849        Ix      LDRB     r1,[r1,#1]
        0x000020c8:    227f        ."      MOVS     r2,#0x7f
        0x000020ca:    400a        .@      ANDS     r2,r2,r1
        0x000020cc:    9b01        ..      LDR      r3,[sp,#4]
        0x000020ce:    429a        .B      CMP      r2,r3
        0x000020d0:    d125        %.      BNE      0x211e ; ModbusMaster_ModbusMasterTransaction + 498
        0x000020d2:    b24a        J.      SXTB     r2,r1
        0x000020d4:    2a00        .*      CMP      r2,#0
        0x000020d6:    d424        $.      BMI      0x2122 ; ModbusMaster_ModbusMasterTransaction + 502
        0x000020d8:    2917        .)      CMP      r1,#0x17
        0x000020da:    d80b        ..      BHI      0x20f4 ; ModbusMaster_ModbusMasterTransaction + 456
        0x000020dc:    2001        .       MOVS     r0,#1
        0x000020de:    4088        .@      LSLS     r0,r0,r1
        0x000020e0:    4a49        IJ      LDR      r2,[pc,#292] ; [0x2208] = 0x80001e
        0x000020e2:    4210        .B      TST      r0,r2
        0x000020e4:    d104        ..      BNE      0x20f0 ; ModbusMaster_ModbusMasterTransaction + 452
        0x000020e6:    4a4b        KJ      LDR      r2,[pc,#300] ; [0x2214] = 0x18060
        0x000020e8:    4210        .B      TST      r0,r2
        0x000020ea:    d010        ..      BEQ      0x210e ; ModbusMaster_ModbusMasterTransaction + 482
        0x000020ec:    2703        .'      MOVS     r7,#3
        0x000020ee:    e001        ..      B        0x20f4 ; ModbusMaster_ModbusMasterTransaction + 456
        0x000020f0:    a803        ..      ADD      r0,sp,#0xc
        0x000020f2:    7887        .x      LDRB     r7,[r0,#2]
        0x000020f4:    f000f8ea    ....    BL       Modbus_Master_Millis ; 0x22cc
        0x000020f8:    9902        ..      LDR      r1,[sp,#8]
        0x000020fa:    1a40        @.      SUBS     r0,r0,r1
        0x000020fc:    217d        }!      MOVS     r1,#0x7d
        0x000020fe:    0109        ..      LSLS     r1,r1,#4
        0x00002100:    4288        .B      CMP      r0,r1
        0x00002102:    d801        ..      BHI      0x2108 ; ModbusMaster_ModbusMasterTransaction + 476
        0x00002104:    2100        .!      MOVS     r1,#0
        0x00002106:    e7c4        ..      B        0x2092 ; ModbusMaster_ModbusMasterTransaction + 358
        0x00002108:    201d        .       MOVS     r0,#0x1d
        0x0000210a:    43c1        .C      MVNS     r1,r0
        0x0000210c:    e7c1        ..      B        0x2092 ; ModbusMaster_ModbusMasterTransaction + 358
        0x0000210e:    2916        .)      CMP      r1,#0x16
        0x00002110:    d1f0        ..      BNE      0x20f4 ; ModbusMaster_ModbusMasterTransaction + 456
        0x00002112:    2705        .'      MOVS     r7,#5
        0x00002114:    e7ee        ..      B        0x20f4 ; ModbusMaster_ModbusMasterTransaction + 456
        0x00002116:    4620         F      MOV      r0,r4
        0x00002118:    e005        ..      B        0x2126 ; ModbusMaster_ModbusMasterTransaction + 506
        0x0000211a:    21e0        .!      MOVS     r1,#0xe0
        0x0000211c:    e003        ..      B        0x2126 ; ModbusMaster_ModbusMasterTransaction + 506
        0x0000211e:    21e1        .!      MOVS     r1,#0xe1
        0x00002120:    e001        ..      B        0x2126 ; ModbusMaster_ModbusMasterTransaction + 506
        0x00002122:    a903        ..      ADD      r1,sp,#0xc
        0x00002124:    7889        .x      LDRB     r1,[r1,#2]
        0x00002126:    b2c4        ..      UXTB     r4,r0
        0x00002128:    2c05        .,      CMP      r4,#5
        0x0000212a:    d30f        ..      BCC      0x214c ; ModbusMaster_ModbusMasterTransaction + 544
        0x0000212c:    0608        ..      LSLS     r0,r1,#24
        0x0000212e:    d10d        ..      BNE      0x214c ; ModbusMaster_ModbusMasterTransaction + 544
        0x00002130:    1ea0        ..      SUBS     r0,r4,#2
        0x00002132:    9002        ..      STR      r0,[sp,#8]
        0x00002134:    b2c7        ..      UXTB     r7,r0
        0x00002136:    2600        .&      MOVS     r6,#0
        0x00002138:    42be        .B      CMP      r6,r7
        0x0000213a:    b2a8        ..      UXTH     r0,r5
        0x0000213c:    d209        ..      BCS      0x2152 ; ModbusMaster_ModbusMasterTransaction + 550
        0x0000213e:    a903        ..      ADD      r1,sp,#0xc
        0x00002140:    5d89        .]      LDRB     r1,[r1,r6]
        0x00002142:    f004f82d    ..-.    BL       crc16_update ; 0x61a0
        0x00002146:    4605        .F      MOV      r5,r0
        0x00002148:    1c76        v.      ADDS     r6,r6,#1
        0x0000214a:    e7f5        ..      B        0x2138 ; ModbusMaster_ModbusMasterTransaction + 524
        0x0000214c:    0608        ..      LSLS     r0,r1,#24
        0x0000214e:    d154        T.      BNE      0x21fa ; ModbusMaster_ModbusMasterTransaction + 718
        0x00002150:    e00d        ..      B        0x216e ; ModbusMaster_ModbusMasterTransaction + 578
        0x00002152:    a903        ..      ADD      r1,sp,#0xc
        0x00002154:    9a02        ..      LDR      r2,[sp,#8]
        0x00002156:    5c8a        .\      LDRB     r2,[r1,r2]
        0x00002158:    b2eb        ..      UXTB     r3,r5
        0x0000215a:    21e3        .!      MOVS     r1,#0xe3
        0x0000215c:    429a        .B      CMP      r2,r3
        0x0000215e:    d14c        L.      BNE      0x21fa ; ModbusMaster_ModbusMasterTransaction + 718
        0x00002160:    aa03        ..      ADD      r2,sp,#0xc
        0x00002162:    18a2        ..      ADDS     r2,r4,r2
        0x00002164:    1e52        R.      SUBS     r2,r2,#1
        0x00002166:    7812        .x      LDRB     r2,[r2,#0]
        0x00002168:    0a00        ..      LSRS     r0,r0,#8
        0x0000216a:    4282        .B      CMP      r2,r0
        0x0000216c:    d145        E.      BNE      0x21fa ; ModbusMaster_ModbusMasterTransaction + 718
        0x0000216e:    a803        ..      ADD      r0,sp,#0xc
        0x00002170:    7840        @x      LDRB     r0,[r0,#1]
        0x00002172:    2100        .!      MOVS     r1,#0
        0x00002174:    2817        .(      CMP      r0,#0x17
        0x00002176:    d840        @.      BHI      0x21fa ; ModbusMaster_ModbusMasterTransaction + 718
        0x00002178:    2201        ."      MOVS     r2,#1
        0x0000217a:    4082        .@      LSLS     r2,r2,r0
        0x0000217c:    4824        $H      LDR      r0,[pc,#144] ; [0x2210] = 0x800018
        0x0000217e:    4202        .B      TST      r2,r0
        0x00002180:    d015        ..      BEQ      0x21ae ; ModbusMaster_ModbusMasterTransaction + 642
        0x00002182:    a903        ..      ADD      r1,sp,#0xc
        0x00002184:    1cc8        ..      ADDS     r0,r1,#3
        0x00002186:    7889        .x      LDRB     r1,[r1,#2]
        0x00002188:    084a        J.      LSRS     r2,r1,#1
        0x0000218a:    2100        .!      MOVS     r1,#0
        0x0000218c:    4b2b        +K      LDR      r3,[pc,#172] ; [0x223c] = 0x2000063c
        0x0000218e:    460c        .F      MOV      r4,r1
        0x00002190:    42a2        .B      CMP      r2,r4
        0x00002192:    d032        2.      BEQ      0x21fa ; ModbusMaster_ModbusMasterTransaction + 718
        0x00002194:    2c3f        ?,      CMP      r4,#0x3f
        0x00002196:    d804        ..      BHI      0x21a2 ; ModbusMaster_ModbusMasterTransaction + 630
        0x00002198:    7845        Ex      LDRB     r5,[r0,#1]
        0x0000219a:    7806        .x      LDRB     r6,[r0,#0]
        0x0000219c:    0236        6.      LSLS     r6,r6,#8
        0x0000219e:    1975        u.      ADDS     r5,r6,r5
        0x000021a0:    801d        ..      STRH     r5,[r3,#0]
        0x000021a2:    4d32        2M      LDR      r5,[pc,#200] ; [0x226c] = 0x200002d2
        0x000021a4:    70ac        .p      STRB     r4,[r5,#2]
        0x000021a6:    1c80        ..      ADDS     r0,r0,#2
        0x000021a8:    1c9b        ..      ADDS     r3,r3,#2
        0x000021aa:    1c64        d.      ADDS     r4,r4,#1
        0x000021ac:    e7f0        ..      B        0x2190 ; ModbusMaster_ModbusMasterTransaction + 612
        0x000021ae:    0750        P.      LSLS     r0,r2,#29
        0x000021b0:    0f80        ..      LSRS     r0,r0,#30
        0x000021b2:    d022        ".      BEQ      0x21fa ; ModbusMaster_ModbusMasterTransaction + 718
        0x000021b4:    a803        ..      ADD      r0,sp,#0xc
        0x000021b6:    7883        .x      LDRB     r3,[r0,#2]
        0x000021b8:    0859        Y.      LSRS     r1,r3,#1
        0x000021ba:    2000        .       MOVS     r0,#0
        0x000021bc:    4a1f        .J      LDR      r2,[pc,#124] ; [0x223c] = 0x2000063c
        0x000021be:    b2c4        ..      UXTB     r4,r0
        0x000021c0:    42a1        .B      CMP      r1,r4
        0x000021c2:    d90d        ..      BLS      0x21e0 ; ModbusMaster_ModbusMasterTransaction + 692
        0x000021c4:    2c3f        ?,      CMP      r4,#0x3f
        0x000021c6:    d807        ..      BHI      0x21d8 ; ModbusMaster_ModbusMasterTransaction + 684
        0x000021c8:    0064        d.      LSLS     r4,r4,#1
        0x000021ca:    ad03        ..      ADD      r5,sp,#0xc
        0x000021cc:    1965        e.      ADDS     r5,r4,r5
        0x000021ce:    78ee        .x      LDRB     r6,[r5,#3]
        0x000021d0:    792d        -y      LDRB     r5,[r5,#4]
        0x000021d2:    022d        -.      LSLS     r5,r5,#8
        0x000021d4:    19ad        ..      ADDS     r5,r5,r6
        0x000021d6:    5315        .S      STRH     r5,[r2,r4]
        0x000021d8:    4c24        $L      LDR      r4,[pc,#144] ; [0x226c] = 0x200002d2
        0x000021da:    70a0        .p      STRB     r0,[r4,#2]
        0x000021dc:    1c40        @.      ADDS     r0,r0,#1
        0x000021de:    e7ee        ..      B        0x21be ; ModbusMaster_ModbusMasterTransaction + 658
        0x000021e0:    2100        .!      MOVS     r1,#0
        0x000021e2:    07db        ..      LSLS     r3,r3,#31
        0x000021e4:    d009        ..      BEQ      0x21fa ; ModbusMaster_ModbusMasterTransaction + 718
        0x000021e6:    2c3f        ?,      CMP      r4,#0x3f
        0x000021e8:    d804        ..      BHI      0x21f4 ; ModbusMaster_ModbusMasterTransaction + 712
        0x000021ea:    0063        c.      LSLS     r3,r4,#1
        0x000021ec:    ac03        ..      ADD      r4,sp,#0xc
        0x000021ee:    191c        ..      ADDS     r4,r3,r4
        0x000021f0:    78e4        .x      LDRB     r4,[r4,#3]
        0x000021f2:    52d4        .R      STRH     r4,[r2,r3]
        0x000021f4:    1c40        @.      ADDS     r0,r0,#1
        0x000021f6:    4a1d        .J      LDR      r2,[pc,#116] ; [0x226c] = 0x200002d2
        0x000021f8:    7090        .p      STRB     r0,[r2,#2]
        0x000021fa:    2000        .       MOVS     r0,#0
        0x000021fc:    4a1b        .J      LDR      r2,[pc,#108] ; [0x226c] = 0x200002d2
        0x000021fe:    8090        ..      STRH     r0,[r2,#4]
        0x00002200:    8010        ..      STRH     r0,[r2,#0]
        0x00002202:    b2c8        ..      UXTB     r0,r1
        0x00002204:    b043        C.      ADD      sp,sp,#0x10c
        0x00002206:    bdf0        ..      POP      {r4-r7,pc}
    $d.27
    __arm_cp.13_1
        0x00002208:    0080001e    ....    DCD    8388638
    __arm_cp.13_2
        0x0000220c:    00c18060    `...    DCD    12681312
    __arm_cp.13_5
        0x00002210:    00800018    ....    DCD    8388632
    __arm_cp.13_7
        0x00002214:    00018060    `...    DCD    98400
    $t.0
    ModbusMaster_begin
        0x00002218:    b580        ..      PUSH     {r7,lr}
        0x0000221a:    4814        .H      LDR      r0,[pc,#80] ; [0x226c] = 0x200002d2
        0x0000221c:    2100        .!      MOVS     r1,#0
        0x0000221e:    8081        ..      STRH     r1,[r0,#4]
        0x00002220:    7001        .p      STRB     r1,[r0,#0]
        0x00002222:    f000f857    ..W.    BL       Modbus_Master_RB_Initialize ; 0x22d4
        0x00002226:    bd80        ..      POP      {r7,pc}
    ModbusMaster_getResponseBuffer
        0x00002228:    283f        ?(      CMP      r0,#0x3f
        0x0000222a:    d803        ..      BHI      0x2234 ; ModbusMaster_getResponseBuffer + 12
        0x0000222c:    0040        @.      LSLS     r0,r0,#1
        0x0000222e:    4903        .I      LDR      r1,[pc,#12] ; [0x223c] = 0x2000063c
        0x00002230:    5a08        .Z      LDRH     r0,[r1,r0]
        0x00002232:    4770        pG      BX       lr
        0x00002234:    4800        .H      LDR      r0,[pc,#0] ; [0x2238] = 0xffff
        0x00002236:    4770        pG      BX       lr
    $d.17
    __arm_cp.9_0
        0x00002238:    0000ffff    ....    DCD    65535
    __arm_cp.9_1
        0x0000223c:    2000063c    <..     DCD    536872508
    $t.34
    ModbusMaster_readHoldingRegisters
        0x00002240:    b580        ..      PUSH     {r7,lr}
        0x00002242:    4b0a        .K      LDR      r3,[pc,#40] ; [0x226c] = 0x200002d2
        0x00002244:    815a        Z.      STRH     r2,[r3,#0xa]
        0x00002246:    8119        ..      STRH     r1,[r3,#8]
        0x00002248:    70d8        .p      STRB     r0,[r3,#3]
        0x0000224a:    2003        .       MOVS     r0,#3
        0x0000224c:    f7fffe6e    ..n.    BL       ModbusMaster_ModbusMasterTransaction ; 0x1f2c
        0x00002250:    bd80        ..      POP      {r7,pc}
        0x00002252:    46c0        .F      MOV      r8,r8
    ModbusMaster_writeSingleRegister
        0x00002254:    b510        ..      PUSH     {r4,lr}
        0x00002256:    4b05        .K      LDR      r3,[pc,#20] ; [0x226c] = 0x200002d2
        0x00002258:    2400        .$      MOVS     r4,#0
        0x0000225a:    819c        ..      STRH     r4,[r3,#0xc]
        0x0000225c:    80d9        ..      STRH     r1,[r3,#6]
        0x0000225e:    70d8        .p      STRB     r0,[r3,#3]
        0x00002260:    4803        .H      LDR      r0,[pc,#12] ; [0x2270] = 0x200006bc
        0x00002262:    8002        ..      STRH     r2,[r0,#0]
        0x00002264:    2006        .       MOVS     r0,#6
        0x00002266:    f7fffe61    ..a.    BL       ModbusMaster_ModbusMasterTransaction ; 0x1f2c
        0x0000226a:    bd10        ..      POP      {r4,pc}
    $d.41
    __arm_cp.20_0
        0x0000226c:    200002d2    ...     DCD    536871634
    __arm_cp.20_1
        0x00002270:    200006bc    ...     DCD    536872636
    $t.8
    Modbus_Init
        0x00002274:    b5b0        ..      PUSH     {r4,r5,r7,lr}
        0x00002276:    243b        ;$      MOVS     r4,#0x3b
        0x00002278:    4db7        .M      LDR      r5,[pc,#732] ; [0x2558] = 0x2000073c
        0x0000227a:    5d28        (]      LDRB     r0,[r5,r4]
        0x0000227c:    2800        .(      CMP      r0,#0
        0x0000227e:    d102        ..      BNE      0x2286 ; Modbus_Init + 18
        0x00002280:    f003ff0c    ....    BL       UseModbus ; 0x609c
        0x00002284:    5d28        (]      LDRB     r0,[r5,r4]
        0x00002286:    2801        .(      CMP      r0,#1
        0x00002288:    d110        ..      BNE      0x22ac ; Modbus_Init + 56
        0x0000228a:    4838        8H      LDR      r0,[pc,#224] ; [0x236c] = 0x40150000
        0x0000228c:    2401        .$      MOVS     r4,#1
        0x0000228e:    4621        !F      MOV      r1,r4
        0x00002290:    f003f9f6    ....    BL       UART_EnableInt ; 0x5680
        0x00002294:    0360        `.      LSLS     r0,r4,#13
        0x00002296:    4906        .I      LDR      r1,[pc,#24] ; [0x22b0] = 0xe000e100
        0x00002298:    6008        .`      STR      r0,[r1,#0]
        0x0000229a:    f000fcbd    ....    BL       SB_Timer2_Init ; 0x2c18
        0x0000229e:    07a0        ..      LSLS     r0,r4,#30
        0x000022a0:    4904        .I      LDR      r1,[pc,#16] ; [0x22b4] = 0x40110000
        0x000022a2:    680a        .h      LDR      r2,[r1,#0]
        0x000022a4:    4302        .C      ORRS     r2,r2,r0
        0x000022a6:    600a        .`      STR      r2,[r1,#0]
        0x000022a8:    f7ffffb6    ....    BL       ModbusMaster_begin ; 0x2218
        0x000022ac:    bdb0        ..      POP      {r4,r5,r7,pc}
        0x000022ae:    46c0        .F      MOV      r8,r8
    $d.9
    __arm_cp.2_2
        0x000022b0:    e000e100    ....    DCD    3758153984
    __arm_cp.2_3
        0x000022b4:    40110000    ...@    DCD    1074855936
    $t.6
    Modbus_Master_GetByte
        0x000022b8:    b580        ..      PUSH     {r7,lr}
        0x000022ba:    4601        .F      MOV      r1,r0
        0x000022bc:    482b        +H      LDR      r0,[pc,#172] ; [0x236c] = 0x40150000
        0x000022be:    2201        ."      MOVS     r2,#1
        0x000022c0:    f003f9f0    ....    BL       UART_Read ; 0x56a4
        0x000022c4:    1e40        @.      SUBS     r0,r0,#1
        0x000022c6:    1e41        A.      SUBS     r1,r0,#1
        0x000022c8:    4188        .A      SBCS     r0,r0,r1
        0x000022ca:    bd80        ..      POP      {r7,pc}
    Modbus_Master_Millis
        0x000022cc:    b580        ..      PUSH     {r7,lr}
        0x000022ce:    f003f8c7    ....    BL       Timer2_GetTickMs ; 0x5460
        0x000022d2:    bd80        ..      POP      {r7,pc}
    Modbus_Master_RB_Initialize
        0x000022d4:    b580        ..      PUSH     {r7,lr}
        0x000022d6:    481b        .H      LDR      r0,[pc,#108] ; [0x2344] = 0x20002d88
        0x000022d8:    4902        .I      LDR      r1,[pc,#8] ; [0x22e4] = 0x20002cbd
        0x000022da:    22c8        ."      MOVS     r2,#0xc8
        0x000022dc:    f004fb5a    ..Z.    BL       rbInitialize ; 0x6994
        0x000022e0:    2001        .       MOVS     r0,#1
        0x000022e2:    bd80        ..      POP      {r7,pc}
    $d.1
    __arm_cp.0_1
        0x000022e4:    20002cbd    .,.     DCD    536882365
    $t.10
    Modbus_Master_Read
        0x000022e8:    b580        ..      PUSH     {r7,lr}
        0x000022ea:    4816        .H      LDR      r0,[pc,#88] ; [0x2344] = 0x20002d88
        0x000022ec:    f004fb5a    ..Z.    BL       rbIsEmpty ; 0x69a4
        0x000022f0:    2800        .(      CMP      r0,#0
        0x000022f2:    d001        ..      BEQ      0x22f8 ; Modbus_Master_Read + 16
        0x000022f4:    20ff        .       MOVS     r0,#0xff
        0x000022f6:    bd80        ..      POP      {r7,pc}
        0x000022f8:    4812        .H      LDR      r0,[pc,#72] ; [0x2344] = 0x20002d88
        0x000022fa:    f004fb59    ..Y.    BL       rbPop ; 0x69b0
        0x000022fe:    bd80        ..      POP      {r7,pc}
    Modbus_Master_Rece_Available
        0x00002300:    b580        ..      PUSH     {r7,lr}
        0x00002302:    4810        .H      LDR      r0,[pc,#64] ; [0x2344] = 0x20002d88
        0x00002304:    7c80        .|      LDRB     r0,[r0,#0x12]
        0x00002306:    2801        .(      CMP      r0,#1
        0x00002308:    d102        ..      BNE      0x2310 ; Modbus_Master_Rece_Available + 16
        0x0000230a:    480e        .H      LDR      r0,[pc,#56] ; [0x2344] = 0x20002d88
        0x0000230c:    f004fb3c    ..<.    BL       rbClear ; 0x6988
        0x00002310:    480c        .H      LDR      r0,[pc,#48] ; [0x2344] = 0x20002d88
        0x00002312:    f004fb47    ..G.    BL       rbIsEmpty ; 0x69a4
        0x00002316:    4241        AB      RSBS     r1,r0,#0
        0x00002318:    4148        HA      ADCS     r0,r0,r1
        0x0000231a:    bd80        ..      POP      {r7,pc}
    Modbus_Master_Rece_Flush
        0x0000231c:    b580        ..      PUSH     {r7,lr}
        0x0000231e:    4809        .H      LDR      r0,[pc,#36] ; [0x2344] = 0x20002d88
        0x00002320:    f004fb32    ..2.    BL       rbClear ; 0x6988
        0x00002324:    bd80        ..      POP      {r7,pc}
        0x00002326:    46c0        .F      MOV      r8,r8
    Modbus_Master_Rece_Handler
        0x00002328:    b5e0        ..      PUSH     {r5-r7,lr}
        0x0000232a:    a801        ..      ADD      r0,sp,#4
        0x0000232c:    f7ffffc4    ....    BL       Modbus_Master_GetByte ; 0x22b8
        0x00002330:    2800        .(      CMP      r0,#0
        0x00002332:    d000        ..      BEQ      0x2336 ; Modbus_Master_Rece_Handler + 14
        0x00002334:    bd8c        ..      POP      {r2,r3,r7,pc}
        0x00002336:    a801        ..      ADD      r0,sp,#4
        0x00002338:    7801        .x      LDRB     r1,[r0,#0]
        0x0000233a:    4802        .H      LDR      r0,[pc,#8] ; [0x2344] = 0x20002d88
        0x0000233c:    f004fb4a    ..J.    BL       rbPush ; 0x69d4
        0x00002340:    bd8c        ..      POP      {r2,r3,r7,pc}
        0x00002342:    46c0        .F      MOV      r8,r8
    $d.9
    __arm_cp.4_0
        0x00002344:    20002d88    .-.     DCD    536882568
    $t.12
    Modbus_Master_Write
        0x00002348:    b5b0        ..      PUSH     {r4,r5,r7,lr}
        0x0000234a:    460a        .F      MOV      r2,r1
        0x0000234c:    4601        .F      MOV      r1,r0
        0x0000234e:    4d06        .M      LDR      r5,[pc,#24] ; [0x2368] = 0x50004220
        0x00002350:    2001        .       MOVS     r0,#1
        0x00002352:    6028        (`      STR      r0,[r5,#0]
        0x00002354:    4cd2        .L      LDR      r4,[pc,#840] ; [0x26a0] = 0x40150000
        0x00002356:    4620         F      MOV      r0,r4
        0x00002358:    f003f9b7    ....    BL       UART_Write ; 0x56ca
        0x0000235c:    69a0        .i      LDR      r0,[r4,#0x18]
        0x0000235e:    00c0        ..      LSLS     r0,r0,#3
        0x00002360:    d5fc        ..      BPL      0x235c ; Modbus_Master_Write + 20
        0x00002362:    2000        .       MOVS     r0,#0
        0x00002364:    6028        (`      STR      r0,[r5,#0]
        0x00002366:    bdb0        ..      POP      {r4,r5,r7,pc}
    $d.13
    __arm_cp.6_0
        0x00002368:    50004220     B.P    DCD    1342194208
    __arm_cp.6_1
        0x0000236c:    40150000    ...@    DCD    1075118080
    $t.10
    Modbus_Start
        0x00002370:    b5f0        ..      PUSH     {r4-r7,lr}
        0x00002372:    b089        ..      SUB      sp,sp,#0x24
        0x00002374:    a801        ..      ADD      r0,sp,#4
        0x00002376:    2420         $      MOVS     r4,#0x20
        0x00002378:    4621        !F      MOV      r1,r4
        0x0000237a:    f7fdfeea    ....    BL       __aeabi_memclr ; 0x152
        0x0000237e:    273b        ;'      MOVS     r7,#0x3b
        0x00002380:    48c6        .H      LDR      r0,[pc,#792] ; [0x269c] = 0x2000073c
        0x00002382:    5dc0        .]      LDRB     r0,[r0,r7]
        0x00002384:    2800        .(      CMP      r0,#0
        0x00002386:    d10f        ..      BNE      0x23a8 ; Modbus_Start + 56
        0x00002388:    f004f910    ....    BL       eMBPoll ; 0x65ac
        0x0000238c:    2501        .%      MOVS     r5,#1
        0x0000238e:    ae01        ..      ADD      r6,sp,#4
        0x00002390:    4628        (F      MOV      r0,r5
        0x00002392:    4629        )F      MOV      r1,r5
        0x00002394:    4632        2F      MOV      r2,r6
        0x00002396:    f7fffd99    ....    BL       MBGetData16Bits ; 0x1ecc
        0x0000239a:    8832        2.      LDRH     r2,[r6,#0]
        0x0000239c:    2102        .!      MOVS     r1,#2
        0x0000239e:    4628        (F      MOV      r0,r5
        0x000023a0:    f7fffdac    ....    BL       MBSetData16Bits ; 0x1efc
        0x000023a4:    48bd        .H      LDR      r0,[pc,#756] ; [0x269c] = 0x2000073c
        0x000023a6:    5dc0        .]      LDRB     r0,[r0,r7]
        0x000023a8:    2801        .(      CMP      r0,#1
        0x000023aa:    d113        ..      BNE      0x23d4 ; Modbus_Start + 100
        0x000023ac:    4de9        .M      LDR      r5,[pc,#932] ; [0x2754] = 0x20000408
        0x000023ae:    4628        (F      MOV      r0,r5
        0x000023b0:    3018        .0      ADDS     r0,r0,#0x18
        0x000023b2:    7ac1        .z      LDRB     r1,[r0,#0xb]
        0x000023b4:    7a00        .z      LDRB     r0,[r0,#8]
        0x000023b6:    220f        ."      MOVS     r2,#0xf
        0x000023b8:    f7ffff42    ..B.    BL       ModbusMaster_readHoldingRegisters ; 0x2240
        0x000023bc:    2800        .(      CMP      r0,#0
        0x000023be:    d109        ..      BNE      0x23d4 ; Modbus_Start + 100
        0x000023c0:    2000        .       MOVS     r0,#0
        0x000023c2:    f7ffff31    ..1.    BL       ModbusMaster_getResponseBuffer ; 0x2228
        0x000023c6:    4602        .F      MOV      r2,r0
        0x000023c8:    a801        ..      ADD      r0,sp,#4
        0x000023ca:    8002        ..      STRH     r2,[r0,#0]
        0x000023cc:    5d28        (]      LDRB     r0,[r5,r4]
        0x000023ce:    2102        .!      MOVS     r1,#2
        0x000023d0:    f7ffff40    ..@.    BL       ModbusMaster_writeSingleRegister ; 0x2254
        0x000023d4:    b009        ..      ADD      sp,sp,#0x24
        0x000023d6:    bdf0        ..      POP      {r4-r7,pc}
    Modbus_Test_PC
        0x000023d8:    b5fe        ..      PUSH     {r1-r7,lr}
        0x000023da:    a802        ..      ADD      r0,sp,#8
        0x000023dc:    2500        .%      MOVS     r5,#0
        0x000023de:    8005        ..      STRH     r5,[r0,#0]
        0x000023e0:    213a        :!      MOVS     r1,#0x3a
        0x000023e2:    48fa        .H      LDR      r0,[pc,#1000] ; [0x27cc] = 0x2000073c
        0x000023e4:    5c40        @\      LDRB     r0,[r0,r1]
        0x000023e6:    2801        .(      CMP      r0,#1
        0x000023e8:    d10a        ..      BNE      0x2400 ; Modbus_Test_PC + 40
        0x000023ea:    9101        ..      STR      r1,[sp,#4]
        0x000023ec:    20f7        .       MOVS     r0,#0xf7
        0x000023ee:    2101        .!      MOVS     r1,#1
        0x000023f0:    220f        ."      MOVS     r2,#0xf
        0x000023f2:    f7ffff25    ..%.    BL       ModbusMaster_readHoldingRegisters ; 0x2240
        0x000023f6:    2800        .(      CMP      r0,#0
        0x000023f8:    d015        ..      BEQ      0x2426 ; Modbus_Test_PC + 78
        0x000023fa:    9801        ..      LDR      r0,[sp,#4]
        0x000023fc:    49f3        .I      LDR      r1,[pc,#972] ; [0x27cc] = 0x2000073c
        0x000023fe:    5c08        .\      LDRB     r0,[r1,r0]
        0x00002400:    2802        .(      CMP      r0,#2
        0x00002402:    d10f        ..      BNE      0x2424 ; Modbus_Test_PC + 76
        0x00002404:    f004f8d2    ....    BL       eMBPoll ; 0x65ac
        0x00002408:    2d10        .-      CMP      r5,#0x10
        0x0000240a:    d00b        ..      BEQ      0x2424 ; Modbus_Test_PC + 76
        0x0000240c:    b2a9        ..      UXTH     r1,r5
        0x0000240e:    2001        .       MOVS     r0,#1
        0x00002410:    ac02        ..      ADD      r4,sp,#8
        0x00002412:    4622        "F      MOV      r2,r4
        0x00002414:    f7fffd5a    ..Z.    BL       MBGetData16Bits ; 0x1ecc
        0x00002418:    b2e8        ..      UXTB     r0,r5
        0x0000241a:    4621        !F      MOV      r1,r4
        0x0000241c:    f002fcf6    ....    BL       SendBackTestModbus ; 0x4e0c
        0x00002420:    1c6d        m.      ADDS     r5,r5,#1
        0x00002422:    e7f1        ..      B        0x2408 ; Modbus_Test_PC + 48
        0x00002424:    bdfe        ..      POP      {r1-r7,pc}
        0x00002426:    2700        .'      MOVS     r7,#0
        0x00002428:    4ee7        .N      LDR      r6,[pc,#924] ; [0x27c8] = 0x20000408
        0x0000242a:    2023        #       MOVS     r0,#0x23
        0x0000242c:    5c30        0\      LDRB     r0,[r6,r0]
        0x0000242e:    4287        .B      CMP      r7,r0
        0x00002430:    d8e3        ..      BHI      0x23fa ; Modbus_Test_PC + 34
        0x00002432:    b2fc        ..      UXTB     r4,r7
        0x00002434:    4620         F      MOV      r0,r4
        0x00002436:    f7fffef7    ....    BL       ModbusMaster_getResponseBuffer ; 0x2228
        0x0000243a:    a902        ..      ADD      r1,sp,#8
        0x0000243c:    8008        ..      STRH     r0,[r1,#0]
        0x0000243e:    4620         F      MOV      r0,r4
        0x00002440:    f002fce4    ....    BL       SendBackTestModbus ; 0x4e0c
        0x00002444:    1c7f        ..      ADDS     r7,r7,#1
        0x00002446:    e7f0        ..      B        0x242a ; Modbus_Test_PC + 82
    OnClient
        0x00002448:    b5f8        ..      PUSH     {r3-r7,lr}
        0x0000244a:    f002f9f7    ....    BL       SX1276Process ; 0x483c
        0x0000244e:    1e80        ..      SUBS     r0,r0,#2
        0x00002450:    2807        .(      CMP      r0,#7
        0x00002452:    d844        D.      BHI      0x24de ; OnClient + 150
        0x00002454:    4478        xD      ADD      r0,r0,pc
        0x00002456:    7900        .y      LDRB     r0,[r0,#4]
        0x00002458:    0040        @.      LSLS     r0,r0,#1
        0x0000245a:    4487        .D      ADD      pc,pc,r0
    $d.3
        0x0000245c:    32242b03    .+$2    DCD    841231107
        0x00002460:    41404040    @@@A    DCD    1094729792
    $t.4
        0x00002464:    f003f802    ....    BL       Timer3_GetTickMs ; 0x546c
        0x00002468:    4db9        .M      LDR      r5,[pc,#740] ; [0x2750] = 0x200001b0
        0x0000246a:    60a8        .`      STR      r0,[r5,#8]
        0x0000246c:    f003f802    ....    BL       Timer3_ResetTickMs ; 0x5474
        0x00002470:    f001fc38    ..8.    BL       SX1276GetPacketRssi ; 0x3ce4
        0x00002474:    61a8        .a      STR      r0,[r5,#0x18]
        0x00002476:    61e9        .a      STR      r1,[r5,#0x1c]
        0x00002478:    462c        ,F      MOV      r4,r5
        0x0000247a:    3420         4      ADDS     r4,r4,#0x20
        0x0000247c:    2140        @!      MOVS     r1,#0x40
        0x0000247e:    4620         F      MOV      r0,r4
        0x00002480:    f001fc3c    ..<.    BL       SX1276GetRxPacket ; 0x3cfc
        0x00002484:    272e        .'      MOVS     r7,#0x2e
        0x00002486:    4eec        .N      LDR      r6,[pc,#944] ; [0x2838] = 0x20000408
        0x00002488:    5df0        .]      LDRB     r0,[r6,r7]
        0x0000248a:    2803        .(      CMP      r0,#3
        0x0000248c:    d861        a.      BHI      0x2552 ; OnClient + 266
        0x0000248e:    46c0        .F      MOV      r8,r8
        0x00002490:    4478        xD      ADD      r0,r0,pc
        0x00002492:    7900        .y      LDRB     r0,[r0,#4]
        0x00002494:    0040        @.      LSLS     r0,r0,#1
        0x00002496:    4487        .D      ADD      pc,pc,r0
    $d.5
        0x00002498:    2b263001    .0&+    DCD    723922945
    $t.6
        0x0000249c:    2001        .       MOVS     r0,#1
        0x0000249e:    4621        !F      MOV      r1,r4
        0x000024a0:    f7fff936    ..6.    BL       Decode_Packet_Receive_CRC ; 0x1710
        0x000024a4:    e02d        -.      B        0x2502 ; OnClient + 186
        0x000024a6:    f002ffe1    ....    BL       Timer3_GetTickMs ; 0x546c
        0x000024aa:    49a9        .I      LDR      r1,[pc,#676] ; [0x2750] = 0x200001b0
        0x000024ac:    6088        .`      STR      r0,[r1,#8]
        0x000024ae:    f002ffe1    ....    BL       Timer3_ResetTickMs ; 0x5474
        0x000024b2:    e04e        N.      B        0x2552 ; OnClient + 266
        0x000024b4:    f002ffe8    ....    BL       Timer3_SetTickMs ; 0x5488
        0x000024b8:    f002ffd8    ....    BL       Timer3_GetTickMs ; 0x546c
        0x000024bc:    49a4        .I      LDR      r1,[pc,#656] ; [0x2750] = 0x200001b0
        0x000024be:    6048        H`      STR      r0,[r1,#4]
        0x000024c0:    bdf8        ..      POP      {r3-r7,pc}
        0x000024c2:    f002ffd3    ....    BL       Timer3_GetTickMs ; 0x546c
        0x000024c6:    4ca2        .L      LDR      r4,[pc,#648] ; [0x2750] = 0x200001b0
        0x000024c8:    6120         a      STR      r0,[r4,#0x10]
        0x000024ca:    f002ffd3    ....    BL       Timer3_ResetTickMs ; 0x5474
        0x000024ce:    7820         x      LDRB     r0,[r4,#0]
        0x000024d0:    2801        .(      CMP      r0,#1
        0x000024d2:    d102        ..      BNE      0x24da ; OnClient + 146
        0x000024d4:    f002fa60    ..`.    BL       SX1276StartCad ; 0x4998
        0x000024d8:    7820         x      LDRB     r0,[r4,#0]
        0x000024da:    2800        .(      CMP      r0,#0
        0x000024dc:    d039        9.      BEQ      0x2552 ; OnClient + 266
        0x000024de:    bdf8        ..      POP      {r3-r7,pc}
        0x000024e0:    f002fa5a    ..Z.    BL       SX1276StartCad ; 0x4998
        0x000024e4:    bdf8        ..      POP      {r3-r7,pc}
        0x000024e6:    2001        .       MOVS     r0,#1
        0x000024e8:    4621        !F      MOV      r1,r4
        0x000024ea:    f7fff957    ..W.    BL       Decode_Packet_Receive_SHA ; 0x179c
        0x000024ee:    e008        ..      B        0x2502 ; OnClient + 186
        0x000024f0:    2001        .       MOVS     r0,#1
        0x000024f2:    4621        !F      MOV      r1,r4
        0x000024f4:    f7fff888    ....    BL       Decode_Packet_Receive_AESSHA ; 0x1608
        0x000024f8:    e003        ..      B        0x2502 ; OnClient + 186
        0x000024fa:    2001        .       MOVS     r0,#1
        0x000024fc:    4621        !F      MOV      r1,r4
        0x000024fe:    f7fff805    ....    BL       Decode_Packet_Receive_AESCRC ; 0x150c
        0x00002502:    2801        .(      CMP      r0,#1
        0x00002504:    d125        %.      BNE      0x2552 ; OnClient + 266
        0x00002506:    7e70        p~      LDRB     r0,[r6,#0x19]
        0x00002508:    2430        0$      MOVS     r4,#0x30
        0x0000250a:    4360        `C      MULS     r0,r4,r0
        0x0000250c:    49e5        .I      LDR      r1,[pc,#916] ; [0x28a4] = 0x2000073c
        0x0000250e:    1808        ..      ADDS     r0,r1,r0
        0x00002510:    7840        @x      LDRB     r0,[r0,#1]
        0x00002512:    2800        .(      CMP      r0,#0
        0x00002514:    d10e        ..      BNE      0x2534 ; OnClient + 236
        0x00002516:    f002fbc5    ....    BL       Saban_Output_Control ; 0x4ca4
        0x0000251a:    5df0        .]      LDRB     r0,[r6,r7]
        0x0000251c:    f002fa96    ....    BL       Saban_Feedback_Mode_IOStandand ; 0x4a4c
        0x00002520:    f002ffb2    ....    BL       Timer3_SetTickMs ; 0x5488
        0x00002524:    f002ffa2    ....    BL       Timer3_GetTickMs ; 0x546c
        0x00002528:    49de        .I      LDR      r1,[pc,#888] ; [0x28a4] = 0x2000073c
        0x0000252a:    60e8        .`      STR      r0,[r5,#0xc]
        0x0000252c:    7e70        p~      LDRB     r0,[r6,#0x19]
        0x0000252e:    4344        DC      MULS     r4,r0,r4
        0x00002530:    1908        ..      ADDS     r0,r1,r4
        0x00002532:    7840        @x      LDRB     r0,[r0,#1]
        0x00002534:    2801        .(      CMP      r0,#1
        0x00002536:    d1d2        ..      BNE      0x24de ; OnClient + 150
        0x00002538:    203c        <       MOVS     r0,#0x3c
        0x0000253a:    5c09        .\      LDRB     r1,[r1,r0]
        0x0000253c:    3618        .6      ADDS     r6,r6,#0x18
        0x0000253e:    7db2        .}      LDRB     r2,[r6,#0x16]
        0x00002540:    7af0        .z      LDRB     r0,[r6,#0xb]
        0x00002542:    f002faa3    ....    BL       Saban_Feedback_Mode_RS485 ; 0x4a8c
        0x00002546:    f002ff9f    ....    BL       Timer3_SetTickMs ; 0x5488
        0x0000254a:    f002ff8f    ....    BL       Timer3_GetTickMs ; 0x546c
        0x0000254e:    60e8        .`      STR      r0,[r5,#0xc]
        0x00002550:    bdf8        ..      POP      {r3-r7,pc}
        0x00002552:    f002fa2b    ..+.    BL       SX1276StartRx ; 0x49ac
        0x00002556:    bdf8        ..      POP      {r3-r7,pc}
    $d.7
    __arm_cp.1_2
        0x00002558:    2000073c    <..     DCD    536872764
    $t.7
    ProcessCommand
        0x0000255c:    b5bc        ..      PUSH     {r2-r5,r7,lr}
        0x0000255e:    4604        .F      MOV      r4,r0
        0x00002560:    7800        .x      LDRB     r0,[r0,#0]
        0x00002562:    1e40        @.      SUBS     r0,r0,#1
        0x00002564:    2806        .(      CMP      r0,#6
        0x00002566:    d900        ..      BLS      0x256a ; ProcessCommand + 14
        0x00002568:    e094        ..      B        0x2694 ; ProcessCommand + 312
        0x0000256a:    46c0        .F      MOV      r8,r8
        0x0000256c:    4478        xD      ADD      r0,r0,pc
        0x0000256e:    7900        .y      LDRB     r0,[r0,#4]
        0x00002570:    0040        @.      LSLS     r0,r0,#1
        0x00002572:    4487        .D      ADD      pc,pc,r0
    $d.8
        0x00002574:    4c063c03    .<.L    DCD    1275476995
        0x00002578:    002d8f5f    _.-.    DCD    2985823
    $t.9
        0x0000257c:    f002fbf0    ....    BL       SendBackDeviceSettingInfo ; 0x4d60
        0x00002580:    e088        ..      B        0x2694 ; ProcessCommand + 312
        0x00002582:    7923        #y      LDRB     r3,[r4,#4]
        0x00002584:    78e2        .x      LDRB     r2,[r4,#3]
        0x00002586:    78a1        .x      LDRB     r1,[r4,#2]
        0x00002588:    7860        `x      LDRB     r0,[r4,#1]
        0x0000258a:    7965        ey      LDRB     r5,[r4,#5]
        0x0000258c:    79a4        .y      LDRB     r4,[r4,#6]
        0x0000258e:    9500        ..      STR      r5,[sp,#0]
        0x00002590:    9401        ..      STR      r4,[sp,#4]
        0x00002592:    f003fcff    ....    BL       Update_DataFlash_RFConfig_From_PC ; 0x5f94
        0x00002596:    2800        .(      CMP      r0,#0
        0x00002598:    d148        H.      BNE      0x262c ; ProcessCommand + 208
        0x0000259a:    2026        &       MOVS     r0,#0x26
        0x0000259c:    4c3e        >L      LDR      r4,[pc,#248] ; [0x2698] = 0x20000408
        0x0000259e:    5c20         \      LDRB     r0,[r4,r0]
        0x000025a0:    3811        .8      SUBS     r0,r0,#0x11
        0x000025a2:    b2c0        ..      UXTB     r0,r0
        0x000025a4:    2807        .(      CMP      r0,#7
        0x000025a6:    d804        ..      BHI      0x25b2 ; ProcessCommand + 86
        0x000025a8:    0080        ..      LSLS     r0,r0,#2
        0x000025aa:    a13f        ?.      ADR      r1,{pc}+0xfe ; 0x26a8
        0x000025ac:    5808        .X      LDR      r0,[r1,r0]
        0x000025ae:    f002f87b    ..{.    BL       SX1276LoRaSetRFFrequency ; 0x46a8
        0x000025b2:    3418        .4      ADDS     r4,r4,#0x18
        0x000025b4:    200f        .       MOVS     r0,#0xf
        0x000025b6:    5620         V      LDRSB    r0,[r4,r0]
        0x000025b8:    f002f890    ....    BL       SX1276LoRaSetRFPower ; 0x46dc
        0x000025bc:    7c20         |      LDRB     r0,[r4,#0x10]
        0x000025be:    f002f8d3    ....    BL       SX1276LoRaSetSignalBandwidth ; 0x4768
        0x000025c2:    7c60        `|      LDRB     r0,[r4,#0x11]
        0x000025c4:    f002f8e8    ....    BL       SX1276LoRaSetSpreadingFactor ; 0x4798
        0x000025c8:    7ca0        .|      LDRB     r0,[r4,#0x12]
        0x000025ca:    f001ff95    ....    BL       SX1276LoRaSetErrorCoding ; 0x44f8
        0x000025ce:    e058        X.      B        0x2682 ; ProcessCommand + 294
        0x000025d0:    2022        "       MOVS     r0,#0x22
        0x000025d2:    4931        1I      LDR      r1,[pc,#196] ; [0x2698] = 0x20000408
        0x000025d4:    5c08        .\      LDRB     r0,[r1,r0]
        0x000025d6:    21fc        .!      MOVS     r1,#0xfc
        0x000025d8:    4001        .@      ANDS     r1,r1,r0
        0x000025da:    7860        `x      LDRB     r0,[r4,#1]
        0x000025dc:    2910        .)      CMP      r1,#0x10
        0x000025de:    d138        8.      BNE      0x2652 ; ProcessCommand + 246
        0x000025e0:    2801        .(      CMP      r0,#1
        0x000025e2:    d145        E.      BNE      0x2670 ; ProcessCommand + 276
        0x000025e4:    203a        :       MOVS     r0,#0x3a
        0x000025e6:    492d        -I      LDR      r1,[pc,#180] ; [0x269c] = 0x2000073c
        0x000025e8:    2202        ."      MOVS     r2,#2
        0x000025ea:    540a        .T      STRB     r2,[r1,r0]
        0x000025ec:    e03f        ?.      B        0x266e ; ProcessCommand + 274
        0x000025ee:    78a1        .x      LDRB     r1,[r4,#2]
        0x000025f0:    2030        0       MOVS     r0,#0x30
        0x000025f2:    4348        HC      MULS     r0,r1,r0
        0x000025f4:    4a29        )J      LDR      r2,[pc,#164] ; [0x269c] = 0x2000073c
        0x000025f6:    1810        ..      ADDS     r0,r2,r0
        0x000025f8:    7842        Bx      LDRB     r2,[r0,#1]
        0x000025fa:    0092        ..      LSLS     r2,r2,#2
        0x000025fc:    7863        cx      LDRB     r3,[r4,#1]
        0x000025fe:    011b        ..      LSLS     r3,r3,#4
        0x00002600:    4313        .C      ORRS     r3,r3,r2
        0x00002602:    7880        .x      LDRB     r0,[r0,#2]
        0x00002604:    4318        .C      ORRS     r0,r0,r3
        0x00002606:    b2c0        ..      UXTB     r0,r0
        0x00002608:    f003fbe8    ....    BL       Update_DataFlash_ID_From_PC ; 0x5ddc
        0x0000260c:    e01e        ..      B        0x264c ; ProcessCommand + 240
        0x0000260e:    78a0        .x      LDRB     r0,[r4,#2]
        0x00002610:    0600        ..      LSLS     r0,r0,#24
        0x00002612:    78e1        .x      LDRB     r1,[r4,#3]
        0x00002614:    0409        ..      LSLS     r1,r1,#16
        0x00002616:    1808        ..      ADDS     r0,r1,r0
        0x00002618:    7921        !y      LDRB     r1,[r4,#4]
        0x0000261a:    0209        ..      LSLS     r1,r1,#8
        0x0000261c:    1840        @.      ADDS     r0,r0,r1
        0x0000261e:    7961        ay      LDRB     r1,[r4,#5]
        0x00002620:    1841        A.      ADDS     r1,r0,r1
        0x00002622:    7860        `x      LDRB     r0,[r4,#1]
        0x00002624:    f003fc00    ....    BL       Update_DataFlash_InputType_From_PC ; 0x5e28
        0x00002628:    2800        .(      CMP      r0,#0
        0x0000262a:    d028        (.      BEQ      0x267e ; ProcessCommand + 290
        0x0000262c:    2001        .       MOVS     r0,#1
        0x0000262e:    f002fb73    ..s.    BL       SendBack ; 0x4d18
        0x00002632:    e02f        /.      B        0x2694 ; ProcessCommand + 312
        0x00002634:    79a0        .y      LDRB     r0,[r4,#6]
        0x00002636:    7961        ay      LDRB     r1,[r4,#5]
        0x00002638:    0209        ..      LSLS     r1,r1,#8
        0x0000263a:    1808        ..      ADDS     r0,r1,r0
        0x0000263c:    b285        ..      UXTH     r5,r0
        0x0000263e:    7923        #y      LDRB     r3,[r4,#4]
        0x00002640:    78e1        .x      LDRB     r1,[r4,#3]
        0x00002642:    78a2        .x      LDRB     r2,[r4,#2]
        0x00002644:    7860        `x      LDRB     r0,[r4,#1]
        0x00002646:    9500        ..      STR      r5,[sp,#0]
        0x00002648:    f003fc36    ..6.    BL       Update_DataFlash_ModbusConfig_From_PC ; 0x5eb8
        0x0000264c:    1e41        A.      SUBS     r1,r0,#1
        0x0000264e:    4188        .A      SBCS     r0,r0,r1
        0x00002650:    e018        ..      B        0x2684 ; ProcessCommand + 296
        0x00002652:    2801        .(      CMP      r0,#1
        0x00002654:    d10c        ..      BNE      0x2670 ; ProcessCommand + 276
        0x00002656:    203a        :       MOVS     r0,#0x3a
        0x00002658:    4910        .I      LDR      r1,[pc,#64] ; [0x269c] = 0x2000073c
        0x0000265a:    2201        ."      MOVS     r2,#1
        0x0000265c:    540a        .T      STRB     r2,[r1,r0]
        0x0000265e:    4810        .H      LDR      r0,[pc,#64] ; [0x26a0] = 0x40150000
        0x00002660:    f003f80a    ....    BL       UART_Close ; 0x5678
        0x00002664:    480f        .H      LDR      r0,[pc,#60] ; [0x26a4] = 0x186a0
        0x00002666:    f7fefbbf    ....    BL       CLK_SysTickDelay ; 0xde8
        0x0000266a:    f003fd17    ....    BL       UseModbus ; 0x609c
        0x0000266e:    7860        `x      LDRB     r0,[r4,#1]
        0x00002670:    2800        .(      CMP      r0,#0
        0x00002672:    d10f        ..      BNE      0x2694 ; ProcessCommand + 312
        0x00002674:    203a        :       MOVS     r0,#0x3a
        0x00002676:    4909        .I      LDR      r1,[pc,#36] ; [0x269c] = 0x2000073c
        0x00002678:    2200        ."      MOVS     r2,#0
        0x0000267a:    540a        .T      STRB     r2,[r1,r0]
        0x0000267c:    e00a        ..      B        0x2694 ; ProcessCommand + 312
        0x0000267e:    f000f94b    ..K.    BL       SB_Client_GPIO_Init ; 0x2918
        0x00002682:    2000        .       MOVS     r0,#0
        0x00002684:    f002fb48    ..H.    BL       SendBack ; 0x4d18
        0x00002688:    207d        }       MOVS     r0,#0x7d
        0x0000268a:    00c0        ..      LSLS     r0,r0,#3
        0x0000268c:    f7fefbac    ....    BL       CLK_SysTickDelay ; 0xde8
        0x00002690:    f002f9c4    ....    BL       SYS_ResetCPU ; 0x4a1c
        0x00002694:    2000        .       MOVS     r0,#0
        0x00002696:    bdbc        ..      POP      {r2-r5,r7,pc}
    $d.10
    __arm_cp.4_0
        0x00002698:    20000408    ...     DCD    536871944
    __arm_cp.4_1
        0x0000269c:    2000073c    <..     DCD    536872764
    __arm_cp.4_2
        0x000026a0:    40150000    ...@    DCD    1075118080
    __arm_cp.4_3
        0x000026a4:    000186a0    ....    DCD    100000
        0x000026a8:    3689cac0    ...6    DCD    915000000
        0x000026ac:    19cf0e40    @...    DCD    433000000
        0x000026b0:    3689cac0    ...6    DCD    915000000
        0x000026b4:    19cf0e40    @...    DCD    433000000
        0x000026b8:    3689cac0    ...6    DCD    915000000
        0x000026bc:    19cf0e40    @...    DCD    433000000
        0x000026c0:    3689cac0    ...6    DCD    915000000
        0x000026c4:    19cf0e40    @...    DCD    433000000
    $t.0
    Radio_Start
        0x000026c8:    b5b0        ..      PUSH     {r4,r5,r7,lr}
        0x000026ca:    2001        .       MOVS     r0,#1
        0x000026cc:    f002f938    ..8.    BL       SX1276SetMode ; 0x4940
        0x000026d0:    4d1f        .M      LDR      r5,[pc,#124] ; [0x2750] = 0x200001b0
        0x000026d2:    7028        (p      STRB     r0,[r5,#0]
        0x000026d4:    f001fb82    ....    BL       SX1276Init ; 0x3ddc
        0x000026d8:    7828        (x      LDRB     r0,[r5,#0]
        0x000026da:    2801        .(      CMP      r0,#1
        0x000026dc:    d11f        ..      BNE      0x271e ; Radio_Start + 86
        0x000026de:    f001fc81    ....    BL       SX1276LoRaGetVersion ; 0x3fe4
        0x000026e2:    4604        .F      MOV      r4,r0
        0x000026e4:    f000fd5e    ..^.    BL       SX1276CheckLoRaConfigError ; 0x31a4
        0x000026e8:    2c12        .,      CMP      r4,#0x12
        0x000026ea:    d004        ..      BEQ      0x26f6 ; Radio_Start + 46
        0x000026ec:    2800        .(      CMP      r0,#0
        0x000026ee:    d002        ..      BEQ      0x26f6 ; Radio_Start + 46
        0x000026f0:    f001fb74    ..t.    BL       SX1276Init ; 0x3ddc
        0x000026f4:    e7fc        ..      B        0x26f0 ; Radio_Start + 40
        0x000026f6:    4c17        .L      LDR      r4,[pc,#92] ; [0x2754] = 0x20000408
        0x000026f8:    3418        .4      ADDS     r4,r4,#0x18
        0x000026fa:    200f        .       MOVS     r0,#0xf
        0x000026fc:    5620         V      LDRSB    r0,[r4,r0]
        0x000026fe:    f001ffed    ....    BL       SX1276LoRaSetRFPower ; 0x46dc
        0x00002702:    7c20         |      LDRB     r0,[r4,#0x10]
        0x00002704:    f002f830    ..0.    BL       SX1276LoRaSetSignalBandwidth ; 0x4768
        0x00002708:    7c60        `|      LDRB     r0,[r4,#0x11]
        0x0000270a:    f002f845    ..E.    BL       SX1276LoRaSetSpreadingFactor ; 0x4798
        0x0000270e:    7ca0        .|      LDRB     r0,[r4,#0x12]
        0x00002710:    f001fef2    ....    BL       SX1276LoRaSetErrorCoding ; 0x44f8
        0x00002714:    f001fafe    ....    BL       SX1276GetTimeOnAir ; 0x3d14
        0x00002718:    f002f93e    ..>.    BL       SX1276StartCad ; 0x4998
        0x0000271c:    7828        (x      LDRB     r0,[r5,#0]
        0x0000271e:    2800        .(      CMP      r0,#0
        0x00002720:    d107        ..      BNE      0x2732 ; Radio_Start + 106
        0x00002722:    f000fdef    ....    BL       SX1276FskGetVersion ; 0x3304
        0x00002726:    2812        .(      CMP      r0,#0x12
        0x00002728:    d10f        ..      BNE      0x274a ; Radio_Start + 130
        0x0000272a:    f000fdbf    ....    BL       SX1276FskGetTimeOnAir ; 0x32ac
        0x0000272e:    f002f93d    ..=.    BL       SX1276StartRx ; 0x49ac
        0x00002732:    2126        &!      MOVS     r1,#0x26
        0x00002734:    4807        .H      LDR      r0,[pc,#28] ; [0x2754] = 0x20000408
        0x00002736:    5c41        A\      LDRB     r1,[r0,r1]
        0x00002738:    3911        .9      SUBS     r1,r1,#0x11
        0x0000273a:    b2c9        ..      UXTB     r1,r1
        0x0000273c:    2907        .)      CMP      r1,#7
        0x0000273e:    d803        ..      BHI      0x2748 ; Radio_Start + 128
        0x00002740:    a205        ..      ADR      r2,{pc}+0x18 ; 0x2758
        0x00002742:    5c51        Q\      LDRB     r1,[r2,r1]
        0x00002744:    222e        ."      MOVS     r2,#0x2e
        0x00002746:    5481        .T      STRB     r1,[r0,r2]
        0x00002748:    bdb0        ..      POP      {r4,r5,r7,pc}
        0x0000274a:    f001fb47    ..G.    BL       SX1276Init ; 0x3ddc
        0x0000274e:    e7fc        ..      B        0x274a ; Radio_Start + 130
    $d.1
    __arm_cp.0_0
        0x00002750:    200001b0    ...     DCD    536871344
    __arm_cp.0_1
        0x00002754:    20000408    ...     DCD    536871944
        0x00002758:    01010000    ....    DCD    16842752
        0x0000275c:    03030202    ....    DCD    50528770
    $t.11
    Rf_Send_Feedback_AESCRC
        0x00002760:    b570        p.      PUSH     {r4-r6,lr}
        0x00002762:    b088        ..      SUB      sp,sp,#0x20
        0x00002764:    a803        ..      ADD      r0,sp,#0xc
        0x00002766:    2112        .!      MOVS     r1,#0x12
        0x00002768:    f7fdfcf3    ....    BL       __aeabi_memclr ; 0x152
        0x0000276c:    f001fab6    ....    BL       SX1276GetMode ; 0x3cdc
        0x00002770:    4c67        gL      LDR      r4,[pc,#412] ; [0x2910] = 0x20000212
        0x00002772:    7020         p      STRB     r0,[r4,#0]
        0x00002774:    2801        .(      CMP      r0,#1
        0x00002776:    d108        ..      BNE      0x278a ; Rf_Send_Feedback_AESCRC + 42
        0x00002778:    2012        .       MOVS     r0,#0x12
        0x0000277a:    f001ff73    ..s.    BL       SX1276LoRaSetPayloadLength ; 0x4664
        0x0000277e:    f001fac9    ....    BL       SX1276GetTimeOnAir ; 0x3d14
        0x00002782:    303c        <0      ADDS     r0,r0,#0x3c
        0x00002784:    f001ffec    ....    BL       SX1276LoRaSetRxPacketTimeout ; 0x4760
        0x00002788:    7820         x      LDRB     r0,[r4,#0]
        0x0000278a:    2800        .(      CMP      r0,#0
        0x0000278c:    d102        ..      BNE      0x2794 ; Rf_Send_Feedback_AESCRC + 52
        0x0000278e:    2012        .       MOVS     r0,#0x12
        0x00002790:    f001f9fa    ....    BL       SX1276FskSetPayloadLength ; 0x3b88
        0x00002794:    48bd        .H      LDR      r0,[pc,#756] ; [0x2a8c] = 0x20000408
        0x00002796:    7e40        @~      LDRB     r0,[r0,#0x19]
        0x00002798:    7060        `p      STRB     r0,[r4,#1]
        0x0000279a:    2130        0!      MOVS     r1,#0x30
        0x0000279c:    4341        AC      MULS     r1,r0,r1
        0x0000279e:    485d        ]H      LDR      r0,[pc,#372] ; [0x2914] = 0x2000073c
        0x000027a0:    1845        E.      ADDS     r5,r0,r1
        0x000027a2:    2203        ."      MOVS     r2,#3
        0x000027a4:    70aa        .p      STRB     r2,[r5,#2]
        0x000027a6:    5c40        @\      LDRB     r0,[r0,r1]
        0x000027a8:    78eb        .x      LDRB     r3,[r5,#3]
        0x000027aa:    7869        ix      LDRB     r1,[r5,#1]
        0x000027ac:    78a5        .x      LDRB     r5,[r4,#2]
        0x000027ae:    78e6        .x      LDRB     r6,[r4,#3]
        0x000027b0:    ac03        ..      ADD      r4,sp,#0xc
        0x000027b2:    9500        ..      STR      r5,[sp,#0]
        0x000027b4:    9601        ..      STR      r6,[sp,#4]
        0x000027b6:    9402        ..      STR      r4,[sp,#8]
        0x000027b8:    f7fefd10    ....    BL       Creat_Packet_Request_AESCRC ; 0x11dc
        0x000027bc:    2112        .!      MOVS     r1,#0x12
        0x000027be:    4620         F      MOV      r0,r4
        0x000027c0:    f002f8de    ....    BL       SX1276SetTxPacket ; 0x4980
        0x000027c4:    b008        ..      ADD      sp,sp,#0x20
        0x000027c6:    bd70        p.      POP      {r4-r6,pc}
    $d.12
    __arm_cp.7_1
        0x000027c8:    20000408    ...     DCD    536871944
    __arm_cp.7_2
        0x000027cc:    2000073c    <..     DCD    536872764
    $t.24
    Rf_Send_Feedback_AESSHA
        0x000027d0:    b5f0        ..      PUSH     {r4-r7,lr}
        0x000027d2:    b08f        ..      SUB      sp,sp,#0x3c
        0x000027d4:    a803        ..      ADD      r0,sp,#0xc
        0x000027d6:    2430        0$      MOVS     r4,#0x30
        0x000027d8:    4621        !F      MOV      r1,r4
        0x000027da:    f7fdfcba    ....    BL       __aeabi_memclr ; 0x152
        0x000027de:    f001fa7d    ..}.    BL       SX1276GetMode ; 0x3cdc
        0x000027e2:    4d4b        KM      LDR      r5,[pc,#300] ; [0x2910] = 0x20000212
        0x000027e4:    7028        (p      STRB     r0,[r5,#0]
        0x000027e6:    2801        .(      CMP      r0,#1
        0x000027e8:    d108        ..      BNE      0x27fc ; Rf_Send_Feedback_AESSHA + 44
        0x000027ea:    2030        0       MOVS     r0,#0x30
        0x000027ec:    f001ff3a    ..:.    BL       SX1276LoRaSetPayloadLength ; 0x4664
        0x000027f0:    f001fa90    ....    BL       SX1276GetTimeOnAir ; 0x3d14
        0x000027f4:    303c        <0      ADDS     r0,r0,#0x3c
        0x000027f6:    f001ffb3    ....    BL       SX1276LoRaSetRxPacketTimeout ; 0x4760
        0x000027fa:    7828        (x      LDRB     r0,[r5,#0]
        0x000027fc:    2800        .(      CMP      r0,#0
        0x000027fe:    d102        ..      BNE      0x2806 ; Rf_Send_Feedback_AESSHA + 54
        0x00002800:    2030        0       MOVS     r0,#0x30
        0x00002802:    f001f9c1    ....    BL       SX1276FskSetPayloadLength ; 0x3b88
        0x00002806:    48a1        .H      LDR      r0,[pc,#644] ; [0x2a8c] = 0x20000408
        0x00002808:    7e40        @~      LDRB     r0,[r0,#0x19]
        0x0000280a:    7068        hp      STRB     r0,[r5,#1]
        0x0000280c:    4360        `C      MULS     r0,r4,r0
        0x0000280e:    4941        AI      LDR      r1,[pc,#260] ; [0x2914] = 0x2000073c
        0x00002810:    180e        ..      ADDS     r6,r1,r0
        0x00002812:    2203        ."      MOVS     r2,#3
        0x00002814:    70b2        .p      STRB     r2,[r6,#2]
        0x00002816:    5c08        .\      LDRB     r0,[r1,r0]
        0x00002818:    78f3        .x      LDRB     r3,[r6,#3]
        0x0000281a:    7871        qx      LDRB     r1,[r6,#1]
        0x0000281c:    78ae        .x      LDRB     r6,[r5,#2]
        0x0000281e:    78ef        .x      LDRB     r7,[r5,#3]
        0x00002820:    ad03        ..      ADD      r5,sp,#0xc
        0x00002822:    9600        ..      STR      r6,[sp,#0]
        0x00002824:    9701        ..      STR      r7,[sp,#4]
        0x00002826:    9502        ..      STR      r5,[sp,#8]
        0x00002828:    f7fefd28    ..(.    BL       Creat_Packet_Request_AESSHA ; 0x127c
        0x0000282c:    4628        (F      MOV      r0,r5
        0x0000282e:    4621        !F      MOV      r1,r4
        0x00002830:    f002f8a6    ....    BL       SX1276SetTxPacket ; 0x4980
        0x00002834:    b00f        ..      ADD      sp,sp,#0x3c
        0x00002836:    bdf0        ..      POP      {r4-r7,pc}
    $d.25
    __arm_cp.15_1
        0x00002838:    20000408    ...     DCD    536871944
    $t.4
    Rf_Send_Feedback_CRC
        0x0000283c:    b570        p.      PUSH     {r4-r6,lr}
        0x0000283e:    b086        ..      SUB      sp,sp,#0x18
        0x00002840:    a804        ..      ADD      r0,sp,#0x10
        0x00002842:    2100        .!      MOVS     r1,#0
        0x00002844:    8081        ..      STRH     r1,[r0,#4]
        0x00002846:    9104        ..      STR      r1,[sp,#0x10]
        0x00002848:    f001fa48    ..H.    BL       SX1276GetMode ; 0x3cdc
        0x0000284c:    4c30        0L      LDR      r4,[pc,#192] ; [0x2910] = 0x20000212
        0x0000284e:    7020         p      STRB     r0,[r4,#0]
        0x00002850:    2801        .(      CMP      r0,#1
        0x00002852:    d108        ..      BNE      0x2866 ; Rf_Send_Feedback_CRC + 42
        0x00002854:    2008        .       MOVS     r0,#8
        0x00002856:    f001ff05    ....    BL       SX1276LoRaSetPayloadLength ; 0x4664
        0x0000285a:    f001fa5b    ..[.    BL       SX1276GetTimeOnAir ; 0x3d14
        0x0000285e:    3028        (0      ADDS     r0,r0,#0x28
        0x00002860:    f001ff7e    ..~.    BL       SX1276LoRaSetRxPacketTimeout ; 0x4760
        0x00002864:    7820         x      LDRB     r0,[r4,#0]
        0x00002866:    2800        .(      CMP      r0,#0
        0x00002868:    d102        ..      BNE      0x2870 ; Rf_Send_Feedback_CRC + 52
        0x0000286a:    2008        .       MOVS     r0,#8
        0x0000286c:    f001f98c    ....    BL       SX1276FskSetPayloadLength ; 0x3b88
        0x00002870:    4886        .H      LDR      r0,[pc,#536] ; [0x2a8c] = 0x20000408
        0x00002872:    7e40        @~      LDRB     r0,[r0,#0x19]
        0x00002874:    7060        `p      STRB     r0,[r4,#1]
        0x00002876:    2130        0!      MOVS     r1,#0x30
        0x00002878:    4341        AC      MULS     r1,r0,r1
        0x0000287a:    4826        &H      LDR      r0,[pc,#152] ; [0x2914] = 0x2000073c
        0x0000287c:    1845        E.      ADDS     r5,r0,r1
        0x0000287e:    2203        ."      MOVS     r2,#3
        0x00002880:    70aa        .p      STRB     r2,[r5,#2]
        0x00002882:    5c40        @\      LDRB     r0,[r0,r1]
        0x00002884:    78eb        .x      LDRB     r3,[r5,#3]
        0x00002886:    7869        ix      LDRB     r1,[r5,#1]
        0x00002888:    78a5        .x      LDRB     r5,[r4,#2]
        0x0000288a:    78e6        .x      LDRB     r6,[r4,#3]
        0x0000288c:    ac04        ..      ADD      r4,sp,#0x10
        0x0000288e:    9500        ..      STR      r5,[sp,#0]
        0x00002890:    9601        ..      STR      r6,[sp,#4]
        0x00002892:    9402        ..      STR      r4,[sp,#8]
        0x00002894:    f7fefd52    ..R.    BL       Creat_Packet_Request_CRC ; 0x133c
        0x00002898:    2106        .!      MOVS     r1,#6
        0x0000289a:    4620         F      MOV      r0,r4
        0x0000289c:    f002f870    ..p.    BL       SX1276SetTxPacket ; 0x4980
        0x000028a0:    b006        ..      ADD      sp,sp,#0x18
        0x000028a2:    bd70        p.      POP      {r4-r6,pc}
    $d.5
    __arm_cp.3_2
        0x000028a4:    2000073c    <..     DCD    536872764
    $t.17
    Rf_Send_Feedback_SHA
        0x000028a8:    b570        p.      PUSH     {r4-r6,lr}
        0x000028aa:    b08c        ..      SUB      sp,sp,#0x30
        0x000028ac:    a803        ..      ADD      r0,sp,#0xc
        0x000028ae:    2124        $!      MOVS     r1,#0x24
        0x000028b0:    f7fdfc4f    ..O.    BL       __aeabi_memclr ; 0x152
        0x000028b4:    f001fa12    ....    BL       SX1276GetMode ; 0x3cdc
        0x000028b8:    4c15        .L      LDR      r4,[pc,#84] ; [0x2910] = 0x20000212
        0x000028ba:    7020         p      STRB     r0,[r4,#0]
        0x000028bc:    2801        .(      CMP      r0,#1
        0x000028be:    d108        ..      BNE      0x28d2 ; Rf_Send_Feedback_SHA + 42
        0x000028c0:    2024        $       MOVS     r0,#0x24
        0x000028c2:    f001fecf    ....    BL       SX1276LoRaSetPayloadLength ; 0x4664
        0x000028c6:    f001fa25    ..%.    BL       SX1276GetTimeOnAir ; 0x3d14
        0x000028ca:    301e        .0      ADDS     r0,r0,#0x1e
        0x000028cc:    f001ff48    ..H.    BL       SX1276LoRaSetRxPacketTimeout ; 0x4760
        0x000028d0:    7820         x      LDRB     r0,[r4,#0]
        0x000028d2:    2800        .(      CMP      r0,#0
        0x000028d4:    d102        ..      BNE      0x28dc ; Rf_Send_Feedback_SHA + 52
        0x000028d6:    2024        $       MOVS     r0,#0x24
        0x000028d8:    f001f956    ..V.    BL       SX1276FskSetPayloadLength ; 0x3b88
        0x000028dc:    486b        kH      LDR      r0,[pc,#428] ; [0x2a8c] = 0x20000408
        0x000028de:    7e40        @~      LDRB     r0,[r0,#0x19]
        0x000028e0:    7060        `p      STRB     r0,[r4,#1]
        0x000028e2:    2130        0!      MOVS     r1,#0x30
        0x000028e4:    4341        AC      MULS     r1,r0,r1
        0x000028e6:    480b        .H      LDR      r0,[pc,#44] ; [0x2914] = 0x2000073c
        0x000028e8:    1845        E.      ADDS     r5,r0,r1
        0x000028ea:    2203        ."      MOVS     r2,#3
        0x000028ec:    70aa        .p      STRB     r2,[r5,#2]
        0x000028ee:    5c40        @\      LDRB     r0,[r0,r1]
        0x000028f0:    78eb        .x      LDRB     r3,[r5,#3]
        0x000028f2:    7869        ix      LDRB     r1,[r5,#1]
        0x000028f4:    78a5        .x      LDRB     r5,[r4,#2]
        0x000028f6:    78e6        .x      LDRB     r6,[r4,#3]
        0x000028f8:    ac03        ..      ADD      r4,sp,#0xc
        0x000028fa:    9500        ..      STR      r5,[sp,#0]
        0x000028fc:    9601        ..      STR      r6,[sp,#4]
        0x000028fe:    9402        ..      STR      r4,[sp,#8]
        0x00002900:    f7fefd50    ..P.    BL       Creat_Packet_Request_SHA ; 0x13a4
        0x00002904:    2124        $!      MOVS     r1,#0x24
        0x00002906:    4620         F      MOV      r0,r4
        0x00002908:    f002f83a    ..:.    BL       SX1276SetTxPacket ; 0x4980
        0x0000290c:    b00c        ..      ADD      sp,sp,#0x30
        0x0000290e:    bd70        p.      POP      {r4-r6,pc}
    $d.18
    __arm_cp.11_0
        0x00002910:    20000212    ...     DCD    536871442
    __arm_cp.11_2
        0x00002914:    2000073c    <..     DCD    536872764
    $t.0
    SB_Client_GPIO_Init
        0x00002918:    b5f0        ..      PUSH     {r4-r7,lr}
        0x0000291a:    b08d        ..      SUB      sp,sp,#0x34
        0x0000291c:    af05        ..      ADD      r7,sp,#0x14
        0x0000291e:    2120         !      MOVS     r1,#0x20
        0x00002920:    9104        ..      STR      r1,[sp,#0x10]
        0x00002922:    4638        8F      MOV      r0,r7
        0x00002924:    f7fdfc15    ....    BL       __aeabi_memclr ; 0x152
        0x00002928:    4c56        VL      LDR      r4,[pc,#344] ; [0x2a84] = 0x50004000
        0x0000292a:    2110        .!      MOVS     r1,#0x10
        0x0000292c:    2601        .&      MOVS     r6,#1
        0x0000292e:    4d56        VM      LDR      r5,[pc,#344] ; [0x2a88] = 0x1a65
        0x00002930:    4620         F      MOV      r0,r4
        0x00002932:    9101        ..      STR      r1,[sp,#4]
        0x00002934:    4632        2F      MOV      r2,r6
        0x00002936:    47a8        .G      BLX      r5
        0x00002938:    2108        .!      MOVS     r1,#8
        0x0000293a:    4620         F      MOV      r0,r4
        0x0000293c:    4632        2F      MOV      r2,r6
        0x0000293e:    47a8        .G      BLX      r5
        0x00002940:    2104        .!      MOVS     r1,#4
        0x00002942:    4620         F      MOV      r0,r4
        0x00002944:    4632        2F      MOV      r2,r6
        0x00002946:    47a8        .G      BLX      r5
        0x00002948:    2102        .!      MOVS     r1,#2
        0x0000294a:    4620         F      MOV      r0,r4
        0x0000294c:    4632        2F      MOV      r2,r6
        0x0000294e:    47a8        .G      BLX      r5
        0x00002950:    4620         F      MOV      r0,r4
        0x00002952:    4631        1F      MOV      r1,r6
        0x00002954:    4632        2F      MOV      r2,r6
        0x00002956:    47a8        .G      BLX      r5
        0x00002958:    0331        1.      LSLS     r1,r6,#12
        0x0000295a:    4620         F      MOV      r0,r4
        0x0000295c:    4632        2F      MOV      r2,r6
        0x0000295e:    47a8        .G      BLX      r5
        0x00002960:    0371        q.      LSLS     r1,r6,#13
        0x00002962:    4620         F      MOV      r0,r4
        0x00002964:    4632        2F      MOV      r2,r6
        0x00002966:    47a8        .G      BLX      r5
        0x00002968:    4620         F      MOV      r0,r4
        0x0000296a:    9904        ..      LDR      r1,[sp,#0x10]
        0x0000296c:    4632        2F      MOV      r2,r6
        0x0000296e:    47a8        .G      BLX      r5
        0x00002970:    462b        +F      MOV      r3,r5
        0x00002972:    2140        @!      MOVS     r1,#0x40
        0x00002974:    9103        ..      STR      r1,[sp,#0xc]
        0x00002976:    2500        .%      MOVS     r5,#0
        0x00002978:    4620         F      MOV      r0,r4
        0x0000297a:    462a        *F      MOV      r2,r5
        0x0000297c:    4798        .G      BLX      r3
        0x0000297e:    4c41        AL      LDR      r4,[pc,#260] ; [0x2a84] = 0x50004000
        0x00002980:    3480        .4      ADDS     r4,r4,#0x80
        0x00002982:    2180        .!      MOVS     r1,#0x80
        0x00002984:    4620         F      MOV      r0,r4
        0x00002986:    462a        *F      MOV      r2,r5
        0x00002988:    4b3f        ?K      LDR      r3,[pc,#252] ; [0x2a88] = 0x1a65
        0x0000298a:    4798        .G      BLX      r3
        0x0000298c:    9402        ..      STR      r4,[sp,#8]
        0x0000298e:    4620         F      MOV      r0,r4
        0x00002990:    9903        ..      LDR      r1,[sp,#0xc]
        0x00002992:    462a        *F      MOV      r2,r5
        0x00002994:    4b3c        <K      LDR      r3,[pc,#240] ; [0x2a88] = 0x1a65
        0x00002996:    4798        .G      BLX      r3
        0x00002998:    4c3a        :L      LDR      r4,[pc,#232] ; [0x2a84] = 0x50004000
        0x0000299a:    3440        @4      ADDS     r4,r4,#0x40
        0x0000299c:    03f1        ..      LSLS     r1,r6,#15
        0x0000299e:    4620         F      MOV      r0,r4
        0x000029a0:    462a        *F      MOV      r2,r5
        0x000029a2:    4b39        9K      LDR      r3,[pc,#228] ; [0x2a88] = 0x1a65
        0x000029a4:    4798        .G      BLX      r3
        0x000029a6:    0231        1.      LSLS     r1,r6,#8
        0x000029a8:    9403        ..      STR      r4,[sp,#0xc]
        0x000029aa:    4620         F      MOV      r0,r4
        0x000029ac:    462a        *F      MOV      r2,r5
        0x000029ae:    4c36        6L      LDR      r4,[pc,#216] ; [0x2a88] = 0x1a65
        0x000029b0:    47a0        .G      BLX      r4
        0x000029b2:    02f1        ..      LSLS     r1,r6,#11
        0x000029b4:    4833        3H      LDR      r0,[pc,#204] ; [0x2a84] = 0x50004000
        0x000029b6:    462a        *F      MOV      r2,r5
        0x000029b8:    47a0        .G      BLX      r4
        0x000029ba:    02b1        ..      LSLS     r1,r6,#10
        0x000029bc:    4831        1H      LDR      r0,[pc,#196] ; [0x2a84] = 0x50004000
        0x000029be:    462a        *F      MOV      r2,r5
        0x000029c0:    47a0        .G      BLX      r4
        0x000029c2:    0271        q.      LSLS     r1,r6,#9
        0x000029c4:    482f        /H      LDR      r0,[pc,#188] ; [0x2a84] = 0x50004000
        0x000029c6:    462a        *F      MOV      r2,r5
        0x000029c8:    47a0        .G      BLX      r4
        0x000029ca:    4830        0H      LDR      r0,[pc,#192] ; [0x2a8c] = 0x20000408
        0x000029cc:    7e80        .~      LDRB     r0,[r0,#0x1a]
        0x000029ce:    2d08        .-      CMP      r5,#8
        0x000029d0:    d007        ..      BEQ      0x29e2 ; SB_Client_GPIO_Init + 202
        0x000029d2:    4601        .F      MOV      r1,r0
        0x000029d4:    40e9        .@      LSRS     r1,r1,r5
        0x000029d6:    4031        1@      ANDS     r1,r1,r6
        0x000029d8:    4249        IB      RSBS     r1,r1,#0
        0x000029da:    1c6d        m.      ADDS     r5,r5,#1
        0x000029dc:    4029        )@      ANDS     r1,r1,r5
        0x000029de:    c702        ..      STM      r7!,{r1}
        0x000029e0:    e7f5        ..      B        0x29ce ; SB_Client_GPIO_Init + 182
        0x000029e2:    4e2b        +N      LDR      r6,[pc,#172] ; [0x2a90] = 0x10001
        0x000029e4:    4cc3        .L      LDR      r4,[pc,#780] ; [0x2cf4] = 0xe000e100
        0x000029e6:    9805        ..      LDR      r0,[sp,#0x14]
        0x000029e8:    2801        .(      CMP      r0,#1
        0x000029ea:    9d01        ..      LDR      r5,[sp,#4]
        0x000029ec:    4f25        %O      LDR      r7,[pc,#148] ; [0x2a84] = 0x50004000
        0x000029ee:    d105        ..      BNE      0x29fc ; SB_Client_GPIO_Init + 228
        0x000029f0:    2106        .!      MOVS     r1,#6
        0x000029f2:    4638        8F      MOV      r0,r7
        0x000029f4:    4632        2F      MOV      r2,r6
        0x000029f6:    f7fff81f    ....    BL       GPIO_EnableInt ; 0x1a38
        0x000029fa:    6025        %`      STR      r5,[r4,#0]
        0x000029fc:    9806        ..      LDR      r0,[sp,#0x18]
        0x000029fe:    2800        .(      CMP      r0,#0
        0x00002a00:    d006        ..      BEQ      0x2a10 ; SB_Client_GPIO_Init + 248
        0x00002a02:    2107        .!      MOVS     r1,#7
        0x00002a04:    9802        ..      LDR      r0,[sp,#8]
        0x00002a06:    4632        2F      MOV      r2,r6
        0x00002a08:    f7fff816    ....    BL       GPIO_EnableInt ; 0x1a38
        0x00002a0c:    9804        ..      LDR      r0,[sp,#0x10]
        0x00002a0e:    6020         `      STR      r0,[r4,#0]
        0x00002a10:    9807        ..      LDR      r0,[sp,#0x1c]
        0x00002a12:    2800        .(      CMP      r0,#0
        0x00002a14:    d006        ..      BEQ      0x2a24 ; SB_Client_GPIO_Init + 268
        0x00002a16:    2106        .!      MOVS     r1,#6
        0x00002a18:    9802        ..      LDR      r0,[sp,#8]
        0x00002a1a:    4632        2F      MOV      r2,r6
        0x00002a1c:    f7fff80c    ....    BL       GPIO_EnableInt ; 0x1a38
        0x00002a20:    9804        ..      LDR      r0,[sp,#0x10]
        0x00002a22:    6020         `      STR      r0,[r4,#0]
        0x00002a24:    9808        ..      LDR      r0,[sp,#0x20]
        0x00002a26:    2800        .(      CMP      r0,#0
        0x00002a28:    d005        ..      BEQ      0x2a36 ; SB_Client_GPIO_Init + 286
        0x00002a2a:    210f        .!      MOVS     r1,#0xf
        0x00002a2c:    9803        ..      LDR      r0,[sp,#0xc]
        0x00002a2e:    4632        2F      MOV      r2,r6
        0x00002a30:    f7fff802    ....    BL       GPIO_EnableInt ; 0x1a38
        0x00002a34:    6025        %`      STR      r5,[r4,#0]
        0x00002a36:    9809        ..      LDR      r0,[sp,#0x24]
        0x00002a38:    2800        .(      CMP      r0,#0
        0x00002a3a:    d005        ..      BEQ      0x2a48 ; SB_Client_GPIO_Init + 304
        0x00002a3c:    2108        .!      MOVS     r1,#8
        0x00002a3e:    9803        ..      LDR      r0,[sp,#0xc]
        0x00002a40:    4632        2F      MOV      r2,r6
        0x00002a42:    f7fefff9    ....    BL       GPIO_EnableInt ; 0x1a38
        0x00002a46:    6025        %`      STR      r5,[r4,#0]
        0x00002a48:    980a        ..      LDR      r0,[sp,#0x28]
        0x00002a4a:    2800        .(      CMP      r0,#0
        0x00002a4c:    d005        ..      BEQ      0x2a5a ; SB_Client_GPIO_Init + 322
        0x00002a4e:    210b        .!      MOVS     r1,#0xb
        0x00002a50:    4638        8F      MOV      r0,r7
        0x00002a52:    4632        2F      MOV      r2,r6
        0x00002a54:    f7fefff0    ....    BL       GPIO_EnableInt ; 0x1a38
        0x00002a58:    6025        %`      STR      r5,[r4,#0]
        0x00002a5a:    980b        ..      LDR      r0,[sp,#0x2c]
        0x00002a5c:    2800        .(      CMP      r0,#0
        0x00002a5e:    d005        ..      BEQ      0x2a6c ; SB_Client_GPIO_Init + 340
        0x00002a60:    210a        .!      MOVS     r1,#0xa
        0x00002a62:    4638        8F      MOV      r0,r7
        0x00002a64:    4632        2F      MOV      r2,r6
        0x00002a66:    f7feffe7    ....    BL       GPIO_EnableInt ; 0x1a38
        0x00002a6a:    6025        %`      STR      r5,[r4,#0]
        0x00002a6c:    980c        ..      LDR      r0,[sp,#0x30]
        0x00002a6e:    2800        .(      CMP      r0,#0
        0x00002a70:    d005        ..      BEQ      0x2a7e ; SB_Client_GPIO_Init + 358
        0x00002a72:    2109        .!      MOVS     r1,#9
        0x00002a74:    4638        8F      MOV      r0,r7
        0x00002a76:    4632        2F      MOV      r2,r6
        0x00002a78:    f7feffde    ....    BL       GPIO_EnableInt ; 0x1a38
        0x00002a7c:    6025        %`      STR      r5,[r4,#0]
        0x00002a7e:    b00d        ..      ADD      sp,sp,#0x34
        0x00002a80:    bdf0        ..      POP      {r4-r7,pc}
        0x00002a82:    46c0        .F      MOV      r8,r8
    $d.1
    __arm_cp.0_0
        0x00002a84:    50004000    .@.P    DCD    1342193664
    __arm_cp.0_1
        0x00002a88:    00001a65    e...    DCD    6757
    __arm_cp.0_2
        0x00002a8c:    20000408    ...     DCD    536871944
    __arm_cp.0_3
        0x00002a90:    00010001    ....    DCD    65537
    $t.0
    SB_SPI_Driver_Init
        0x00002a94:    b510        ..      PUSH     {r4,lr}
        0x00002a96:    4c0c        .L      LDR      r4,[pc,#48] ; [0x2ac8] = 0x5240000c
        0x00002a98:    2110        .!      MOVS     r1,#0x10
        0x00002a9a:    2200        ."      MOVS     r2,#0
        0x00002a9c:    4620         F      MOV      r0,r4
        0x00002a9e:    f7fef94b    ..K.    BL       CLK_SetModuleClock ; 0xd38
        0x00002aa2:    4620         F      MOV      r0,r4
        0x00002aa4:    f7fdffb0    ....    BL       CLK_EnableModuleClock ; 0xa08
        0x00002aa8:    4808        .H      LDR      r0,[pc,#32] ; [0x2acc] = 0x50000038
        0x00002aaa:    6801        .h      LDR      r1,[r0,#0]
        0x00002aac:    220f        ."      MOVS     r2,#0xf
        0x00002aae:    4391        .C      BICS     r1,r1,r2
        0x00002ab0:    6001        .`      STR      r1,[r0,#0]
        0x00002ab2:    6801        .h      LDR      r1,[r0,#0]
        0x00002ab4:    4311        .C      ORRS     r1,r1,r2
        0x00002ab6:    6001        .`      STR      r1,[r0,#0]
        0x00002ab8:    0151        Q.      LSLS     r1,r2,#5
        0x00002aba:    6982        .i      LDR      r2,[r0,#0x18]
        0x00002abc:    438a        .C      BICS     r2,r2,r1
        0x00002abe:    6182        .a      STR      r2,[r0,#0x18]
        0x00002ac0:    6981        .i      LDR      r1,[r0,#0x18]
        0x00002ac2:    6181        .a      STR      r1,[r0,#0x18]
        0x00002ac4:    bd10        ..      POP      {r4,pc}
        0x00002ac6:    46c0        .F      MOV      r8,r8
    $d.1
    __arm_cp.0_0
        0x00002ac8:    5240000c    ..@R    DCD    1379926028
    __arm_cp.0_1
        0x00002acc:    50000038    8..P    DCD    1342177336
    $t.0
    SB_SYS_Init
        0x00002ad0:    b510        ..      PUSH     {r4,lr}
        0x00002ad2:    4819        .H      LDR      r0,[pc,#100] ; [0x2b38] = 0x50000100
        0x00002ad4:    6801        .h      LDR      r1,[r0,#0]
        0x00002ad6:    2901        .)      CMP      r1,#1
        0x00002ad8:    d006        ..      BEQ      0x2ae8 ; SB_SYS_Init + 24
        0x00002ada:    2159        Y!      MOVS     r1,#0x59
        0x00002adc:    6001        .`      STR      r1,[r0,#0]
        0x00002ade:    2116        .!      MOVS     r1,#0x16
        0x00002ae0:    6001        .`      STR      r1,[r0,#0]
        0x00002ae2:    2188        .!      MOVS     r1,#0x88
        0x00002ae4:    6001        .`      STR      r1,[r0,#0]
        0x00002ae6:    e7f5        ..      B        0x2ad4 ; SB_SYS_Init + 4
        0x00002ae8:    200d        .       MOVS     r0,#0xd
        0x00002aea:    f7fef891    ....    BL       CLK_EnableXtalRC ; 0xc10
        0x00002aee:    2019        .       MOVS     r0,#0x19
        0x00002af0:    f7fef99a    ....    BL       CLK_WaitClockReady ; 0xe28
        0x00002af4:    f7fdff70    ..p.    BL       CLK_DisablePLL ; 0x9d8
        0x00002af8:    4810        .H      LDR      r0,[pc,#64] ; [0x2b3c] = 0x50000220
        0x00002afa:    6801        .h      LDR      r1,[r0,#0]
        0x00002afc:    4a10        .J      LDR      r2,[pc,#64] ; [0x2b40] = 0xfff00000
        0x00002afe:    400a        .@      ANDS     r2,r2,r1
        0x00002b00:    4910        .I      LDR      r1,[pc,#64] ; [0x2b44] = 0xc22e
        0x00002b02:    1851        Q.      ADDS     r1,r2,r1
        0x00002b04:    6001        .`      STR      r1,[r0,#0]
        0x00002b06:    2004        .       MOVS     r0,#4
        0x00002b08:    f7fef98e    ....    BL       CLK_WaitClockReady ; 0xe28
        0x00002b0c:    2007        .       MOVS     r0,#7
        0x00002b0e:    2400        .$      MOVS     r4,#0
        0x00002b10:    4621        !F      MOV      r1,r4
        0x00002b12:    f7fef8ef    ....    BL       CLK_SetHCLK ; 0xcf4
        0x00002b16:    480c        .H      LDR      r0,[pc,#48] ; [0x2b48] = 0x2faf080
        0x00002b18:    f7fef8b4    ....    BL       CLK_SetCoreClock ; 0xc84
        0x00002b1c:    200c        .       MOVS     r0,#0xc
        0x00002b1e:    4621        !F      MOV      r1,r4
        0x00002b20:    4622        "F      MOV      r2,r4
        0x00002b22:    f7fdff61    ..a.    BL       CLK_EnableCKO ; 0x9e8
        0x00002b26:    2002        .       MOVS     r0,#2
        0x00002b28:    f7fdff6e    ..n.    BL       CLK_EnableModuleClock ; 0xa08
        0x00002b2c:    2038        8       MOVS     r0,#0x38
        0x00002b2e:    4621        !F      MOV      r1,r4
        0x00002b30:    f7fef856    ..V.    BL       CLK_EnableSysTick ; 0xbe0
        0x00002b34:    bd10        ..      POP      {r4,pc}
        0x00002b36:    46c0        .F      MOV      r8,r8
    $d.1
    __arm_cp.0_0
        0x00002b38:    50000100    ...P    DCD    1342177536
    __arm_cp.0_1
        0x00002b3c:    50000220     ..P    DCD    1342177824
    __arm_cp.0_2
        0x00002b40:    fff00000    ....    DCD    4293918720
    __arm_cp.0_3
        0x00002b44:    0000c22e    ....    DCD    49710
    __arm_cp.0_4
        0x00002b48:    02faf080    ....    DCD    50000000
    $t.0
    SB_Timer0_Init
        0x00002b4c:    b5b0        ..      PUSH     {r4,r5,r7,lr}
        0x00002b4e:    2007        .       MOVS     r0,#7
        0x00002b50:    0201        ..      LSLS     r1,r0,#8
        0x00002b52:    4c13        .L      LDR      r4,[pc,#76] ; [0x2ba0] = 0x5e800002
        0x00002b54:    2200        ."      MOVS     r2,#0
        0x00002b56:    4620         F      MOV      r0,r4
        0x00002b58:    f7fef8ee    ....    BL       CLK_SetModuleClock ; 0xd38
        0x00002b5c:    4620         F      MOV      r0,r4
        0x00002b5e:    f7fdff53    ..S.    BL       CLK_EnableModuleClock ; 0xa08
        0x00002b62:    4810        .H      LDR      r0,[pc,#64] ; [0x2ba4] = 0x4000002
        0x00002b64:    f001ff60    ..`.    BL       SYS_ResetModule ; 0x4a28
        0x00002b68:    2401        .$      MOVS     r4,#1
        0x00002b6a:    06a0        ..      LSLS     r0,r4,#26
        0x00002b6c:    4d0e        .M      LDR      r5,[pc,#56] ; [0x2ba8] = 0x40010000
        0x00002b6e:    6829        )h      LDR      r1,[r5,#0]
        0x00002b70:    4381        .C      BICS     r1,r1,r0
        0x00002b72:    6029        )`      STR      r1,[r5,#0]
        0x00002b74:    06e1        ..      LSLS     r1,r4,#27
        0x00002b76:    4628        (F      MOV      r0,r5
        0x00002b78:    4622        "F      MOV      r2,r4
        0x00002b7a:    f002faf9    ....    BL       TIMER_Open ; 0x5170
        0x00002b7e:    6828        (h      LDR      r0,[r5,#0]
        0x00002b80:    2117        .!      MOVS     r1,#0x17
        0x00002b82:    4301        .C      ORRS     r1,r1,r0
        0x00002b84:    20e8        .       MOVS     r0,#0xe8
        0x00002b86:    4381        .C      BICS     r1,r1,r0
        0x00002b88:    6029        )`      STR      r1,[r5,#0]
        0x00002b8a:    207d        }       MOVS     r0,#0x7d
        0x00002b8c:    00c0        ..      LSLS     r0,r0,#3
        0x00002b8e:    6068        h`      STR      r0,[r5,#4]
        0x00002b90:    0760        `.      LSLS     r0,r4,#29
        0x00002b92:    6829        )h      LDR      r1,[r5,#0]
        0x00002b94:    4301        .C      ORRS     r1,r1,r0
        0x00002b96:    6029        )`      STR      r1,[r5,#0]
        0x00002b98:    0220         .      LSLS     r0,r4,#8
        0x00002b9a:    49d3        .I      LDR      r1,[pc,#844] ; [0x2ee8] = 0xe000e100
        0x00002b9c:    6008        .`      STR      r0,[r1,#0]
        0x00002b9e:    bdb0        ..      POP      {r4,r5,r7,pc}
    $d.1
    __arm_cp.0_0
        0x00002ba0:    5e800002    ...^    DCD    1585446914
    __arm_cp.0_1
        0x00002ba4:    04000002    ....    DCD    67108866
    __arm_cp.0_2
        0x00002ba8:    40010000    ...@    DCD    1073807360
    $t.2
    SB_Timer1_Init
        0x00002bac:    b570        p.      PUSH     {r4-r6,lr}
        0x00002bae:    2007        .       MOVS     r0,#7
        0x00002bb0:    0301        ..      LSLS     r1,r0,#12
        0x00002bb2:    4d15        .M      LDR      r5,[pc,#84] ; [0x2c08] = 0x5ec00003
        0x00002bb4:    2400        .$      MOVS     r4,#0
        0x00002bb6:    4628        (F      MOV      r0,r5
        0x00002bb8:    4622        "F      MOV      r2,r4
        0x00002bba:    f7fef8bd    ....    BL       CLK_SetModuleClock ; 0xd38
        0x00002bbe:    4628        (F      MOV      r0,r5
        0x00002bc0:    f7fdff22    ..".    BL       CLK_EnableModuleClock ; 0xa08
        0x00002bc4:    4811        .H      LDR      r0,[pc,#68] ; [0x2c0c] = 0x4000003
        0x00002bc6:    f001ff2f    ../.    BL       SYS_ResetModule ; 0x4a28
        0x00002bca:    2501        .%      MOVS     r5,#1
        0x00002bcc:    06a8        ..      LSLS     r0,r5,#26
        0x00002bce:    4e10        .N      LDR      r6,[pc,#64] ; [0x2c10] = 0x40010020
        0x00002bd0:    6831        1h      LDR      r1,[r6,#0]
        0x00002bd2:    4381        .C      BICS     r1,r1,r0
        0x00002bd4:    6031        1`      STR      r1,[r6,#0]
        0x00002bd6:    06e9        ..      LSLS     r1,r5,#27
        0x00002bd8:    4630        0F      MOV      r0,r6
        0x00002bda:    462a        *F      MOV      r2,r5
        0x00002bdc:    f002fac8    ....    BL       TIMER_Open ; 0x5170
        0x00002be0:    6830        0h      LDR      r0,[r6,#0]
        0x00002be2:    2117        .!      MOVS     r1,#0x17
        0x00002be4:    4301        .C      ORRS     r1,r1,r0
        0x00002be6:    20e8        .       MOVS     r0,#0xe8
        0x00002be8:    4381        .C      BICS     r1,r1,r0
        0x00002bea:    6031        1`      STR      r1,[r6,#0]
        0x00002bec:    207d        }       MOVS     r0,#0x7d
        0x00002bee:    00c0        ..      LSLS     r0,r0,#3
        0x00002bf0:    6070        p`      STR      r0,[r6,#4]
        0x00002bf2:    0768        h.      LSLS     r0,r5,#29
        0x00002bf4:    6831        1h      LDR      r1,[r6,#0]
        0x00002bf6:    4301        .C      ORRS     r1,r1,r0
        0x00002bf8:    6031        1`      STR      r1,[r6,#0]
        0x00002bfa:    4806        .H      LDR      r0,[pc,#24] ; [0x2c14] = 0x20002d9e
        0x00002bfc:    8004        ..      STRH     r4,[r0,#0]
        0x00002bfe:    0268        h.      LSLS     r0,r5,#9
        0x00002c00:    49b9        .I      LDR      r1,[pc,#740] ; [0x2ee8] = 0xe000e100
        0x00002c02:    6008        .`      STR      r0,[r1,#0]
        0x00002c04:    bd70        p.      POP      {r4-r6,pc}
        0x00002c06:    46c0        .F      MOV      r8,r8
    $d.3
    __arm_cp.1_0
        0x00002c08:    5ec00003    ...^    DCD    1589641219
    __arm_cp.1_1
        0x00002c0c:    04000003    ....    DCD    67108867
    __arm_cp.1_2
        0x00002c10:    40010020     ..@    DCD    1073807392
    __arm_cp.1_3
        0x00002c14:    20002d9e    .-.     DCD    536882590
    $t.4
    SB_Timer2_Init
        0x00002c18:    b570        p.      PUSH     {r4-r6,lr}
        0x00002c1a:    2007        .       MOVS     r0,#7
        0x00002c1c:    0401        ..      LSLS     r1,r0,#16
        0x00002c1e:    4d19        .M      LDR      r5,[pc,#100] ; [0x2c84] = 0x5f000004
        0x00002c20:    2400        .$      MOVS     r4,#0
        0x00002c22:    4628        (F      MOV      r0,r5
        0x00002c24:    4622        "F      MOV      r2,r4
        0x00002c26:    f7fef887    ....    BL       CLK_SetModuleClock ; 0xd38
        0x00002c2a:    4628        (F      MOV      r0,r5
        0x00002c2c:    f7fdfeec    ....    BL       CLK_EnableModuleClock ; 0xa08
        0x00002c30:    4815        .H      LDR      r0,[pc,#84] ; [0x2c88] = 0x4000004
        0x00002c32:    f001fef9    ....    BL       SYS_ResetModule ; 0x4a28
        0x00002c36:    2501        .%      MOVS     r5,#1
        0x00002c38:    06a8        ..      LSLS     r0,r5,#26
        0x00002c3a:    4e14        .N      LDR      r6,[pc,#80] ; [0x2c8c] = 0x40110000
        0x00002c3c:    6831        1h      LDR      r1,[r6,#0]
        0x00002c3e:    4381        .C      BICS     r1,r1,r0
        0x00002c40:    6031        1`      STR      r1,[r6,#0]
        0x00002c42:    06e9        ..      LSLS     r1,r5,#27
        0x00002c44:    4630        0F      MOV      r0,r6
        0x00002c46:    462a        *F      MOV      r2,r5
        0x00002c48:    f002fa92    ....    BL       TIMER_Open ; 0x5170
        0x00002c4c:    6830        0h      LDR      r0,[r6,#0]
        0x00002c4e:    2117        .!      MOVS     r1,#0x17
        0x00002c50:    4301        .C      ORRS     r1,r1,r0
        0x00002c52:    20e8        .       MOVS     r0,#0xe8
        0x00002c54:    4381        .C      BICS     r1,r1,r0
        0x00002c56:    6031        1`      STR      r1,[r6,#0]
        0x00002c58:    207d        }       MOVS     r0,#0x7d
        0x00002c5a:    00c0        ..      LSLS     r0,r0,#3
        0x00002c5c:    6070        p`      STR      r0,[r6,#4]
        0x00002c5e:    0769        i.      LSLS     r1,r5,#29
        0x00002c60:    6832        2h      LDR      r2,[r6,#0]
        0x00002c62:    430a        .C      ORRS     r2,r2,r1
        0x00002c64:    6032        2`      STR      r2,[r6,#0]
        0x00002c66:    3018        .0      ADDS     r0,r0,#0x18
        0x00002c68:    499f        .I      LDR      r1,[pc,#636] ; [0x2ee8] = 0xe000e100
        0x00002c6a:    6008        .`      STR      r0,[r1,#0]
        0x00002c6c:    4808        .H      LDR      r0,[pc,#32] ; [0x2c90] = 0x20002da0
        0x00002c6e:    8004        ..      STRH     r4,[r0,#0]
        0x00002c70:    20ff        .       MOVS     r0,#0xff
        0x00002c72:    0400        ..      LSLS     r0,r0,#16
        0x00002c74:    4907        .I      LDR      r1,[pc,#28] ; [0x2c94] = 0xe000e408
        0x00002c76:    680a        .h      LDR      r2,[r1,#0]
        0x00002c78:    4382        .C      BICS     r2,r2,r0
        0x00002c7a:    05a8        ..      LSLS     r0,r5,#22
        0x00002c7c:    1810        ..      ADDS     r0,r2,r0
        0x00002c7e:    6008        .`      STR      r0,[r1,#0]
        0x00002c80:    bd70        p.      POP      {r4-r6,pc}
        0x00002c82:    46c0        .F      MOV      r8,r8
    $d.5
    __arm_cp.2_0
        0x00002c84:    5f000004    ..._    DCD    1593835524
    __arm_cp.2_1
        0x00002c88:    04000004    ....    DCD    67108868
    __arm_cp.2_2
        0x00002c8c:    40110000    ...@    DCD    1074855936
    __arm_cp.2_4
        0x00002c90:    20002da0    .-.     DCD    536882592
    __arm_cp.2_5
        0x00002c94:    e000e408    ....    DCD    3758154760
    $t.6
    SB_Timer3_Init
        0x00002c98:    b5b0        ..      PUSH     {r4,r5,r7,lr}
        0x00002c9a:    2007        .       MOVS     r0,#7
        0x00002c9c:    0501        ..      LSLS     r1,r0,#20
        0x00002c9e:    4c12        .L      LDR      r4,[pc,#72] ; [0x2ce8] = 0x5f400005
        0x00002ca0:    2200        ."      MOVS     r2,#0
        0x00002ca2:    4620         F      MOV      r0,r4
        0x00002ca4:    f7fef848    ..H.    BL       CLK_SetModuleClock ; 0xd38
        0x00002ca8:    4620         F      MOV      r0,r4
        0x00002caa:    f7fdfead    ....    BL       CLK_EnableModuleClock ; 0xa08
        0x00002cae:    480f        .H      LDR      r0,[pc,#60] ; [0x2cec] = 0x4000005
        0x00002cb0:    f001feba    ....    BL       SYS_ResetModule ; 0x4a28
        0x00002cb4:    2401        .$      MOVS     r4,#1
        0x00002cb6:    06a0        ..      LSLS     r0,r4,#26
        0x00002cb8:    4d0d        .M      LDR      r5,[pc,#52] ; [0x2cf0] = 0x40110020
        0x00002cba:    6829        )h      LDR      r1,[r5,#0]
        0x00002cbc:    4381        .C      BICS     r1,r1,r0
        0x00002cbe:    6029        )`      STR      r1,[r5,#0]
        0x00002cc0:    06e1        ..      LSLS     r1,r4,#27
        0x00002cc2:    4628        (F      MOV      r0,r5
        0x00002cc4:    4622        "F      MOV      r2,r4
        0x00002cc6:    f002fa53    ..S.    BL       TIMER_Open ; 0x5170
        0x00002cca:    6828        (h      LDR      r0,[r5,#0]
        0x00002ccc:    2117        .!      MOVS     r1,#0x17
        0x00002cce:    4301        .C      ORRS     r1,r1,r0
        0x00002cd0:    20e8        .       MOVS     r0,#0xe8
        0x00002cd2:    4381        .C      BICS     r1,r1,r0
        0x00002cd4:    6029        )`      STR      r1,[r5,#0]
        0x00002cd6:    606c        l`      STR      r4,[r5,#4]
        0x00002cd8:    0760        `.      LSLS     r0,r4,#29
        0x00002cda:    6829        )h      LDR      r1,[r5,#0]
        0x00002cdc:    4301        .C      ORRS     r1,r1,r0
        0x00002cde:    6029        )`      STR      r1,[r5,#0]
        0x00002ce0:    02e0        ..      LSLS     r0,r4,#11
        0x00002ce2:    4981        .I      LDR      r1,[pc,#516] ; [0x2ee8] = 0xe000e100
        0x00002ce4:    6008        .`      STR      r0,[r1,#0]
        0x00002ce6:    bdb0        ..      POP      {r4,r5,r7,pc}
    $d.7
    __arm_cp.3_0
        0x00002ce8:    5f400005    ..@_    DCD    1598029829
    __arm_cp.3_1
        0x00002cec:    04000005    ....    DCD    67108869
    __arm_cp.3_2
        0x00002cf0:    40110020     ..@    DCD    1074855968
    __arm_cp.3_3
        0x00002cf4:    e000e100    ....    DCD    3758153984
    $t.30
    SB_Timer_Driver_Init
        0x00002cf8:    b580        ..      PUSH     {r7,lr}
        0x00002cfa:    f7ffff27    ..'.    BL       SB_Timer0_Init ; 0x2b4c
        0x00002cfe:    f7ffff55    ..U.    BL       SB_Timer1_Init ; 0x2bac
        0x00002d02:    f7ffffc9    ....    BL       SB_Timer3_Init ; 0x2c98
        0x00002d06:    bd80        ..      POP      {r7,pc}
    SB_Uart_Driver_Init
        0x00002d08:    b5f8        ..      PUSH     {r3-r7,lr}
        0x00002d0a:    461f        .F      MOV      r7,r3
        0x00002d0c:    460d        .F      MOV      r5,r1
        0x00002d0e:    4604        .F      MOV      r4,r0
        0x00002d10:    483c        <H      LDR      r0,[pc,#240] ; [0x2e04] = 0x40050000
        0x00002d12:    4284        .B      CMP      r4,r0
        0x00002d14:    d018        ..      BEQ      0x2d48 ; SB_Uart_Driver_Init + 64
        0x00002d16:    483c        <H      LDR      r0,[pc,#240] ; [0x2e08] = 0x40150000
        0x00002d18:    4284        .B      CMP      r4,r0
        0x00002d1a:    d12a        *.      BNE      0x2d72 ; SB_Uart_Driver_Init + 106
        0x00002d1c:    9200        ..      STR      r2,[sp,#0]
        0x00002d1e:    483b        ;H      LDR      r0,[pc,#236] ; [0x2e0c] = 0x50000034
        0x00002d20:    6801        .h      LDR      r1,[r0,#0]
        0x00002d22:    2230        0"      MOVS     r2,#0x30
        0x00002d24:    4391        .C      BICS     r1,r1,r2
        0x00002d26:    6001        .`      STR      r1,[r0,#0]
        0x00002d28:    6801        .h      LDR      r1,[r0,#0]
        0x00002d2a:    4311        .C      ORRS     r1,r1,r2
        0x00002d2c:    6001        .`      STR      r1,[r0,#0]
        0x00002d2e:    4838        8H      LDR      r0,[pc,#224] ; [0x2e10] = 0x57803d10
        0x00002d30:    1c46        F.      ADDS     r6,r0,#1
        0x00002d32:    4630        0F      MOV      r0,r6
        0x00002d34:    f7fdfe68    ..h.    BL       CLK_EnableModuleClock ; 0xa08
        0x00002d38:    2100        .!      MOVS     r1,#0
        0x00002d3a:    4630        0F      MOV      r0,r6
        0x00002d3c:    460a        .F      MOV      r2,r1
        0x00002d3e:    f7fdfffb    ....    BL       CLK_SetModuleClock ; 0xd38
        0x00002d42:    4834        4H      LDR      r0,[pc,#208] ; [0x2e14] = 0x4000010
        0x00002d44:    1c40        @.      ADDS     r0,r0,#1
        0x00002d46:    e011        ..      B        0x2d6c ; SB_Uart_Driver_Init + 100
        0x00002d48:    9200        ..      STR      r2,[sp,#0]
        0x00002d4a:    4830        0H      LDR      r0,[pc,#192] ; [0x2e0c] = 0x50000034
        0x00002d4c:    6801        .h      LDR      r1,[r0,#0]
        0x00002d4e:    2603        .&      MOVS     r6,#3
        0x00002d50:    43b1        .C      BICS     r1,r1,r6
        0x00002d52:    6001        .`      STR      r1,[r0,#0]
        0x00002d54:    6801        .h      LDR      r1,[r0,#0]
        0x00002d56:    4331        1C      ORRS     r1,r1,r6
        0x00002d58:    6001        .`      STR      r1,[r0,#0]
        0x00002d5a:    482d        -H      LDR      r0,[pc,#180] ; [0x2e10] = 0x57803d10
        0x00002d5c:    f7fdfe54    ..T.    BL       CLK_EnableModuleClock ; 0xa08
        0x00002d60:    0631        1.      LSLS     r1,r6,#24
        0x00002d62:    2200        ."      MOVS     r2,#0
        0x00002d64:    482a        *H      LDR      r0,[pc,#168] ; [0x2e10] = 0x57803d10
        0x00002d66:    f7fdffe7    ....    BL       CLK_SetModuleClock ; 0xd38
        0x00002d6a:    482a        *H      LDR      r0,[pc,#168] ; [0x2e14] = 0x4000010
        0x00002d6c:    f001fe5c    ..\.    BL       SYS_ResetModule ; 0x4a28
        0x00002d70:    9a00        ..      LDR      r2,[sp,#0]
        0x00002d72:    68a0        .h      LDR      r0,[r4,#8]
        0x00002d74:    2104        .!      MOVS     r1,#4
        0x00002d76:    4301        .C      ORRS     r1,r1,r0
        0x00002d78:    60a1        .`      STR      r1,[r4,#8]
        0x00002d7a:    68a1        .h      LDR      r1,[r4,#8]
        0x00002d7c:    2002        .       MOVS     r0,#2
        0x00002d7e:    4301        .C      ORRS     r1,r1,r0
        0x00002d80:    60a1        .`      STR      r1,[r4,#8]
        0x00002d82:    2f02        ./      CMP      r7,#2
        0x00002d84:    d00d        ..      BEQ      0x2da2 ; SB_Uart_Driver_Init + 154
        0x00002d86:    2f01        ./      CMP      r7,#1
        0x00002d88:    d003        ..      BEQ      0x2d92 ; SB_Uart_Driver_Init + 138
        0x00002d8a:    2f00        ./      CMP      r7,#0
        0x00002d8c:    d111        ..      BNE      0x2db2 ; SB_Uart_Driver_Init + 170
        0x00002d8e:    68e1        .h      LDR      r1,[r4,#0xc]
        0x00002d90:    e005        ..      B        0x2d9e ; SB_Uart_Driver_Init + 150
        0x00002d92:    68e1        .h      LDR      r1,[r4,#0xc]
        0x00002d94:    2318        .#      MOVS     r3,#0x18
        0x00002d96:    4399        .C      BICS     r1,r1,r3
        0x00002d98:    60e1        .`      STR      r1,[r4,#0xc]
        0x00002d9a:    68e1        .h      LDR      r1,[r4,#0xc]
        0x00002d9c:    4319        .C      ORRS     r1,r1,r3
        0x00002d9e:    60e1        .`      STR      r1,[r4,#0xc]
        0x00002da0:    e007        ..      B        0x2db2 ; SB_Uart_Driver_Init + 170
        0x00002da2:    68e1        .h      LDR      r1,[r4,#0xc]
        0x00002da4:    2318        .#      MOVS     r3,#0x18
        0x00002da6:    4399        .C      BICS     r1,r1,r3
        0x00002da8:    60e1        .`      STR      r1,[r4,#0xc]
        0x00002daa:    68e1        .h      LDR      r1,[r4,#0xc]
        0x00002dac:    2308        .#      MOVS     r3,#8
        0x00002dae:    430b        .C      ORRS     r3,r3,r1
        0x00002db0:    60e3        .`      STR      r3,[r4,#0xc]
        0x00002db2:    1f51        Q.      SUBS     r1,r2,#5
        0x00002db4:    2903        .)      CMP      r1,#3
        0x00002db6:    d817        ..      BHI      0x2de8 ; SB_Uart_Driver_Init + 224
        0x00002db8:    0089        ..      LSLS     r1,r1,#2
        0x00002dba:    a201        ..      ADR      r2,{pc}+6 ; 0x2dc0
        0x00002dbc:    5851        QX      LDR      r1,[r2,r1]
        0x00002dbe:    468f        .F      MOV      pc,r1
    $d.1
        0x00002dc0:    00002dd1    .-..    DCD    11729
        0x00002dc4:    00002de1    .-..    DCD    11745
        0x00002dc8:    00002dd7    .-..    DCD    11735
        0x00002dcc:    00002ddb    .-..    DCD    11739
    $t.2
        0x00002dd0:    68e0        .h      LDR      r0,[r4,#0xc]
        0x00002dd2:    60e0        .`      STR      r0,[r4,#0xc]
        0x00002dd4:    e008        ..      B        0x2de8 ; SB_Uart_Driver_Init + 224
        0x00002dd6:    68e1        .h      LDR      r1,[r4,#0xc]
        0x00002dd8:    e004        ..      B        0x2de4 ; SB_Uart_Driver_Init + 220
        0x00002dda:    68e0        .h      LDR      r0,[r4,#0xc]
        0x00002ddc:    2103        .!      MOVS     r1,#3
        0x00002dde:    e001        ..      B        0x2de4 ; SB_Uart_Driver_Init + 220
        0x00002de0:    68e0        .h      LDR      r0,[r4,#0xc]
        0x00002de2:    2101        .!      MOVS     r1,#1
        0x00002de4:    4301        .C      ORRS     r1,r1,r0
        0x00002de6:    60e1        .`      STR      r1,[r4,#0xc]
        0x00002de8:    68e0        .h      LDR      r0,[r4,#0xc]
        0x00002dea:    60e0        .`      STR      r0,[r4,#0xc]
        0x00002dec:    0868        h.      LSRS     r0,r5,#1
        0x00002dee:    490a        .I      LDR      r1,[pc,#40] ; [0x2e18] = 0xb71b00
        0x00002df0:    1840        @.      ADDS     r0,r0,r1
        0x00002df2:    4629        )F      MOV      r1,r5
        0x00002df4:    f7fdfbd2    ....    BL       __aeabi_uidiv ; 0x59c
        0x00002df8:    1e80        ..      SUBS     r0,r0,#2
        0x00002dfa:    2103        .!      MOVS     r1,#3
        0x00002dfc:    0709        ..      LSLS     r1,r1,#28
        0x00002dfe:    4301        .C      ORRS     r1,r1,r0
        0x00002e00:    6261        ab      STR      r1,[r4,#0x24]
        0x00002e02:    bdf8        ..      POP      {r3-r7,pc}
    $d.3
    __arm_cp.0_0
        0x00002e04:    40050000    ...@    DCD    1074069504
    __arm_cp.0_1
        0x00002e08:    40150000    ...@    DCD    1075118080
    __arm_cp.0_2
        0x00002e0c:    50000034    4..P    DCD    1342177332
    __arm_cp.0_3
        0x00002e10:    57803d10    .=.W    DCD    1468022032
    __arm_cp.0_4
        0x00002e14:    04000010    ....    DCD    67108880
    __arm_cp.0_5
        0x00002e18:    00b71b00    ....    DCD    12000000
    $t.0
    SB_Usb_Driver_Init
        0x00002e1c:    b5b0        ..      PUSH     {r4,r5,r7,lr}
        0x00002e1e:    4c0c        .L      LDR      r4,[pc,#48] ; [0x2e50] = 0x40003c9b
        0x00002e20:    2500        .%      MOVS     r5,#0
        0x00002e22:    4620         F      MOV      r0,r4
        0x00002e24:    4629        )F      MOV      r1,r5
        0x00002e26:    462a        *F      MOV      r2,r5
        0x00002e28:    f7fdff86    ....    BL       CLK_SetModuleClock ; 0xd38
        0x00002e2c:    4620         F      MOV      r0,r4
        0x00002e2e:    f7fdfdeb    ....    BL       CLK_EnableModuleClock ; 0xa08
        0x00002e32:    4808        .H      LDR      r0,[pc,#32] ; [0x2e54] = 0x76f0
        0x00002e34:    4908        .I      LDR      r1,[pc,#32] ; [0x2e58] = 0x1a91
        0x00002e36:    462a        *F      MOV      r2,r5
        0x00002e38:    f002fdbe    ....    BL       USBD_Open ; 0x59b8
        0x00002e3c:    f7fefe82    ....    BL       HID_Init ; 0x1b44
        0x00002e40:    f002ff58    ..X.    BL       USBD_Start ; 0x5cf4
        0x00002e44:    2001        .       MOVS     r0,#1
        0x00002e46:    05c0        ..      LSLS     r0,r0,#23
        0x00002e48:    4927        'I      LDR      r1,[pc,#156] ; [0x2ee8] = 0xe000e100
        0x00002e4a:    6008        .`      STR      r0,[r1,#0]
        0x00002e4c:    bdb0        ..      POP      {r4,r5,r7,pc}
        0x00002e4e:    46c0        .F      MOV      r8,r8
    $d.1
    __arm_cp.0_0
        0x00002e50:    40003c9b    .<.@    DCD    1073757339
    __arm_cp.0_1
        0x00002e54:    000076f0    .v..    DCD    30448
    __arm_cp.0_2
        0x00002e58:    00001a91    ....    DCD    6801
    $t.0
    SB_WDT_Driver_Init
        0x00002e5c:    b5b0        ..      PUSH     {r4,r5,r7,lr}
        0x00002e5e:    202b        +       MOVS     r0,#0x2b
        0x00002e60:    0645        E.      LSLS     r5,r0,#25
        0x00002e62:    4628        (F      MOV      r0,r5
        0x00002e64:    f7fdfdd0    ....    BL       CLK_EnableModuleClock ; 0xa08
        0x00002e68:    2403        .$      MOVS     r4,#3
        0x00002e6a:    2200        ."      MOVS     r2,#0
        0x00002e6c:    4628        (F      MOV      r0,r5
        0x00002e6e:    4621        !F      MOV      r1,r4
        0x00002e70:    f7fdff62    ..b.    BL       CLK_SetModuleClock ; 0xd38
        0x00002e74:    4d0d        .M      LDR      r5,[pc,#52] ; [0x2eac] = 0x40004000
        0x00002e76:    6828        (h      LDR      r0,[r5,#0]
        0x00002e78:    0740        @.      LSLS     r0,r0,#29
        0x00002e7a:    d40d        ..      BMI      0x2e98 ; SB_WDT_Driver_Init + 60
        0x00002e7c:    0260        `.      LSLS     r0,r4,#9
        0x00002e7e:    2100        .!      MOVS     r1,#0
        0x00002e80:    2201        ."      MOVS     r2,#1
        0x00002e82:    4613        .F      MOV      r3,r2
        0x00002e84:    f003f95a    ..Z.    BL       WDT_Open ; 0x613c
        0x00002e88:    6828        (h      LDR      r0,[r5,#0]
        0x00002e8a:    2140        @!      MOVS     r1,#0x40
        0x00002e8c:    4301        .C      ORRS     r1,r1,r0
        0x00002e8e:    6029        )`      STR      r1,[r5,#0]
        0x00002e90:    4815        .H      LDR      r0,[pc,#84] ; [0x2ee8] = 0xe000e100
        0x00002e92:    2102        .!      MOVS     r1,#2
        0x00002e94:    6001        .`      STR      r1,[r0,#0]
        0x00002e96:    bdb0        ..      POP      {r4,r5,r7,pc}
        0x00002e98:    6828        (h      LDR      r0,[r5,#0]
        0x00002e9a:    2104        .!      MOVS     r1,#4
        0x00002e9c:    4301        .C      ORRS     r1,r1,r0
        0x00002e9e:    2028        (       MOVS     r0,#0x28
        0x00002ea0:    4381        .C      BICS     r1,r1,r0
        0x00002ea2:    6029        )`      STR      r1,[r5,#0]
        0x00002ea4:    a002        ..      ADR      r0,{pc}+0xc ; 0x2eb0
        0x00002ea6:    f004f9c7    ....    BL       puts ; 0x7238
        0x00002eaa:    e7fe        ..      B        0x2eaa ; SB_WDT_Driver_Init + 78
    $d.1
    __arm_cp.0_0
        0x00002eac:    40004000    .@.@    DCD    1073758208
        0x00002eb0:    202a2a2a    ***     DCD    539634218
        0x00002eb4:    74737953    Syst    DCD    1953724755
        0x00002eb8:    68206d65    em h    DCD    1746955621
        0x00002ebc:    62207361    as b    DCD    1646293857
        0x00002ec0:    206e6565    een     DCD    544105829
        0x00002ec4:    65736572    rese    DCD    1702061426
        0x00002ec8:    79622074    t by    DCD    2036473972
        0x00002ecc:    54445720     WDT    DCD    1413764896
        0x00002ed0:    6d697420     tim    DCD    1835627552
        0x00002ed4:    756f2d65    e-ou    DCD    1970220389
        0x00002ed8:    76652074    t ev    DCD    1986338932
        0x00002edc:    20746e65    ent     DCD    544501349
        0x00002ee0:    0a2a2a2a    ***.    DCD    170535466
        0x00002ee4:    00000000    ....    DCD    0
    __arm_cp.0_2
        0x00002ee8:    e000e100    ....    DCD    3758153984
    $t.0
    SIM_EEPROM_READ
        0x00002eec:    b510        ..      PUSH     {r4,lr}
        0x00002eee:    4604        .F      MOV      r4,r0
        0x00002ef0:    2003        .       MOVS     r0,#3
        0x00002ef2:    4621        !F      MOV      r1,r4
        0x00002ef4:    4381        .C      BICS     r1,r1,r0
        0x00002ef6:    201f        .       MOVS     r0,#0x1f
        0x00002ef8:    0300        ..      LSLS     r0,r0,#12
        0x00002efa:    1808        ..      ADDS     r0,r1,r0
        0x00002efc:    f7fefcc4    ....    BL       FMC_Read ; 0x1888
        0x00002f00:    07a1        ..      LSLS     r1,r4,#30
        0x00002f02:    0ec9        ..      LSRS     r1,r1,#27
        0x00002f04:    40c8        .@      LSRS     r0,r0,r1
        0x00002f06:    b2c0        ..      UXTB     r0,r0
        0x00002f08:    bd10        ..      POP      {r4,pc}
        0x00002f0a:    0000        ..      MOVS     r0,r0
    SIM_EEPROM_WRITE
        0x00002f0c:    b5f0        ..      PUSH     {r4-r7,lr}
        0x00002f0e:    b0ff        ..      SUB      sp,sp,#0x1fc
        0x00002f10:    b086        ..      SUB      sp,sp,#0x18
        0x00002f12:    460d        .F      MOV      r5,r1
        0x00002f14:    4604        .F      MOV      r4,r0
        0x00002f16:    f7ffffe9    ....    BL       SIM_EEPROM_READ ; 0x2eec
        0x00002f1a:    211f        .!      MOVS     r1,#0x1f
        0x00002f1c:    030e        ..      LSLS     r6,r1,#12
        0x00002f1e:    28ff        .(      CMP      r0,#0xff
        0x00002f20:    d004        ..      BEQ      0x2f2c ; SIM_EEPROM_WRITE + 32
        0x00002f22:    4620         F      MOV      r0,r4
        0x00002f24:    f7ffffe2    ....    BL       SIM_EEPROM_READ ; 0x2eec
        0x00002f28:    42a8        .B      CMP      r0,r5
        0x00002f2a:    d113        ..      BNE      0x2f54 ; SIM_EEPROM_WRITE + 72
        0x00002f2c:    2003        .       MOVS     r0,#3
        0x00002f2e:    4621        !F      MOV      r1,r4
        0x00002f30:    4381        .C      BICS     r1,r1,r0
        0x00002f32:    198e        ..      ADDS     r6,r1,r6
        0x00002f34:    4630        0F      MOV      r0,r6
        0x00002f36:    f7fefca7    ....    BL       FMC_Read ; 0x1888
        0x00002f3a:    07a0        ..      LSLS     r0,r4,#30
        0x00002f3c:    0ec0        ..      LSRS     r0,r0,#27
        0x00002f3e:    4085        .@      LSLS     r5,r5,r0
        0x00002f40:    21ff        .!      MOVS     r1,#0xff
        0x00002f42:    4081        .@      LSLS     r1,r1,r0
        0x00002f44:    43c9        .C      MVNS     r1,r1
        0x00002f46:    4329        )C      ORRS     r1,r1,r5
        0x00002f48:    4630        0F      MOV      r0,r6
        0x00002f4a:    f7fefccf    ....    BL       FMC_Write ; 0x18ec
        0x00002f4e:    b07f        ..      ADD      sp,sp,#0x1fc
        0x00002f50:    b006        ..      ADD      sp,sp,#0x18
        0x00002f52:    bdf0        ..      POP      {r4-r7,pc}
        0x00002f54:    2003        .       MOVS     r0,#3
        0x00002f56:    4621        !F      MOV      r1,r4
        0x00002f58:    4381        .C      BICS     r1,r1,r0
        0x00002f5a:    1988        ..      ADDS     r0,r1,r6
        0x00002f5c:    f7fefc94    ....    BL       FMC_Read ; 0x1888
        0x00002f60:    9002        ..      STR      r0,[sp,#8]
        0x00002f62:    481f        .H      LDR      r0,[pc,#124] ; [0x2fe0] = 0xfffffe00
        0x00002f64:    4020         @      ANDS     r0,r0,r4
        0x00002f66:    21f9        .!      MOVS     r1,#0xf9
        0x00002f68:    0249        I.      LSLS     r1,r1,#9
        0x00002f6a:    462a        *F      MOV      r2,r5
        0x00002f6c:    1845        E.      ADDS     r5,r0,r1
        0x00002f6e:    1987        ..      ADDS     r7,r0,r6
        0x00002f70:    9404        ..      STR      r4,[sp,#0x10]
        0x00002f72:    07a0        ..      LSLS     r0,r4,#30
        0x00002f74:    0ec0        ..      LSRS     r0,r0,#27
        0x00002f76:    4082        .@      LSLS     r2,r2,r0
        0x00002f78:    9203        ..      STR      r2,[sp,#0xc]
        0x00002f7a:    21ff        .!      MOVS     r1,#0xff
        0x00002f7c:    4081        .@      LSLS     r1,r1,r0
        0x00002f7e:    43c8        .C      MVNS     r0,r1
        0x00002f80:    9001        ..      STR      r0,[sp,#4]
        0x00002f82:    ac05        ..      ADD      r4,sp,#0x14
        0x00002f84:    463e        >F      MOV      r6,r7
        0x00002f86:    42ae        .B      CMP      r6,r5
        0x00002f88:    d205        ..      BCS      0x2f96 ; SIM_EEPROM_WRITE + 138
        0x00002f8a:    4630        0F      MOV      r0,r6
        0x00002f8c:    f7fefc7c    ..|.    BL       FMC_Read ; 0x1888
        0x00002f90:    c401        ..      STM      r4!,{r0}
        0x00002f92:    1d36        6.      ADDS     r6,r6,#4
        0x00002f94:    e7f7        ..      B        0x2f86 ; SIM_EEPROM_WRITE + 122
        0x00002f96:    4813        .H      LDR      r0,[pc,#76] ; [0x2fe4] = 0x5000c000
        0x00002f98:    2122        "!      MOVS     r1,#0x22
        0x00002f9a:    60c1        .`      STR      r1,[r0,#0xc]
        0x00002f9c:    6047        G`      STR      r7,[r0,#4]
        0x00002f9e:    2101        .!      MOVS     r1,#1
        0x00002fa0:    6101        .a      STR      r1,[r0,#0x10]
        0x00002fa2:    9c02        ..      LDR      r4,[sp,#8]
        0x00002fa4:    9901        ..      LDR      r1,[sp,#4]
        0x00002fa6:    400c        .@      ANDS     r4,r4,r1
        0x00002fa8:    f3bf8f6f    ..o.    ISB      
        0x00002fac:    6901        .i      LDR      r1,[r0,#0x10]
        0x00002fae:    2900        .)      CMP      r1,#0
        0x00002fb0:    d1fc        ..      BNE      0x2fac ; SIM_EEPROM_WRITE + 160
        0x00002fb2:    9903        ..      LDR      r1,[sp,#0xc]
        0x00002fb4:    430c        .C      ORRS     r4,r4,r1
        0x00002fb6:    6801        .h      LDR      r1,[r0,#0]
        0x00002fb8:    0649        I.      LSLS     r1,r1,#25
        0x00002fba:    9b04        ..      LDR      r3,[sp,#0x10]
        0x00002fbc:    d503        ..      BPL      0x2fc6 ; SIM_EEPROM_WRITE + 186
        0x00002fbe:    6801        .h      LDR      r1,[r0,#0]
        0x00002fc0:    2240        @"      MOVS     r2,#0x40
        0x00002fc2:    430a        .C      ORRS     r2,r2,r1
        0x00002fc4:    6002        .`      STR      r2,[r0,#0]
        0x00002fc6:    207f        .       MOVS     r0,#0x7f
        0x00002fc8:    0080        ..      LSLS     r0,r0,#2
        0x00002fca:    4003        .@      ANDS     r3,r3,r0
        0x00002fcc:    ae05        ..      ADD      r6,sp,#0x14
        0x00002fce:    50f4        .P      STR      r4,[r6,r3]
        0x00002fd0:    42af        .B      CMP      r7,r5
        0x00002fd2:    d2bc        ..      BCS      0x2f4e ; SIM_EEPROM_WRITE + 66
        0x00002fd4:    ce02        ..      LDM      r6!,{r1}
        0x00002fd6:    4638        8F      MOV      r0,r7
        0x00002fd8:    f7fefc88    ....    BL       FMC_Write ; 0x18ec
        0x00002fdc:    1d3f        ?.      ADDS     r7,r7,#4
        0x00002fde:    e7f7        ..      B        0x2fd0 ; SIM_EEPROM_WRITE + 196
    $d.4
    __arm_cp.2_0
        0x00002fe0:    fffffe00    ....    DCD    4294966784
    __arm_cp.2_1
        0x00002fe4:    5000c000    ...P    DCD    1342226432
    $t.6
    SPI_Command
        0x00002fe8:    496d        mI      LDR      r1,[pc,#436] ; [0x31a0] = 0x40030000
        0x00002fea:    2201        ."      MOVS     r2,#1
        0x00002fec:    608a        .`      STR      r2,[r1,#8]
        0x00002fee:    6208        .b      STR      r0,[r1,#0x20]
        0x00002ff0:    6808        .h      LDR      r0,[r1,#0]
        0x00002ff2:    4310        .C      ORRS     r0,r0,r2
        0x00002ff4:    6008        .`      STR      r0,[r1,#0]
        0x00002ff6:    6808        .h      LDR      r0,[r1,#0]
        0x00002ff8:    07c0        ..      LSLS     r0,r0,#31
        0x00002ffa:    d1fc        ..      BNE      0x2ff6 ; SPI_Command + 14
        0x00002ffc:    4770        pG      BX       lr
        0x00002ffe:    46c0        .F      MOV      r8,r8
    SPI_DisableAutoSS
        0x00003000:    6881        .h      LDR      r1,[r0,#8]
        0x00003002:    220b        ."      MOVS     r2,#0xb
        0x00003004:    4391        .C      BICS     r1,r1,r2
        0x00003006:    6081        .`      STR      r1,[r0,#8]
        0x00003008:    4770        pG      BX       lr
    SPI_EnableAutoSS
        0x0000300a:    4311        .C      ORRS     r1,r1,r2
        0x0000300c:    6882        .h      LDR      r2,[r0,#8]
        0x0000300e:    2307        .#      MOVS     r3,#7
        0x00003010:    439a        .C      BICS     r2,r2,r3
        0x00003012:    430a        .C      ORRS     r2,r2,r1
        0x00003014:    2108        .!      MOVS     r1,#8
        0x00003016:    4311        .C      ORRS     r1,r1,r2
        0x00003018:    6081        .`      STR      r1,[r0,#8]
        0x0000301a:    4770        pG      BX       lr
    SPI_Open
        0x0000301c:    b5f8        ..      PUSH     {r3-r7,lr}
        0x0000301e:    460e        .F      MOV      r6,r1
        0x00003020:    4604        .F      MOV      r4,r0
        0x00003022:    2b20         +      CMP      r3,#0x20
        0x00003024:    d001        ..      BEQ      0x302a ; SPI_Open + 14
        0x00003026:    00d8        ..      LSLS     r0,r3,#3
        0x00003028:    e000        ..      B        0x302c ; SPI_Open + 16
        0x0000302a:    2000        .       MOVS     r0,#0
        0x0000302c:    4310        .C      ORRS     r0,r0,r2
        0x0000302e:    4330        0C      ORRS     r0,r0,r6
        0x00003030:    6020         `      STR      r0,[r4,#0]
        0x00003032:    4850        PH      LDR      r0,[pc,#320] ; [0x3174] = 0x7fffffff
        0x00003034:    1c40        @.      ADDS     r0,r0,#1
        0x00003036:    6be1        .k      LDR      r1,[r4,#0x3c]
        0x00003038:    4301        .C      ORRS     r1,r1,r0
        0x0000303a:    63e1        .c      STR      r1,[r4,#0x3c]
        0x0000303c:    4f4e        NO      LDR      r7,[pc,#312] ; [0x3178] = 0x50000214
        0x0000303e:    f7fdfded    ....    BL       CLK_GetHCLKFreq ; 0xc1c
        0x00003042:    4605        .F      MOV      r5,r0
        0x00003044:    2e00        ..      CMP      r6,#0
        0x00003046:    d00d        ..      BEQ      0x3064 ; SPI_Open + 72
        0x00003048:    2110        .!      MOVS     r1,#0x10
        0x0000304a:    60a1        .`      STR      r1,[r4,#8]
        0x0000304c:    6838        8h      LDR      r0,[r7,#0]
        0x0000304e:    4a54        TJ      LDR      r2,[pc,#336] ; [0x31a0] = 0x40030000
        0x00003050:    4294        .B      CMP      r4,r2
        0x00003052:    d01b        ..      BEQ      0x308c ; SPI_Open + 112
        0x00003054:    4949        II      LDR      r1,[pc,#292] ; [0x317c] = 0x40130000
        0x00003056:    428c        .B      CMP      r4,r1
        0x00003058:    d015        ..      BEQ      0x3086 ; SPI_Open + 106
        0x0000305a:    4949        II      LDR      r1,[pc,#292] ; [0x3180] = 0x40034000
        0x0000305c:    428c        .B      CMP      r4,r1
        0x0000305e:    d114        ..      BNE      0x308a ; SPI_Open + 110
        0x00003060:    2120         !      MOVS     r1,#0x20
        0x00003062:    e013        ..      B        0x308c ; SPI_Open + 112
        0x00003064:    9f06        ..      LDR      r7,[sp,#0x18]
        0x00003066:    2600        .&      MOVS     r6,#0
        0x00003068:    60a6        .`      STR      r6,[r4,#8]
        0x0000306a:    484d        MH      LDR      r0,[pc,#308] ; [0x31a0] = 0x40030000
        0x0000306c:    4284        .B      CMP      r4,r0
        0x0000306e:    d012        ..      BEQ      0x3096 ; SPI_Open + 122
        0x00003070:    4841        AH      LDR      r0,[pc,#260] ; [0x3178] = 0x50000214
        0x00003072:    6800        .h      LDR      r0,[r0,#0]
        0x00003074:    4941        AI      LDR      r1,[pc,#260] ; [0x317c] = 0x40130000
        0x00003076:    428c        .B      CMP      r4,r1
        0x00003078:    4b3e        >K      LDR      r3,[pc,#248] ; [0x3174] = 0x7fffffff
        0x0000307a:    d013        ..      BEQ      0x30a4 ; SPI_Open + 136
        0x0000307c:    4940        @I      LDR      r1,[pc,#256] ; [0x3180] = 0x40034000
        0x0000307e:    428c        .B      CMP      r4,r1
        0x00003080:    d112        ..      BNE      0x30a8 ; SPI_Open + 140
        0x00003082:    0680        ..      LSLS     r0,r0,#26
        0x00003084:    e011        ..      B        0x30aa ; SPI_Open + 142
        0x00003086:    2140        @!      MOVS     r1,#0x40
        0x00003088:    e000        ..      B        0x308c ; SPI_Open + 112
        0x0000308a:    2180        .!      MOVS     r1,#0x80
        0x0000308c:    4308        .C      ORRS     r0,r0,r1
        0x0000308e:    6038        8`      STR      r0,[r7,#0]
        0x00003090:    2000        .       MOVS     r0,#0
        0x00003092:    6060        ``      STR      r0,[r4,#4]
        0x00003094:    e06b        k.      B        0x316e ; SPI_Open + 338
        0x00003096:    4838        8H      LDR      r0,[pc,#224] ; [0x3178] = 0x50000214
        0x00003098:    6800        .h      LDR      r0,[r0,#0]
        0x0000309a:    06c0        ..      LSLS     r0,r0,#27
        0x0000309c:    462a        *F      MOV      r2,r5
        0x0000309e:    4b35        5K      LDR      r3,[pc,#212] ; [0x3174] = 0x7fffffff
        0x000030a0:    d505        ..      BPL      0x30ae ; SPI_Open + 146
        0x000030a2:    e008        ..      B        0x30b6 ; SPI_Open + 154
        0x000030a4:    0640        @.      LSLS     r0,r0,#25
        0x000030a6:    e000        ..      B        0x30aa ; SPI_Open + 142
        0x000030a8:    0600        ..      LSLS     r0,r0,#24
        0x000030aa:    462a        *F      MOV      r2,r5
        0x000030ac:    d403        ..      BMI      0x30b6 ; SPI_Open + 154
        0x000030ae:    f7fdfdbd    ....    BL       CLK_GetPLLClockFreq ; 0xc2c
        0x000030b2:    4b30        0K      LDR      r3,[pc,#192] ; [0x3174] = 0x7fffffff
        0x000030b4:    4602        .F      MOV      r2,r0
        0x000030b6:    42bd        .B      CMP      r5,r7
        0x000030b8:    d92d        -.      BLS      0x3116 ; SPI_Open + 250
        0x000030ba:    42ba        .B      CMP      r2,r7
        0x000030bc:    d938        8.      BLS      0x3130 ; SPI_Open + 276
        0x000030be:    2f00        ./      CMP      r7,#0
        0x000030c0:    d043        C.      BEQ      0x314a ; SPI_Open + 302
        0x000030c2:    260a        .&      MOVS     r6,#0xa
        0x000030c4:    4635        5F      MOV      r5,r6
        0x000030c6:    4355        UC      MULS     r5,r2,r5
        0x000030c8:    4628        (F      MOV      r0,r5
        0x000030ca:    4639        9F      MOV      r1,r7
        0x000030cc:    9200        ..      STR      r2,[sp,#0]
        0x000030ce:    f7fdfa65    ..e.    BL       __aeabi_uidiv ; 0x59c
        0x000030d2:    1d40        @.      ADDS     r0,r0,#5
        0x000030d4:    4631        1F      MOV      r1,r6
        0x000030d6:    f7fdfa61    ..a.    BL       __aeabi_uidiv ; 0x59c
        0x000030da:    4601        .F      MOV      r1,r0
        0x000030dc:    1e40        @.      SUBS     r0,r0,#1
        0x000030de:    0a02        ..      LSRS     r2,r0,#8
        0x000030e0:    d03c        <.      BEQ      0x315c ; SPI_Open + 320
        0x000030e2:    9e00        ..      LDR      r6,[sp,#0]
        0x000030e4:    6be0        .k      LDR      r0,[r4,#0x3c]
        0x000030e6:    4923        #I      LDR      r1,[pc,#140] ; [0x3174] = 0x7fffffff
        0x000030e8:    4008        .@      ANDS     r0,r0,r1
        0x000030ea:    63e0        .c      STR      r0,[r4,#0x3c]
        0x000030ec:    0079        y.      LSLS     r1,r7,#1
        0x000030ee:    4628        (F      MOV      r0,r5
        0x000030f0:    f7fdfa54    ..T.    BL       __aeabi_uidiv ; 0x59c
        0x000030f4:    1d40        @.      ADDS     r0,r0,#5
        0x000030f6:    210a        .!      MOVS     r1,#0xa
        0x000030f8:    f7fdfa50    ..P.    BL       __aeabi_uidiv ; 0x59c
        0x000030fc:    6861        ah      LDR      r1,[r4,#4]
        0x000030fe:    22ff        ."      MOVS     r2,#0xff
        0x00003100:    4391        .C      BICS     r1,r1,r2
        0x00003102:    1e40        @.      SUBS     r0,r0,#1
        0x00003104:    28ff        .(      CMP      r0,#0xff
        0x00003106:    d300        ..      BCC      0x310a ; SPI_Open + 238
        0x00003108:    4610        .F      MOV      r0,r2
        0x0000310a:    4301        .C      ORRS     r1,r1,r0
        0x0000310c:    6061        a`      STR      r1,[r4,#4]
        0x0000310e:    0040        @.      LSLS     r0,r0,#1
        0x00003110:    1c81        ..      ADDS     r1,r0,#2
        0x00003112:    4630        0F      MOV      r0,r6
        0x00003114:    e028        (.      B        0x3168 ; SPI_Open + 332
        0x00003116:    4822        "H      LDR      r0,[pc,#136] ; [0x31a0] = 0x40030000
        0x00003118:    4a17        .J      LDR      r2,[pc,#92] ; [0x3178] = 0x50000214
        0x0000311a:    4284        .B      CMP      r4,r0
        0x0000311c:    d00b        ..      BEQ      0x3136 ; SPI_Open + 282
        0x0000311e:    6810        .h      LDR      r0,[r2,#0]
        0x00003120:    4916        .I      LDR      r1,[pc,#88] ; [0x317c] = 0x40130000
        0x00003122:    428c        .B      CMP      r4,r1
        0x00003124:    d00a        ..      BEQ      0x313c ; SPI_Open + 288
        0x00003126:    4916        .I      LDR      r1,[pc,#88] ; [0x3180] = 0x40034000
        0x00003128:    428c        .B      CMP      r4,r1
        0x0000312a:    d109        ..      BNE      0x3140 ; SPI_Open + 292
        0x0000312c:    2120         !      MOVS     r1,#0x20
        0x0000312e:    e008        ..      B        0x3142 ; SPI_Open + 294
        0x00003130:    6066        f`      STR      r6,[r4,#4]
        0x00003132:    4615        .F      MOV      r5,r2
        0x00003134:    e01b        ..      B        0x316e ; SPI_Open + 338
        0x00003136:    6811        .h      LDR      r1,[r2,#0]
        0x00003138:    2010        .       MOVS     r0,#0x10
        0x0000313a:    e002        ..      B        0x3142 ; SPI_Open + 294
        0x0000313c:    2140        @!      MOVS     r1,#0x40
        0x0000313e:    e000        ..      B        0x3142 ; SPI_Open + 294
        0x00003140:    2180        .!      MOVS     r1,#0x80
        0x00003142:    4308        .C      ORRS     r0,r0,r1
        0x00003144:    6010        .`      STR      r0,[r2,#0]
        0x00003146:    6066        f`      STR      r6,[r4,#4]
        0x00003148:    e011        ..      B        0x316e ; SPI_Open + 338
        0x0000314a:    6be0        .k      LDR      r0,[r4,#0x3c]
        0x0000314c:    4018        .@      ANDS     r0,r0,r3
        0x0000314e:    63e0        .c      STR      r0,[r4,#0x3c]
        0x00003150:    6860        `h      LDR      r0,[r4,#4]
        0x00003152:    21ff        .!      MOVS     r1,#0xff
        0x00003154:    4301        .C      ORRS     r1,r1,r0
        0x00003156:    6061        a`      STR      r1,[r4,#4]
        0x00003158:    0a55        U.      LSRS     r5,r2,#9
        0x0000315a:    e008        ..      B        0x316e ; SPI_Open + 338
        0x0000315c:    6862        bh      LDR      r2,[r4,#4]
        0x0000315e:    23ff        .#      MOVS     r3,#0xff
        0x00003160:    439a        .C      BICS     r2,r2,r3
        0x00003162:    4302        .C      ORRS     r2,r2,r0
        0x00003164:    6062        b`      STR      r2,[r4,#4]
        0x00003166:    9800        ..      LDR      r0,[sp,#0]
        0x00003168:    f7fdfa18    ....    BL       __aeabi_uidiv ; 0x59c
        0x0000316c:    4605        .F      MOV      r5,r0
        0x0000316e:    4628        (F      MOV      r0,r5
        0x00003170:    bdf8        ..      POP      {r3-r7,pc}
        0x00003172:    46c0        .F      MOV      r8,r8
    $d.1
    __arm_cp.0_0
        0x00003174:    7fffffff    ....    DCD    2147483647
    __arm_cp.0_1
        0x00003178:    50000214    ...P    DCD    1342177812
    __arm_cp.0_3
        0x0000317c:    40130000    ...@    DCD    1074987008
    __arm_cp.0_4
        0x00003180:    40034000    .@.@    DCD    1073954816
    $t.8
    SPI_Readbyte
        0x00003184:    4806        .H      LDR      r0,[pc,#24] ; [0x31a0] = 0x40030000
        0x00003186:    2101        .!      MOVS     r1,#1
        0x00003188:    6081        .`      STR      r1,[r0,#8]
        0x0000318a:    2200        ."      MOVS     r2,#0
        0x0000318c:    6202        .b      STR      r2,[r0,#0x20]
        0x0000318e:    6802        .h      LDR      r2,[r0,#0]
        0x00003190:    430a        .C      ORRS     r2,r2,r1
        0x00003192:    6002        .`      STR      r2,[r0,#0]
        0x00003194:    6801        .h      LDR      r1,[r0,#0]
        0x00003196:    07c9        ..      LSLS     r1,r1,#31
        0x00003198:    d1fc        ..      BNE      0x3194 ; SPI_Readbyte + 16
        0x0000319a:    6900        .i      LDR      r0,[r0,#0x10]
        0x0000319c:    b2c0        ..      UXTB     r0,r0
        0x0000319e:    4770        pG      BX       lr
    $d.9
    __arm_cp.4_0
        0x000031a0:    40030000    ...@    DCD    1073938432
    $t.48
    SX1276CheckLoRaConfigError
        0x000031a4:    b580        ..      PUSH     {r7,lr}
        0x000031a6:    f000feab    ....    BL       SX1276LoRaGetRFFrequency ; 0x3f00
        0x000031aa:    f000fec7    ....    BL       SX1276LoRaGetRFPower ; 0x3f3c
        0x000031ae:    f000fef9    ....    BL       SX1276LoRaGetSignalBandwidth ; 0x3fa4
        0x000031b2:    f000ff05    ....    BL       SX1276LoRaGetSpreadingFactor ; 0x3fc0
        0x000031b6:    f000fe73    ..s.    BL       SX1276LoRaGetErrorCoding ; 0x3ea0
        0x000031ba:    f000fe7f    ....    BL       SX1276LoRaGetPacketCrcOn ; 0x3ebc
        0x000031be:    f000fe91    ....    BL       SX1276LoRaGetPayloadLength ; 0x3ee4
        0x000031c2:    4904        .I      LDR      r1,[pc,#16] ; [0x31d4] = 0x20000058
        0x000031c4:    7f09        ..      LDRB     r1,[r1,#0x1c]
        0x000031c6:    4288        .B      CMP      r0,r1
        0x000031c8:    d001        ..      BEQ      0x31ce ; SX1276CheckLoRaConfigError + 42
        0x000031ca:    2007        .       MOVS     r0,#7
        0x000031cc:    bd80        ..      POP      {r7,pc}
        0x000031ce:    2000        .       MOVS     r0,#0
        0x000031d0:    bd80        ..      POP      {r7,pc}
        0x000031d2:    46c0        .F      MOV      r8,r8
    $d.49
    __arm_cp.23_0
        0x000031d4:    20000058    X..     DCD    536871000
    $t.26
    SX1276FskGetPacketCrcOn
        0x000031d8:    b5b0        ..      PUSH     {r4,r5,r7,lr}
        0x000031da:    4d2c        ,M      LDR      r5,[pc,#176] ; [0x328c] = 0x200003c4
        0x000031dc:    6829        )h      LDR      r1,[r5,#0]
        0x000031de:    3130        01      ADDS     r1,r1,#0x30
        0x000031e0:    2430        0$      MOVS     r4,#0x30
        0x000031e2:    4620         F      MOV      r0,r4
        0x000031e4:    f001fb36    ..6.    BL       SX1276Read ; 0x4854
        0x000031e8:    6828        (h      LDR      r0,[r5,#0]
        0x000031ea:    5d00        .]      LDRB     r0,[r0,r4]
        0x000031ec:    06c0        ..      LSLS     r0,r0,#27
        0x000031ee:    0fc0        ..      LSRS     r0,r0,#31
        0x000031f0:    4941        AI      LDR      r1,[pc,#260] ; [0x32f8] = 0x2000003c
        0x000031f2:    7608        .v      STRB     r0,[r1,#0x18]
        0x000031f4:    bdb0        ..      POP      {r4,r5,r7,pc}
        0x000031f6:    46c0        .F      MOV      r8,r8
    SX1276FskGetPacketPayloadSize
        0x000031f8:    488f        .H      LDR      r0,[pc,#572] ; [0x3438] = 0x200003b8
        0x000031fa:    68c2        .h      LDR      r2,[r0,#0xc]
        0x000031fc:    4610        .F      MOV      r0,r2
        0x000031fe:    3027        '0      ADDS     r0,r0,#0x27
        0x00003200:    7ac1        .z      LDRB     r1,[r0,#0xb]
        0x00003202:    7a40        @z      LDRB     r0,[r0,#9]
        0x00003204:    0743        C.      LSLS     r3,r0,#29
        0x00003206:    0f9b        ..      LSRS     r3,r3,#30
        0x00003208:    d000        ..      BEQ      0x320c ; SX1276FskGetPacketPayloadSize + 20
        0x0000320a:    1c49        I.      ADDS     r1,r1,#1
        0x0000320c:    2327        '#      MOVS     r3,#0x27
        0x0000320e:    5cd2        .\      LDRB     r2,[r2,r3]
        0x00003210:    2307        .#      MOVS     r3,#7
        0x00003212:    4013        .@      ANDS     r3,r3,r2
        0x00003214:    09c2        ..      LSRS     r2,r0,#7
        0x00003216:    189a        ..      ADDS     r2,r3,r2
        0x00003218:    1851        Q.      ADDS     r1,r2,r1
        0x0000321a:    08c0        ..      LSRS     r0,r0,#3
        0x0000321c:    2202        ."      MOVS     r2,#2
        0x0000321e:    4002        .@      ANDS     r2,r2,r0
        0x00003220:    1888        ..      ADDS     r0,r1,r2
        0x00003222:    1c40        @.      ADDS     r0,r0,#1
        0x00003224:    4770        pG      BX       lr
        0x00003226:    46c0        .F      MOV      r8,r8
    SX1276FskGetPacketRssi
        0x00003228:    4983        .I      LDR      r1,[pc,#524] ; [0x3438] = 0x200003b8
        0x0000322a:    6a88        .j      LDR      r0,[r1,#0x28]
        0x0000322c:    6ac9        .j      LDR      r1,[r1,#0x2c]
        0x0000322e:    4770        pG      BX       lr
    SX1276FskGetPreambleSize
        0x00003230:    b5b0        ..      PUSH     {r4,r5,r7,lr}
        0x00003232:    4d16        .M      LDR      r5,[pc,#88] ; [0x328c] = 0x200003c4
        0x00003234:    6829        )h      LDR      r1,[r5,#0]
        0x00003236:    3125        %1      ADDS     r1,r1,#0x25
        0x00003238:    2425        %$      MOVS     r4,#0x25
        0x0000323a:    2202        ."      MOVS     r2,#2
        0x0000323c:    4620         F      MOV      r0,r4
        0x0000323e:    f001fb0f    ....    BL       SX1276ReadBuffer ; 0x4860
        0x00003242:    6828        (h      LDR      r0,[r5,#0]
        0x00003244:    5d01        .]      LDRB     r1,[r0,r4]
        0x00003246:    0209        ..      LSLS     r1,r1,#8
        0x00003248:    3025        %0      ADDS     r0,r0,#0x25
        0x0000324a:    7840        @x      LDRB     r0,[r0,#1]
        0x0000324c:    1808        ..      ADDS     r0,r1,r0
        0x0000324e:    b280        ..      UXTH     r0,r0
        0x00003250:    bdb0        ..      POP      {r4,r5,r7,pc}
        0x00003252:    46c0        .F      MOV      r8,r8
    SX1276FskGetRFFrequency
        0x00003254:    b510        ..      PUSH     {r4,lr}
        0x00003256:    4c0d        .L      LDR      r4,[pc,#52] ; [0x328c] = 0x200003c4
        0x00003258:    6820         h      LDR      r0,[r4,#0]
        0x0000325a:    1d81        ..      ADDS     r1,r0,#6
        0x0000325c:    2006        .       MOVS     r0,#6
        0x0000325e:    2203        ."      MOVS     r2,#3
        0x00003260:    f001fafe    ....    BL       SX1276ReadBuffer ; 0x4860
        0x00003264:    6820         h      LDR      r0,[r4,#0]
        0x00003266:    7981        .y      LDRB     r1,[r0,#6]
        0x00003268:    0409        ..      LSLS     r1,r1,#16
        0x0000326a:    79c2        .y      LDRB     r2,[r0,#7]
        0x0000326c:    0212        ..      LSLS     r2,r2,#8
        0x0000326e:    1851        Q.      ADDS     r1,r2,r1
        0x00003270:    7a00        .z      LDRB     r0,[r0,#8]
        0x00003272:    1808        ..      ADDS     r0,r1,r0
        0x00003274:    f7fdf942    ..B.    BL       __aeabi_ui2d ; 0x4fc
        0x00003278:    2200        ."      MOVS     r2,#0
        0x0000327a:    4b05        .K      LDR      r3,[pc,#20] ; [0x3290] = 0x404e8480
        0x0000327c:    f7fdf834    ..4.    BL       __aeabi_dmul ; 0x2e8
        0x00003280:    f7fdf96e    ..n.    BL       __aeabi_d2uiz ; 0x560
        0x00003284:    491c        .I      LDR      r1,[pc,#112] ; [0x32f8] = 0x2000003c
        0x00003286:    6008        .`      STR      r0,[r1,#0]
        0x00003288:    bd10        ..      POP      {r4,pc}
        0x0000328a:    46c0        .F      MOV      r8,r8
    $d.5
    __arm_cp.2_0
        0x0000328c:    200003c4    ...     DCD    536871876
    __arm_cp.2_1
        0x00003290:    404e8480    ..N@    DCD    1078887552
    $t.32
    SX1276FskGetRxPacket
        0x00003294:    b580        ..      PUSH     {r7,lr}
        0x00003296:    4968        hI      LDR      r1,[pc,#416] ; [0x3438] = 0x200003b8
        0x00003298:    890a        ..      LDRH     r2,[r1,#8]
        0x0000329a:    2300        .#      MOVS     r3,#0
        0x0000329c:    810b        ..      STRH     r3,[r1,#8]
        0x0000329e:    4902        .I      LDR      r1,[pc,#8] ; [0x32a8] = 0x20000438
        0x000032a0:    f7fcff3e    ..>.    BL       __aeabi_memcpy ; 0x120
        0x000032a4:    bd80        ..      POP      {r7,pc}
        0x000032a6:    46c0        .F      MOV      r8,r8
    $d.33
    __arm_cp.16_1
        0x000032a8:    20000438    8..     DCD    536871992
    $t.0
    SX1276FskGetTimeOnAir
        0x000032ac:    b570        p.      PUSH     {r4-r6,lr}
        0x000032ae:    f7ffffa3    ....    BL       SX1276FskGetPacketPayloadSize ; 0x31f8
        0x000032b2:    f7fdf923    ..#.    BL       __aeabi_ui2d ; 0x4fc
        0x000032b6:    2400        .$      MOVS     r4,#0
        0x000032b8:    4b0e        .K      LDR      r3,[pc,#56] ; [0x32f4] = 0x40200000
        0x000032ba:    4622        "F      MOV      r2,r4
        0x000032bc:    f7fdf814    ....    BL       __aeabi_dmul ; 0x2e8
        0x000032c0:    4605        .F      MOV      r5,r0
        0x000032c2:    460e        .F      MOV      r6,r1
        0x000032c4:    480c        .H      LDR      r0,[pc,#48] ; [0x32f8] = 0x2000003c
        0x000032c6:    6840        @h      LDR      r0,[r0,#4]
        0x000032c8:    f7fdf918    ....    BL       __aeabi_ui2d ; 0x4fc
        0x000032cc:    4602        .F      MOV      r2,r0
        0x000032ce:    460b        .F      MOV      r3,r1
        0x000032d0:    4628        (F      MOV      r0,r5
        0x000032d2:    4631        1F      MOV      r1,r6
        0x000032d4:    f7fdf870    ..p.    BL       __aeabi_ddiv ; 0x3b8
        0x000032d8:    4b08        .K      LDR      r3,[pc,#32] ; [0x32fc] = 0x408f4000
        0x000032da:    4622        "F      MOV      r2,r4
        0x000032dc:    f7fdf804    ....    BL       __aeabi_dmul ; 0x2e8
        0x000032e0:    f003ffba    ....    BL       round ; 0x7258
        0x000032e4:    4b06        .K      LDR      r3,[pc,#24] ; [0x3300] = 0x3ff00000
        0x000032e6:    4622        "F      MOV      r2,r4
        0x000032e8:    f7fcff4c    ..L.    BL       __aeabi_dadd ; 0x184
        0x000032ec:    f7fdf914    ....    BL       __aeabi_d2iz ; 0x518
        0x000032f0:    bd70        p.      POP      {r4-r6,pc}
        0x000032f2:    46c0        .F      MOV      r8,r8
    $d.1
    __arm_cp.0_0
        0x000032f4:    40200000    .. @    DCD    1075838976
    __arm_cp.0_1
        0x000032f8:    2000003c    <..     DCD    536870972
    __arm_cp.0_2
        0x000032fc:    408f4000    .@.@    DCD    1083129856
    __arm_cp.0_3
        0x00003300:    3ff00000    ...?    DCD    1072693248
    $t.0
    SX1276FskGetVersion
        0x00003304:    b5b0        ..      PUSH     {r4,r5,r7,lr}
        0x00003306:    4d4c        LM      LDR      r5,[pc,#304] ; [0x3438] = 0x200003b8
        0x00003308:    68e9        .h      LDR      r1,[r5,#0xc]
        0x0000330a:    3142        B1      ADDS     r1,r1,#0x42
        0x0000330c:    2442        B$      MOVS     r4,#0x42
        0x0000330e:    4620         F      MOV      r0,r4
        0x00003310:    f001faa0    ....    BL       SX1276Read ; 0x4854
        0x00003314:    68e8        .h      LDR      r0,[r5,#0xc]
        0x00003316:    5d00        .]      LDRB     r0,[r0,r4]
        0x00003318:    bdb0        ..      POP      {r4,r5,r7,pc}
        0x0000331a:    46c0        .F      MOV      r8,r8
    SX1276FskInit
        0x0000331c:    b5f0        ..      PUSH     {r4-r7,lr}
        0x0000331e:    b085        ..      SUB      sp,sp,#0x14
        0x00003320:    4f45        EO      LDR      r7,[pc,#276] ; [0x3438] = 0x200003b8
        0x00003322:    2500        .%      MOVS     r5,#0
        0x00003324:    703d        =p      STRB     r5,[r7,#0]
        0x00003326:    f000fb99    ....    BL       SX1276FskSetDefaults ; 0x3a5c
        0x0000332a:    4844        DH      LDR      r0,[pc,#272] ; [0x343c] = 0x20000261
        0x0000332c:    1c41        A.      ADDS     r1,r0,#1
        0x0000332e:    2401        .$      MOVS     r4,#1
        0x00003330:    226f        o"      MOVS     r2,#0x6f
        0x00003332:    4620         F      MOV      r0,r4
        0x00003334:    9103        ..      STR      r1,[sp,#0xc]
        0x00003336:    9202        ..      STR      r2,[sp,#8]
        0x00003338:    f001fa92    ....    BL       SX1276ReadBuffer ; 0x4860
        0x0000333c:    68f8        .h      LDR      r0,[r7,#0xc]
        0x0000333e:    7045        Ep      STRB     r5,[r0,#1]
        0x00003340:    4e3f        ?N      LDR      r6,[pc,#252] ; [0x3440] = 0x49cd
        0x00003342:    9404        ..      STR      r4,[sp,#0x10]
        0x00003344:    4620         F      MOV      r0,r4
        0x00003346:    463c        <F      MOV      r4,r7
        0x00003348:    4629        )F      MOV      r1,r5
        0x0000334a:    47b0        .G      BLX      r6
        0x0000334c:    68f8        .h      LDR      r0,[r7,#0xc]
        0x0000334e:    2720         '      MOVS     r7,#0x20
        0x00003350:    7287        .r      STRB     r7,[r0,#0xa]
        0x00003352:    200a        .       MOVS     r0,#0xa
        0x00003354:    4639        9F      MOV      r1,r7
        0x00003356:    47b0        .G      BLX      r6
        0x00003358:    68e0        .h      LDR      r0,[r4,#0xc]
        0x0000335a:    7307        .s      STRB     r7,[r0,#0xc]
        0x0000335c:    200c        .       MOVS     r0,#0xc
        0x0000335e:    4639        9F      MOV      r1,r7
        0x00003360:    47b0        .G      BLX      r6
        0x00003362:    68e0        .h      LDR      r0,[r4,#0xc]
        0x00003364:    2126        &!      MOVS     r1,#0x26
        0x00003366:    2208        ."      MOVS     r2,#8
        0x00003368:    5442        BT      STRB     r2,[r0,r1]
        0x0000336a:    21aa        .!      MOVS     r1,#0xaa
        0x0000336c:    77c1        .w      STRB     r1,[r0,#0x1f]
        0x0000336e:    21ff        .!      MOVS     r1,#0xff
        0x00003370:    7401        .t      STRB     r1,[r0,#0x10]
        0x00003372:    4f34        4O      LDR      r7,[pc,#208] ; [0x3444] = 0x20000038
        0x00003374:    7f79        y.      LDRB     r1,[r7,#0x1d]
        0x00003376:    220e        ."      MOVS     r2,#0xe
        0x00003378:    2901        .)      CMP      r1,#1
        0x0000337a:    9201        ..      STR      r2,[sp,#4]
        0x0000337c:    d001        ..      BEQ      0x3382 ; SX1276FskInit + 102
        0x0000337e:    4611        .F      MOV      r1,r2
        0x00003380:    e000        ..      B        0x3384 ; SX1276FskInit + 104
        0x00003382:    211e        .!      MOVS     r1,#0x1e
        0x00003384:    7341        As      STRB     r1,[r0,#0xd]
        0x00003386:    3026        &0      ADDS     r0,r0,#0x26
        0x00003388:    2196        .!      MOVS     r1,#0x96
        0x0000338a:    7141        Aq      STRB     r1,[r0,#5]
        0x0000338c:    217e        ~!      MOVS     r1,#0x7e
        0x0000338e:    7101        .q      STRB     r1,[r0,#4]
        0x00003390:    2181        .!      MOVS     r1,#0x81
        0x00003392:    70c1        .p      STRB     r1,[r0,#3]
        0x00003394:    2169        i!      MOVS     r1,#0x69
        0x00003396:    7081        .p      STRB     r1,[r0,#2]
        0x00003398:    2193        .!      MOVS     r1,#0x93
        0x0000339a:    7041        Ap      STRB     r1,[r0,#1]
        0x0000339c:    7f39        9.      LDRB     r1,[r7,#0x1c]
        0x0000339e:    0109        ..      LSLS     r1,r1,#4
        0x000033a0:    2280        ."      MOVS     r2,#0x80
        0x000033a2:    430a        .C      ORRS     r2,r2,r1
        0x000033a4:    7282        .r      STRB     r2,[r0,#0xa]
        0x000033a6:    f7ffff17    ....    BL       SX1276FskGetPacketCrcOn ; 0x31d8
        0x000033aa:    68e0        .h      LDR      r0,[r4,#0xc]
        0x000033ac:    7fb9        ..      LDRB     r1,[r7,#0x1e]
        0x000033ae:    2232        2"      MOVS     r2,#0x32
        0x000033b0:    5481        .T      STRB     r1,[r0,r2]
        0x000033b2:    9e04        ..      LDR      r6,[sp,#0x10]
        0x000033b4:    4630        0F      MOV      r0,r6
        0x000033b6:    9903        ..      LDR      r1,[sp,#0xc]
        0x000033b8:    9a02        ..      LDR      r2,[sp,#8]
        0x000033ba:    f001fb0f    ....    BL       SX1276WriteBuffer ; 0x49dc
        0x000033be:    6878        xh      LDR      r0,[r7,#4]
        0x000033c0:    f000fc06    ....    BL       SX1276FskSetRFFrequency ; 0x3bd0
        0x000033c4:    68b8        .h      LDR      r0,[r7,#8]
        0x000033c6:    f000fa93    ....    BL       SX1276FskSetBitrate ; 0x38f0
        0x000033ca:    68f8        .h      LDR      r0,[r7,#0xc]
        0x000033cc:    f000fb50    ..P.    BL       SX1276FskSetFdev ; 0x3a70
        0x000033d0:    697a        zi      LDR      r2,[r7,#0x14]
        0x000033d2:    68e0        .h      LDR      r0,[r4,#0xc]
        0x000033d4:    3012        .0      ADDS     r0,r0,#0x12
        0x000033d6:    4629        )F      MOV      r1,r5
        0x000033d8:    f000faa2    ....    BL       SX1276FskSetDccBw ; 0x3920
        0x000033dc:    69ba        .i      LDR      r2,[r7,#0x18]
        0x000033de:    68e0        .h      LDR      r0,[r4,#0xc]
        0x000033e0:    3013        .0      ADDS     r0,r0,#0x13
        0x000033e2:    4629        )F      MOV      r1,r5
        0x000033e4:    f000fa9c    ....    BL       SX1276FskSetDccBw ; 0x3920
        0x000033e8:    4628        (F      MOV      r0,r5
        0x000033ea:    f000fc51    ..Q.    BL       SX1276FskSetRssiOffset ; 0x3c90
        0x000033ee:    4628        (F      MOV      r0,r5
        0x000033f0:    f000fbb4    ....    BL       SX1276FskSetPaRamp ; 0x3b5c
        0x000033f4:    7ff8        ..      LDRB     r0,[r7,#0x1f]
        0x000033f6:    f000fbd3    ....    BL       SX1276FskSetPreambleSize ; 0x3ba0
        0x000033fa:    f7ffff19    ....    BL       SX1276FskGetPreambleSize ; 0x3230
        0x000033fe:    80e0        ..      STRH     r0,[r4,#6]
        0x00003400:    687c        |h      LDR      r4,[r7,#4]
        0x00003402:    4811        .H      LDR      r0,[pc,#68] ; [0x3448] = 0x33428f01
        0x00003404:    4284        .B      CMP      r4,r0
        0x00003406:    d300        ..      BCC      0x340a ; SX1276FskInit + 238
        0x00003408:    462e        .F      MOV      r6,r5
        0x0000340a:    01f0        ..      LSLS     r0,r6,#7
        0x0000340c:    f000fb72    ..r.    BL       SX1276FskSetPAOutput ; 0x3af4
        0x00003410:    4630        0F      MOV      r0,r6
        0x00003412:    f000fb83    ....    BL       SX1276FskSetPa20dBm ; 0x3b1c
        0x00003416:    480c        .H      LDR      r0,[pc,#48] ; [0x3448] = 0x33428f01
        0x00003418:    4284        .B      CMP      r4,r0
        0x0000341a:    d301        ..      BCC      0x3420 ; SX1276FskInit + 260
        0x0000341c:    9801        ..      LDR      r0,[sp,#4]
        0x0000341e:    e000        ..      B        0x3422 ; SX1276FskInit + 262
        0x00003420:    2014        .       MOVS     r0,#0x14
        0x00003422:    7438        8t      STRB     r0,[r7,#0x10]
        0x00003424:    f000fbf0    ....    BL       SX1276FskSetRFPower ; 0x3c08
        0x00003428:    9804        ..      LDR      r0,[sp,#0x10]
        0x0000342a:    f000fb47    ..G.    BL       SX1276FskSetOpMode ; 0x3abc
        0x0000342e:    f000fa25    ..%.    BL       SX1276FskRxCalibrate ; 0x387c
        0x00003432:    b005        ..      ADD      sp,sp,#0x14
        0x00003434:    bdf0        ..      POP      {r4-r7,pc}
        0x00003436:    46c0        .F      MOV      r8,r8
    $d.7
    __arm_cp.3_0
        0x00003438:    200003b8    ...     DCD    536871864
    __arm_cp.3_1
        0x0000343c:    20000261    a..     DCD    536871521
    __arm_cp.3_2
        0x00003440:    000049cd    .I..    DCD    18893
    __arm_cp.3_3
        0x00003444:    20000038    8..     DCD    536870968
    __arm_cp.3_4
        0x00003448:    33428f01    ..B3    DCD    860000001
    $t.42
    SX1276FskProcess
        0x0000344c:    b5f8        ..      PUSH     {r3-r7,lr}
        0x0000344e:    4ffb        .O      LDR      r7,[pc,#1004] ; [0x383c] = 0x200003b8
        0x00003450:    7838        8x      LDRB     r0,[r7,#0]
        0x00003452:    1e40        @.      SUBS     r0,r0,#1
        0x00003454:    2401        .$      MOVS     r4,#1
        0x00003456:    280a        .(      CMP      r0,#0xa
        0x00003458:    d900        ..      BLS      0x345c ; SX1276FskProcess + 16
        0x0000345a:    e1b0        ..      B        0x37be ; SX1276FskProcess + 882
        0x0000345c:    4478        xD      ADD      r0,r0,pc
        0x0000345e:    7900        .y      LDRB     r0,[r0,#4]
        0x00003460:    0040        @.      LSLS     r0,r0,#1
        0x00003462:    4487        .D      ADD      pc,pc,r0
    $d.43
        0x00003464:    2b235d05    .]#+    DCD    723737861
        0x00003468:    31c2b411    ...1    DCD    834843665
        0x0000346c:    00d91fdd    ....    DCD    14229469
    $t.44
        0x00003470:    68f8        .h      LDR      r0,[r7,#0xc]
        0x00003472:    4601        .F      MOV      r1,r0
        0x00003474:    3130        01      ADDS     r1,r1,#0x30
        0x00003476:    22e1        ."      MOVS     r2,#0xe1
        0x00003478:    744a        Jt      STRB     r2,[r1,#0x11]
        0x0000347a:    2230        0"      MOVS     r2,#0x30
        0x0000347c:    5c80        .\      LDRB     r0,[r0,r2]
        0x0000347e:    06c0        ..      LSLS     r0,r0,#27
        0x00003480:    d400        ..      BMI      0x3484 ; SX1276FskProcess + 56
        0x00003482:    e0f4        ..      B        0x366e ; SX1276FskProcess + 546
        0x00003484:    204c        L       MOVS     r0,#0x4c
        0x00003486:    e0f3        ..      B        0x3670 ; SX1276FskProcess + 548
        0x00003488:    2000        .       MOVS     r0,#0
        0x0000348a:    8138        8.      STRH     r0,[r7,#8]
        0x0000348c:    7138        8q      STRB     r0,[r7,#4]
        0x0000348e:    68f8        .h      LDR      r0,[r7,#0xc]
        0x00003490:    7b40        @{      LDRB     r0,[r0,#0xd]
        0x00003492:    2120         !      MOVS     r1,#0x20
        0x00003494:    4301        .C      ORRS     r1,r1,r0
        0x00003496:    200d        .       MOVS     r0,#0xd
        0x00003498:    f001fa98    ....    BL       SX1276Write ; 0x49cc
        0x0000349c:    2001        .       MOVS     r0,#1
        0x0000349e:    7038        8p      STRB     r0,[r7,#0]
        0x000034a0:    2404        .$      MOVS     r4,#4
        0x000034a2:    e18c        ..      B        0x37be ; SX1276FskProcess + 882
        0x000034a4:    2000        .       MOVS     r0,#0
        0x000034a6:    7038        8p      STRB     r0,[r7,#0]
        0x000034a8:    2405        .$      MOVS     r4,#5
        0x000034aa:    e188        ..      B        0x37be ; SX1276FskProcess + 882
        0x000034ac:    8939        9.      LDRH     r1,[r7,#8]
        0x000034ae:    20ff        .       MOVS     r0,#0xff
        0x000034b0:    3002        .0      ADDS     r0,#2
        0x000034b2:    4281        .B      CMP      r1,r0
        0x000034b4:    d200        ..      BCS      0x34b8 ; SX1276FskProcess + 108
        0x000034b6:    e0c6        ..      B        0x3646 ; SX1276FskProcess + 506
        0x000034b8:    2006        .       MOVS     r0,#6
        0x000034ba:    e17f        ..      B        0x37bc ; SX1276FskProcess + 880
        0x000034bc:    2001        .       MOVS     r0,#1
        0x000034be:    7038        8p      STRB     r0,[r7,#0]
        0x000034c0:    2000        .       MOVS     r0,#0
        0x000034c2:    7138        8q      STRB     r0,[r7,#4]
        0x000034c4:    2402        .$      MOVS     r4,#2
        0x000034c6:    e17a        z.      B        0x37be ; SX1276FskProcess + 882
        0x000034c8:    48ca        .H      LDR      r0,[pc,#808] ; [0x37f4] = 0x50004238
        0x000034ca:    6880        .h      LDR      r0,[r0,#8]
        0x000034cc:    2801        .(      CMP      r0,#1
        0x000034ce:    d000        ..      BEQ      0x34d2 ; SX1276FskProcess + 134
        0x000034d0:    e175        u.      B        0x37be ; SX1276FskProcess + 882
        0x000034d2:    68f8        .h      LDR      r0,[r7,#0xc]
        0x000034d4:    2130        0!      MOVS     r1,#0x30
        0x000034d6:    5640        @V      LDRSB    r0,[r0,r1]
        0x000034d8:    2800        .(      CMP      r0,#0
        0x000034da:    d504        ..      BPL      0x34e6 ; SX1276FskProcess + 154
        0x000034dc:    4638        8F      MOV      r0,r7
        0x000034de:    300a        .0      ADDS     r0,r0,#0xa
        0x000034e0:    2101        .!      MOVS     r1,#1
        0x000034e2:    f001fa93    ....    BL       SX1276WriteFifo ; 0x4a0c
        0x000034e6:    8978        x.      LDRH     r0,[r7,#0xa]
        0x000034e8:    1e41        A.      SUBS     r1,r0,#1
        0x000034ea:    b289        ..      UXTH     r1,r1
        0x000034ec:    2940        @)      CMP      r1,#0x40
        0x000034ee:    d300        ..      BCC      0x34f2 ; SX1276FskProcess + 166
        0x000034f0:    2020                MOVS     r0,#0x20
        0x000034f2:    4cc2        .L      LDR      r4,[pc,#776] ; [0x37fc] = 0x20000038
        0x000034f4:    7060        `p      STRB     r0,[r4,#1]
        0x000034f6:    b2c1        ..      UXTB     r1,r0
        0x000034f8:    48bf        .H      LDR      r0,[pc,#764] ; [0x37f8] = 0x20000438
        0x000034fa:    f001fa87    ....    BL       SX1276WriteFifo ; 0x4a0c
        0x000034fe:    7860        `x      LDRB     r0,[r4,#1]
        0x00003500:    7979        yy      LDRB     r1,[r7,#5]
        0x00003502:    1808        ..      ADDS     r0,r1,r0
        0x00003504:    7178        xq      STRB     r0,[r7,#5]
        0x00003506:    2001        .       MOVS     r0,#1
        0x00003508:    0780        ..      LSLS     r0,r0,#30
        0x0000350a:    49be        .I      LDR      r1,[pc,#760] ; [0x3804] = 0x40010000
        0x0000350c:    680a        .h      LDR      r2,[r1,#0]
        0x0000350e:    4302        .C      ORRS     r2,r2,r0
        0x00003510:    600a        .`      STR      r2,[r1,#0]
        0x00003512:    f001ffc7    ....    BL       Timer_GetTickMs ; 0x54a4
        0x00003516:    6278        xb      STR      r0,[r7,#0x24]
        0x00003518:    2009        .       MOVS     r0,#9
        0x0000351a:    7038        8p      STRB     r0,[r7,#0]
        0x0000351c:    2406        .$      MOVS     r4,#6
        0x0000351e:    e14e        N.      B        0x37be ; SX1276FskProcess + 882
        0x00003520:    4db4        .M      LDR      r5,[pc,#720] ; [0x37f4] = 0x50004238
        0x00003522:    68e8        .h      LDR      r0,[r5,#0xc]
        0x00003524:    2801        .(      CMP      r0,#1
        0x00003526:    d107        ..      BNE      0x3538 ; SX1276FskProcess + 236
        0x00003528:    7878        xx      LDRB     r0,[r7,#1]
        0x0000352a:    2800        .(      CMP      r0,#0
        0x0000352c:    d104        ..      BNE      0x3538 ; SX1276FskProcess + 236
        0x0000352e:    2001        .       MOVS     r0,#1
        0x00003530:    7078        xp      STRB     r0,[r7,#1]
        0x00003532:    f001ffb7    ....    BL       Timer_GetTickMs ; 0x54a4
        0x00003536:    6238        8b      STR      r0,[r7,#0x20]
        0x00003538:    6828        (h      LDR      r0,[r5,#0]
        0x0000353a:    2801        .(      CMP      r0,#1
        0x0000353c:    d119        ..      BNE      0x3572 ; SX1276FskProcess + 294
        0x0000353e:    7878        xx      LDRB     r0,[r7,#1]
        0x00003540:    2801        .(      CMP      r0,#1
        0x00003542:    d116        ..      BNE      0x3572 ; SX1276FskProcess + 294
        0x00003544:    78b8        .x      LDRB     r0,[r7,#2]
        0x00003546:    2800        .(      CMP      r0,#0
        0x00003548:    d000        ..      BEQ      0x354c ; SX1276FskProcess + 256
        0x0000354a:    e138        8.      B        0x37be ; SX1276FskProcess + 882
        0x0000354c:    2001        .       MOVS     r0,#1
        0x0000354e:    70b8        .p      STRB     r0,[r7,#2]
        0x00003550:    f000f976    ..v.    BL       SX1276FskReadRssi ; 0x3840
        0x00003554:    62b8        .b      STR      r0,[r7,#0x28]
        0x00003556:    62f9        .b      STR      r1,[r7,#0x2c]
        0x00003558:    f000f95a    ..Z.    BL       SX1276FskReadAfc ; 0x3810
        0x0000355c:    6138        8a      STR      r0,[r7,#0x10]
        0x0000355e:    f000f981    ....    BL       SX1276FskReadRxGain ; 0x3864
        0x00003562:    49a6        .I      LDR      r1,[pc,#664] ; [0x37fc] = 0x20000038
        0x00003564:    7008        .p      STRB     r0,[r1,#0]
        0x00003566:    f001ff9d    ....    BL       Timer_GetTickMs ; 0x54a4
        0x0000356a:    61f8        .a      STR      r0,[r7,#0x1c]
        0x0000356c:    6238        8b      STR      r0,[r7,#0x20]
        0x0000356e:    2003        .       MOVS     r0,#3
        0x00003570:    7038        8p      STRB     r0,[r7,#0]
        0x00003572:    78b8        .x      LDRB     r0,[r7,#2]
        0x00003574:    2800        .(      CMP      r0,#0
        0x00003576:    d000        ..      BEQ      0x357a ; SX1276FskProcess + 302
        0x00003578:    e121        !.      B        0x37be ; SX1276FskProcess + 882
        0x0000357a:    7878        xx      LDRB     r0,[r7,#1]
        0x0000357c:    2801        .(      CMP      r0,#1
        0x0000357e:    d117        ..      BNE      0x35b0 ; SX1276FskProcess + 356
        0x00003580:    f001ff90    ....    BL       Timer_GetTickMs ; 0x54a4
        0x00003584:    6a39        9j      LDR      r1,[r7,#0x20]
        0x00003586:    1a40        @.      SUBS     r0,r0,r1
        0x00003588:    69b9        .i      LDR      r1,[r7,#0x18]
        0x0000358a:    4288        .B      CMP      r0,r1
        0x0000358c:    d908        ..      BLS      0x35a0 ; SX1276FskProcess + 340
        0x0000358e:    2001        .       MOVS     r0,#1
        0x00003590:    7038        8p      STRB     r0,[r7,#0]
        0x00003592:    68f8        .h      LDR      r0,[r7,#0xc]
        0x00003594:    7b40        @{      LDRB     r0,[r0,#0xd]
        0x00003596:    2120         !      MOVS     r1,#0x20
        0x00003598:    4301        .C      ORRS     r1,r1,r0
        0x0000359a:    200d        .       MOVS     r0,#0xd
        0x0000359c:    f001fa16    ....    BL       SX1276Write ; 0x49cc
        0x000035a0:    78b8        .x      LDRB     r0,[r7,#2]
        0x000035a2:    2800        .(      CMP      r0,#0
        0x000035a4:    d000        ..      BEQ      0x35a8 ; SX1276FskProcess + 348
        0x000035a6:    e10a        ..      B        0x37be ; SX1276FskProcess + 882
        0x000035a8:    7878        xx      LDRB     r0,[r7,#1]
        0x000035aa:    2800        .(      CMP      r0,#0
        0x000035ac:    d000        ..      BEQ      0x35b0 ; SX1276FskProcess + 356
        0x000035ae:    e106        ..      B        0x37be ; SX1276FskProcess + 882
        0x000035b0:    78f8        .x      LDRB     r0,[r7,#3]
        0x000035b2:    2800        .(      CMP      r0,#0
        0x000035b4:    d000        ..      BEQ      0x35b8 ; SX1276FskProcess + 364
        0x000035b6:    e102        ..      B        0x37be ; SX1276FskProcess + 882
        0x000035b8:    f001ff74    ..t.    BL       Timer_GetTickMs ; 0x54a4
        0x000035bc:    69f9        .i      LDR      r1,[r7,#0x1c]
        0x000035be:    1a40        @.      SUBS     r0,r0,r1
        0x000035c0:    6979        yi      LDR      r1,[r7,#0x14]
        0x000035c2:    4288        .B      CMP      r0,r1
        0x000035c4:    d800        ..      BHI      0x35c8 ; SX1276FskProcess + 380
        0x000035c6:    e0fa        ..      B        0x37be ; SX1276FskProcess + 882
        0x000035c8:    f001ff70    ..p.    BL       Timer_ResetTickMs ; 0x54ac
        0x000035cc:    e0f5        ..      B        0x37ba ; SX1276FskProcess + 878
        0x000035ce:    2000        .       MOVS     r0,#0
        0x000035d0:    8138        8.      STRH     r0,[r7,#8]
        0x000035d2:    7138        8q      STRB     r0,[r7,#4]
        0x000035d4:    68f8        .h      LDR      r0,[r7,#0xc]
        0x000035d6:    7b40        @{      LDRB     r0,[r0,#0xd]
        0x000035d8:    2120         !      MOVS     r1,#0x20
        0x000035da:    4301        .C      ORRS     r1,r1,r0
        0x000035dc:    200d        .       MOVS     r0,#0xd
        0x000035de:    f001f9f5    ....    BL       SX1276Write ; 0x49cc
        0x000035e2:    2001        .       MOVS     r0,#1
        0x000035e4:    7038        8p      STRB     r0,[r7,#0]
        0x000035e6:    2408        .$      MOVS     r4,#8
        0x000035e8:    e0e9        ..      B        0x37be ; SX1276FskProcess + 882
        0x000035ea:    68f9        .h      LDR      r1,[r7,#0xc]
        0x000035ec:    2040        @       MOVS     r0,#0x40
        0x000035ee:    2401        .$      MOVS     r4,#1
        0x000035f0:    540c        .T      STRB     r4,[r1,r0]
        0x000035f2:    3140        @1      ADDS     r1,r1,#0x40
        0x000035f4:    2220         "      MOVS     r2,#0x20
        0x000035f6:    704a        Jp      STRB     r2,[r1,#1]
        0x000035f8:    2202        ."      MOVS     r2,#2
        0x000035fa:    f001f9ef    ....    BL       SX1276WriteBuffer ; 0x49dc
        0x000035fe:    68fa        .h      LDR      r2,[r7,#0xc]
        0x00003600:    2035        5       MOVS     r0,#0x35
        0x00003602:    2198        .!      MOVS     r1,#0x98
        0x00003604:    5411        .T      STRB     r1,[r2,r0]
        0x00003606:    f001f9e1    ....    BL       SX1276Write ; 0x49cc
        0x0000360a:    2003        .       MOVS     r0,#3
        0x0000360c:    f000fa56    ..V.    BL       SX1276FskSetOpMode ; 0x3abc
        0x00003610:    2000        .       MOVS     r0,#0
        0x00003612:    7178        xq      STRB     r0,[r7,#5]
        0x00003614:    2008        .       MOVS     r0,#8
        0x00003616:    e0d1        ..      B        0x37bc ; SX1276FskProcess + 880
        0x00003618:    2000        .       MOVS     r0,#0
        0x0000361a:    7038        8p      STRB     r0,[r7,#0]
        0x0000361c:    2407        .$      MOVS     r4,#7
        0x0000361e:    e0ce        ..      B        0x37be ; SX1276FskProcess + 882
        0x00003620:    4d74        tM      LDR      r5,[pc,#464] ; [0x37f4] = 0x50004238
        0x00003622:    6868        hh      LDR      r0,[r5,#4]
        0x00003624:    2800        .(      CMP      r0,#0
        0x00003626:    d172        r.      BNE      0x370e ; SX1276FskProcess + 706
        0x00003628:    7979        yy      LDRB     r1,[r7,#5]
        0x0000362a:    4873        sH      LDR      r0,[pc,#460] ; [0x37f8] = 0x20000438
        0x0000362c:    1840        @.      ADDS     r0,r0,r1
        0x0000362e:    897a        z.      LDRH     r2,[r7,#0xa]
        0x00003630:    1a52        R.      SUBS     r2,r2,r1
        0x00003632:    4e72        rN      LDR      r6,[pc,#456] ; [0x37fc] = 0x20000038
        0x00003634:    7871        qx      LDRB     r1,[r6,#1]
        0x00003636:    428a        .B      CMP      r2,r1
        0x00003638:    dd64        d.      BLE      0x3704 ; SX1276FskProcess + 696
        0x0000363a:    f001f9e7    ....    BL       SX1276WriteFifo ; 0x4a0c
        0x0000363e:    7870        px      LDRB     r0,[r6,#1]
        0x00003640:    7979        yy      LDRB     r1,[r7,#5]
        0x00003642:    1808        ..      ADDS     r0,r1,r0
        0x00003644:    e062        b.      B        0x370c ; SX1276FskProcess + 704
        0x00003646:    4c6b        kL      LDR      r4,[pc,#428] ; [0x37f4] = 0x50004238
        0x00003648:    6860        `h      LDR      r0,[r4,#4]
        0x0000364a:    2801        .(      CMP      r0,#1
        0x0000364c:    d000        ..      BEQ      0x3650 ; SX1276FskProcess + 516
        0x0000364e:    e092        ..      B        0x3776 ; SX1276FskProcess + 810
        0x00003650:    793b        ;y      LDRB     r3,[r7,#4]
        0x00003652:    68fa        .h      LDR      r2,[r7,#0xc]
        0x00003654:    2900        .)      CMP      r1,#0
        0x00003656:    d178        x.      BNE      0x374a ; SX1276FskProcess + 766
        0x00003658:    2b00        .+      CMP      r3,#0
        0x0000365a:    d176        v.      BNE      0x374a ; SX1276FskProcess + 766
        0x0000365c:    4610        .F      MOV      r0,r2
        0x0000365e:    3030        00      ADDS     r0,r0,#0x30
        0x00003660:    2300        .#      MOVS     r3,#0
        0x00003662:    56c1        .V      LDRSB    r1,[r0,r3]
        0x00003664:    2900        .)      CMP      r1,#0
        0x00003666:    d468        h.      BMI      0x373a ; SX1276FskProcess + 750
        0x00003668:    7881        .x      LDRB     r1,[r0,#2]
        0x0000366a:    8139        9.      STRH     r1,[r7,#8]
        0x0000366c:    e06d        m.      B        0x374a ; SX1276FskProcess + 766
        0x0000366e:    200c        .       MOVS     r0,#0xc
        0x00003670:    7408        .t      STRB     r0,[r1,#0x10]
        0x00003672:    3110        .1      ADDS     r1,r1,#0x10
        0x00003674:    2040        @       MOVS     r0,#0x40
        0x00003676:    2202        ."      MOVS     r2,#2
        0x00003678:    9200        ..      STR      r2,[sp,#0]
        0x0000367a:    f001f9af    ....    BL       SX1276WriteBuffer ; 0x49dc
        0x0000367e:    2005        .       MOVS     r0,#5
        0x00003680:    f000fa1c    ....    BL       SX1276FskSetOpMode ; 0x3abc
        0x00003684:    2401        .$      MOVS     r4,#1
        0x00003686:    0221        !.      LSLS     r1,r4,#8
        0x00003688:    485b        [H      LDR      r0,[pc,#364] ; [0x37f8] = 0x20000438
        0x0000368a:    f7fcfd62    ..b.    BL       __aeabi_memclr ; 0x152
        0x0000368e:    f7fffdb3    ....    BL       SX1276FskGetPacketPayloadSize ; 0x31f8
        0x00003692:    f7fcff33    ..3.    BL       __aeabi_ui2d ; 0x4fc
        0x00003696:    2600        .&      MOVS     r6,#0
        0x00003698:    4b5b        [K      LDR      r3,[pc,#364] ; [0x3808] = 0x40200000
        0x0000369a:    4632        2F      MOV      r2,r6
        0x0000369c:    f7fcfe24    ..$.    BL       __aeabi_dmul ; 0x2e8
        0x000036a0:    4607        .F      MOV      r7,r0
        0x000036a2:    460d        .F      MOV      r5,r1
        0x000036a4:    4855        UH      LDR      r0,[pc,#340] ; [0x37fc] = 0x20000038
        0x000036a6:    6880        .h      LDR      r0,[r0,#8]
        0x000036a8:    f7fcff28    ..(.    BL       __aeabi_ui2d ; 0x4fc
        0x000036ac:    4602        .F      MOV      r2,r0
        0x000036ae:    460b        .F      MOV      r3,r1
        0x000036b0:    4638        8F      MOV      r0,r7
        0x000036b2:    4629        )F      MOV      r1,r5
        0x000036b4:    f7fcfe80    ....    BL       __aeabi_ddiv ; 0x3b8
        0x000036b8:    4b54        TK      LDR      r3,[pc,#336] ; [0x380c] = 0x408f4000
        0x000036ba:    4632        2F      MOV      r2,r6
        0x000036bc:    f7fcfe14    ....    BL       __aeabi_dmul ; 0x2e8
        0x000036c0:    f003fdca    ....    BL       round ; 0x7258
        0x000036c4:    4be3        .K      LDR      r3,[pc,#908] ; [0x3a54] = 0x3ff00000
        0x000036c6:    4632        2F      MOV      r2,r6
        0x000036c8:    f7fcfd5c    ..\.    BL       __aeabi_dadd ; 0x184
        0x000036cc:    f7fcff24    ..$.    BL       __aeabi_d2iz ; 0x518
        0x000036d0:    0841        A.      LSRS     r1,r0,#1
        0x000036d2:    1808        ..      ADDS     r0,r1,r0
        0x000036d4:    4de5        .M      LDR      r5,[pc,#916] ; [0x3a6c] = 0x200003b8
        0x000036d6:    6168        ha      STR      r0,[r5,#0x14]
        0x000036d8:    61a8        .a      STR      r0,[r5,#0x18]
        0x000036da:    07a0        ..      LSLS     r0,r4,#30
        0x000036dc:    4949        II      LDR      r1,[pc,#292] ; [0x3804] = 0x40010000
        0x000036de:    680a        .h      LDR      r2,[r1,#0]
        0x000036e0:    4302        .C      ORRS     r2,r2,r0
        0x000036e2:    600a        .`      STR      r2,[r1,#0]
        0x000036e4:    f001fede    ....    BL       Timer_GetTickMs ; 0x54a4
        0x000036e8:    68eb        .h      LDR      r3,[r5,#0xc]
        0x000036ea:    2235        5"      MOVS     r2,#0x35
        0x000036ec:    21a0        .!      MOVS     r1,#0xa0
        0x000036ee:    5499        .T      STRB     r1,[r3,r2]
        0x000036f0:    61e8        .a      STR      r0,[r5,#0x1c]
        0x000036f2:    6228        (b      STR      r0,[r5,#0x20]
        0x000036f4:    4610        .F      MOV      r0,r2
        0x000036f6:    f001f969    ..i.    BL       SX1276Write ; 0x49cc
        0x000036fa:    812e        ..      STRH     r6,[r5,#8]
        0x000036fc:    712e        .q      STRB     r6,[r5,#4]
        0x000036fe:    9800        ..      LDR      r0,[sp,#0]
        0x00003700:    6028        (`      STR      r0,[r5,#0]
        0x00003702:    e05c        \.      B        0x37be ; SX1276FskProcess + 882
        0x00003704:    b2d1        ..      UXTB     r1,r2
        0x00003706:    f001f981    ....    BL       SX1276WriteFifo ; 0x4a0c
        0x0000370a:    7ab8        .z      LDRB     r0,[r7,#0xa]
        0x0000370c:    7178        xq      STRB     r0,[r7,#5]
        0x0000370e:    6928        (i      LDR      r0,[r5,#0x10]
        0x00003710:    2801        .(      CMP      r0,#1
        0x00003712:    d107        ..      BNE      0x3724 ; SX1276FskProcess + 728
        0x00003714:    f001fec6    ....    BL       Timer_GetTickMs ; 0x54a4
        0x00003718:    6278        xb      STR      r0,[r7,#0x24]
        0x0000371a:    200a        .       MOVS     r0,#0xa
        0x0000371c:    7038        8p      STRB     r0,[r7,#0]
        0x0000371e:    2001        .       MOVS     r0,#1
        0x00003720:    f000f9cc    ....    BL       SX1276FskSetOpMode ; 0x3abc
        0x00003724:    f001febe    ....    BL       Timer_GetTickMs ; 0x54a4
        0x00003728:    6a79        yj      LDR      r1,[r7,#0x24]
        0x0000372a:    1a40        @.      SUBS     r0,r0,r1
        0x0000372c:    4934        4I      LDR      r1,[pc,#208] ; [0x3800] = 0x3e9
        0x0000372e:    4288        .B      CMP      r0,r1
        0x00003730:    d345        E.      BCC      0x37be ; SX1276FskProcess + 882
        0x00003732:    f001febb    ....    BL       Timer_ResetTickMs ; 0x54ac
        0x00003736:    200b        .       MOVS     r0,#0xb
        0x00003738:    e040        @.      B        0x37bc ; SX1276FskProcess + 880
        0x0000373a:    4638        8F      MOV      r0,r7
        0x0000373c:    3008        .0      ADDS     r0,r0,#8
        0x0000373e:    2101        .!      MOVS     r1,#1
        0x00003740:    f001f8a4    ....    BL       SX1276ReadFifo ; 0x488c
        0x00003744:    68fa        .h      LDR      r2,[r7,#0xc]
        0x00003746:    793b        ;y      LDRB     r3,[r7,#4]
        0x00003748:    8939        9.      LDRH     r1,[r7,#8]
        0x0000374a:    482b        +H      LDR      r0,[pc,#172] ; [0x37f8] = 0x20000438
        0x0000374c:    18c0        ..      ADDS     r0,r0,r3
        0x0000374e:    1acb        ..      SUBS     r3,r1,r3
        0x00003750:    2535        5%      MOVS     r5,#0x35
        0x00003752:    5d51        Q]      LDRB     r1,[r2,r5]
        0x00003754:    263f        ?&      MOVS     r6,#0x3f
        0x00003756:    4031        1@      ANDS     r1,r1,r6
        0x00003758:    428b        .B      CMP      r3,r1
        0x0000375a:    dd07        ..      BLE      0x376c ; SX1276FskProcess + 800
        0x0000375c:    f001f896    ....    BL       SX1276ReadFifo ; 0x488c
        0x00003760:    68f8        .h      LDR      r0,[r7,#0xc]
        0x00003762:    5d40        @]      LDRB     r0,[r0,r5]
        0x00003764:    4030        0@      ANDS     r0,r0,r6
        0x00003766:    7939        9y      LDRB     r1,[r7,#4]
        0x00003768:    1808        ..      ADDS     r0,r1,r0
        0x0000376a:    e003        ..      B        0x3774 ; SX1276FskProcess + 808
        0x0000376c:    b2d9        ..      UXTB     r1,r3
        0x0000376e:    f001f88d    ....    BL       SX1276ReadFifo ; 0x488c
        0x00003772:    7a38        8z      LDRB     r0,[r7,#8]
        0x00003774:    7138        8q      STRB     r0,[r7,#4]
        0x00003776:    6920         i      LDR      r0,[r4,#0x10]
        0x00003778:    2801        .(      CMP      r0,#1
        0x0000377a:    d113        ..      BNE      0x37a4 ; SX1276FskProcess + 856
        0x0000377c:    f001fe92    ....    BL       Timer_GetTickMs ; 0x54a4
        0x00003780:    61f8        .a      STR      r0,[r7,#0x1c]
        0x00003782:    7939        9y      LDRB     r1,[r7,#4]
        0x00003784:    893a        :.      LDRH     r2,[r7,#8]
        0x00003786:    2401        .$      MOVS     r4,#1
        0x00003788:    2a00        .*      CMP      r2,#0
        0x0000378a:    d11a        ..      BNE      0x37c2 ; SX1276FskProcess + 886
        0x0000378c:    2900        .)      CMP      r1,#0
        0x0000378e:    d118        ..      BNE      0x37c2 ; SX1276FskProcess + 886
        0x00003790:    68f8        .h      LDR      r0,[r7,#0xc]
        0x00003792:    2130        0!      MOVS     r1,#0x30
        0x00003794:    5641        AV      LDRSB    r1,[r0,r1]
        0x00003796:    2900        .)      CMP      r1,#0
        0x00003798:    d417        ..      BMI      0x37ca ; SX1276FskProcess + 894
        0x0000379a:    3030        00      ADDS     r0,r0,#0x30
        0x0000379c:    7881        .x      LDRB     r1,[r0,#2]
        0x0000379e:    8139        9.      STRH     r1,[r7,#8]
        0x000037a0:    2200        ."      MOVS     r2,#0
        0x000037a2:    e019        ..      B        0x37d8 ; SX1276FskProcess + 908
        0x000037a4:    78f8        .x      LDRB     r0,[r7,#3]
        0x000037a6:    2403        .$      MOVS     r4,#3
        0x000037a8:    2800        .(      CMP      r0,#0
        0x000037aa:    d108        ..      BNE      0x37be ; SX1276FskProcess + 882
        0x000037ac:    f001fe7a    ..z.    BL       Timer_GetTickMs ; 0x54a4
        0x000037b0:    69f9        .i      LDR      r1,[r7,#0x1c]
        0x000037b2:    1a40        @.      SUBS     r0,r0,r1
        0x000037b4:    6979        yi      LDR      r1,[r7,#0x14]
        0x000037b6:    4288        .B      CMP      r0,r1
        0x000037b8:    d901        ..      BLS      0x37be ; SX1276FskProcess + 882
        0x000037ba:    2005        .       MOVS     r0,#5
        0x000037bc:    7038        8p      STRB     r0,[r7,#0]
        0x000037be:    4620         F      MOV      r0,r4
        0x000037c0:    bdf8        ..      POP      {r3-r7,pc}
        0x000037c2:    480d        .H      LDR      r0,[pc,#52] ; [0x37f8] = 0x20000438
        0x000037c4:    1840        @.      ADDS     r0,r0,r1
        0x000037c6:    1a51        Q.      SUBS     r1,r2,r1
        0x000037c8:    e009        ..      B        0x37de ; SX1276FskProcess + 914
        0x000037ca:    4638        8F      MOV      r0,r7
        0x000037cc:    3008        .0      ADDS     r0,r0,#8
        0x000037ce:    2101        .!      MOVS     r1,#1
        0x000037d0:    f001f85c    ..\.    BL       SX1276ReadFifo ; 0x488c
        0x000037d4:    7a39        9z      LDRB     r1,[r7,#8]
        0x000037d6:    793a        :y      LDRB     r2,[r7,#4]
        0x000037d8:    4807        .H      LDR      r0,[pc,#28] ; [0x37f8] = 0x20000438
        0x000037da:    1880        ..      ADDS     r0,r0,r2
        0x000037dc:    1a89        ..      SUBS     r1,r1,r2
        0x000037de:    b2c9        ..      UXTB     r1,r1
        0x000037e0:    f001f854    ..T.    BL       SX1276ReadFifo ; 0x488c
        0x000037e4:    70fc        .p      STRB     r4,[r7,#3]
        0x000037e6:    2004        .       MOVS     r0,#4
        0x000037e8:    7038        8p      STRB     r0,[r7,#0]
        0x000037ea:    7a38        8z      LDRB     r0,[r7,#8]
        0x000037ec:    7138        8q      STRB     r0,[r7,#4]
        0x000037ee:    2403        .$      MOVS     r4,#3
        0x000037f0:    e7e5        ..      B        0x37be ; SX1276FskProcess + 882
        0x000037f2:    46c0        .F      MOV      r8,r8
    $d.45
    __arm_cp.21_1
        0x000037f4:    50004238    8B.P    DCD    1342194232
    __arm_cp.21_2
        0x000037f8:    20000438    8..     DCD    536871992
    __arm_cp.21_3
        0x000037fc:    20000038    8..     DCD    536870968
    __arm_cp.21_4
        0x00003800:    000003e9    ....    DCD    1001
    __arm_cp.21_5
        0x00003804:    40010000    ...@    DCD    1073807360
    __arm_cp.21_6
        0x00003808:    40200000    .. @    DCD    1075838976
    __arm_cp.21_7
        0x0000380c:    408f4000    .@.@    DCD    1083129856
    $t.16
    SX1276FskReadAfc
        0x00003810:    b510        ..      PUSH     {r4,lr}
        0x00003812:    4cb6        .L      LDR      r4,[pc,#728] ; [0x3aec] = 0x200003b8
        0x00003814:    68e1        .h      LDR      r1,[r4,#0xc]
        0x00003816:    311b        .1      ADDS     r1,r1,#0x1b
        0x00003818:    201b        .       MOVS     r0,#0x1b
        0x0000381a:    2202        ."      MOVS     r2,#2
        0x0000381c:    f001f820    .. .    BL       SX1276ReadBuffer ; 0x4860
        0x00003820:    68e0        .h      LDR      r0,[r4,#0xc]
        0x00003822:    7f01        ..      LDRB     r1,[r0,#0x1c]
        0x00003824:    7ec0        .~      LDRB     r0,[r0,#0x1b]
        0x00003826:    0200        ..      LSLS     r0,r0,#8
        0x00003828:    1840        @.      ADDS     r0,r0,r1
        0x0000382a:    f7fcfe53    ..S.    BL       __aeabi_i2d ; 0x4d4
        0x0000382e:    2200        ."      MOVS     r2,#0
        0x00003830:    4ba1        .K      LDR      r3,[pc,#644] ; [0x3ab8] = 0x404e8480
        0x00003832:    f7fcfd59    ..Y.    BL       __aeabi_dmul ; 0x2e8
        0x00003836:    f7fcfe6f    ..o.    BL       __aeabi_d2iz ; 0x518
        0x0000383a:    bd10        ..      POP      {r4,pc}
    $d.17
    __arm_cp.8_0
        0x0000383c:    200003b8    ...     DCD    536871864
    $t.20
    SX1276FskReadRssi
        0x00003840:    b510        ..      PUSH     {r4,lr}
        0x00003842:    4caa        .L      LDR      r4,[pc,#680] ; [0x3aec] = 0x200003b8
        0x00003844:    68e1        .h      LDR      r1,[r4,#0xc]
        0x00003846:    3111        .1      ADDS     r1,r1,#0x11
        0x00003848:    2011        .       MOVS     r0,#0x11
        0x0000384a:    f001f803    ....    BL       SX1276Read ; 0x4854
        0x0000384e:    68e0        .h      LDR      r0,[r4,#0xc]
        0x00003850:    7c40        @|      LDRB     r0,[r0,#0x11]
        0x00003852:    f7fcfe53    ..S.    BL       __aeabi_ui2d ; 0x4fc
        0x00003856:    2200        ."      MOVS     r2,#0
        0x00003858:    4b01        .K      LDR      r3,[pc,#4] ; [0x3860] = 0xbfe00000
        0x0000385a:    f7fcfd45    ..E.    BL       __aeabi_dmul ; 0x2e8
        0x0000385e:    bd10        ..      POP      {r4,pc}
    $d.21
    __arm_cp.10_1
        0x00003860:    bfe00000    ....    DCD    3219128320
    $t.18
    SX1276FskReadRxGain
        0x00003864:    b510        ..      PUSH     {r4,lr}
        0x00003866:    4ca1        .L      LDR      r4,[pc,#644] ; [0x3aec] = 0x200003b8
        0x00003868:    68e1        .h      LDR      r1,[r4,#0xc]
        0x0000386a:    310c        .1      ADDS     r1,r1,#0xc
        0x0000386c:    200c        .       MOVS     r0,#0xc
        0x0000386e:    f000fff1    ....    BL       SX1276Read ; 0x4854
        0x00003872:    68e0        .h      LDR      r0,[r4,#0xc]
        0x00003874:    7b00        .{      LDRB     r0,[r0,#0xc]
        0x00003876:    0940        @.      LSRS     r0,r0,#5
        0x00003878:    bd10        ..      POP      {r4,pc}
        0x0000387a:    46c0        .F      MOV      r8,r8
    SX1276FskRxCalibrate
        0x0000387c:    b57c        |.      PUSH     {r2-r6,lr}
        0x0000387e:    2509        .%      MOVS     r5,#9
        0x00003880:    a901        ..      ADD      r1,sp,#4
        0x00003882:    4628        (F      MOV      r0,r5
        0x00003884:    f000ffe6    ....    BL       SX1276Read ; 0x4854
        0x00003888:    f7fffce4    ....    BL       SX1276FskGetRFFrequency ; 0x3254
        0x0000388c:    4604        .F      MOV      r4,r0
        0x0000388e:    4edd        .N      LDR      r6,[pc,#884] ; [0x3c04] = 0x200003c4
        0x00003890:    6830        0h      LDR      r0,[r6,#0]
        0x00003892:    2100        .!      MOVS     r1,#0
        0x00003894:    7241        Ar      STRB     r1,[r0,#9]
        0x00003896:    4628        (F      MOV      r0,r5
        0x00003898:    f001f898    ....    BL       SX1276Write ; 0x49cc
        0x0000389c:    4813        .H      LDR      r0,[pc,#76] ; [0x38ec] = 0x33428f00
        0x0000389e:    f000f997    ....    BL       SX1276FskSetRFFrequency ; 0x3bd0
        0x000038a2:    6831        1h      LDR      r1,[r6,#0]
        0x000038a4:    313b        ;1      ADDS     r1,r1,#0x3b
        0x000038a6:    253b        ;%      MOVS     r5,#0x3b
        0x000038a8:    4628        (F      MOV      r0,r5
        0x000038aa:    f000ffd3    ....    BL       SX1276Read ; 0x4854
        0x000038ae:    6830        0h      LDR      r0,[r6,#0]
        0x000038b0:    5d42        B]      LDRB     r2,[r0,r5]
        0x000038b2:    2140        @!      MOVS     r1,#0x40
        0x000038b4:    4311        .C      ORRS     r1,r1,r2
        0x000038b6:    5541        AU      STRB     r1,[r0,r5]
        0x000038b8:    4628        (F      MOV      r0,r5
        0x000038ba:    f001f887    ....    BL       SX1276Write ; 0x49cc
        0x000038be:    6831        1h      LDR      r1,[r6,#0]
        0x000038c0:    313b        ;1      ADDS     r1,r1,#0x3b
        0x000038c2:    4628        (F      MOV      r0,r5
        0x000038c4:    f000ffc6    ....    BL       SX1276Read ; 0x4854
        0x000038c8:    6830        0h      LDR      r0,[r6,#0]
        0x000038ca:    5d41        A]      LDRB     r1,[r0,r5]
        0x000038cc:    068a        ..      LSLS     r2,r1,#26
        0x000038ce:    4601        .F      MOV      r1,r0
        0x000038d0:    313b        ;1      ADDS     r1,r1,#0x3b
        0x000038d2:    2a00        .*      CMP      r2,#0
        0x000038d4:    d4f5        ..      BMI      0x38c2 ; SX1276FskRxCalibrate + 70
        0x000038d6:    a901        ..      ADD      r1,sp,#4
        0x000038d8:    7809        .x      LDRB     r1,[r1,#0]
        0x000038da:    7241        Ar      STRB     r1,[r0,#9]
        0x000038dc:    2009        .       MOVS     r0,#9
        0x000038de:    f001f875    ..u.    BL       SX1276Write ; 0x49cc
        0x000038e2:    4620         F      MOV      r0,r4
        0x000038e4:    f000f974    ..t.    BL       SX1276FskSetRFFrequency ; 0x3bd0
        0x000038e8:    bd7c        |.      POP      {r2-r6,pc}
        0x000038ea:    46c0        .F      MOV      r8,r8
    $d.7
    __arm_cp.3_1
        0x000038ec:    33428f00    ..B3    DCD    860000000
    $t.8
    SX1276FskSetBitrate
        0x000038f0:    b580        ..      PUSH     {r7,lr}
        0x000038f2:    49e4        .I      LDR      r1,[pc,#912] ; [0x3c84] = 0x2000003c
        0x000038f4:    6048        H`      STR      r0,[r1,#4]
        0x000038f6:    f7fcfe01    ....    BL       __aeabi_ui2d ; 0x4fc
        0x000038fa:    4602        .F      MOV      r2,r0
        0x000038fc:    460b        .F      MOV      r3,r1
        0x000038fe:    2000        .       MOVS     r0,#0
        0x00003900:    4955        UI      LDR      r1,[pc,#340] ; [0x3a58] = 0x417e8480
        0x00003902:    f7fcfd59    ..Y.    BL       __aeabi_ddiv ; 0x3b8
        0x00003906:    f7fcfe07    ....    BL       __aeabi_d2iz ; 0x518
        0x0000390a:    49eb        .I      LDR      r1,[pc,#940] ; [0x3cb8] = 0x200003c4
        0x0000390c:    6809        .h      LDR      r1,[r1,#0]
        0x0000390e:    70c8        .p      STRB     r0,[r1,#3]
        0x00003910:    0a00        ..      LSRS     r0,r0,#8
        0x00003912:    7088        .p      STRB     r0,[r1,#2]
        0x00003914:    1c89        ..      ADDS     r1,r1,#2
        0x00003916:    2002        .       MOVS     r0,#2
        0x00003918:    4602        .F      MOV      r2,r0
        0x0000391a:    f001f85f    .._.    BL       SX1276WriteBuffer ; 0x49dc
        0x0000391e:    bd80        ..      POP      {r7,pc}
    SX1276FskSetDccBw
        0x00003920:    b5f0        ..      PUSH     {r4-r7,lr}
        0x00003922:    b08b        ..      SUB      sp,sp,#0x2c
        0x00003924:    4be4        .K      LDR      r3,[pc,#912] ; [0x3cb8] = 0x200003c4
        0x00003926:    681b        .h      LDR      r3,[r3,#0]
        0x00003928:    3312        .3      ADDS     r3,r3,#0x12
        0x0000392a:    2400        .$      MOVS     r4,#0
        0x0000392c:    4283        .B      CMP      r3,r0
        0x0000392e:    d001        ..      BEQ      0x3934 ; SX1276FskSetDccBw + 20
        0x00003930:    4621        !F      MOV      r1,r4
        0x00003932:    e001        ..      B        0x3938 ; SX1276FskSetDccBw + 24
        0x00003934:    2360        `#      MOVS     r3,#0x60
        0x00003936:    4019        .@      ANDS     r1,r1,r3
        0x00003938:    9000        ..      STR      r0,[sp,#0]
        0x0000393a:    7001        .p      STRB     r1,[r0,#0]
        0x0000393c:    9201        ..      STR      r2,[sp,#4]
        0x0000393e:    4610        .F      MOV      r0,r2
        0x00003940:    f7fcfddc    ....    BL       __aeabi_ui2d ; 0x4fc
        0x00003944:    9003        ..      STR      r0,[sp,#0xc]
        0x00003946:    9102        ..      STR      r1,[sp,#8]
        0x00003948:    4841        AH      LDR      r0,[pc,#260] ; [0x3a50] = 0x416312d0
        0x0000394a:    9009        ..      STR      r0,[sp,#0x24]
        0x0000394c:    4621        !F      MOV      r1,r4
        0x0000394e:    4622        "F      MOV      r2,r4
        0x00003950:    4623        #F      MOV      r3,r4
        0x00003952:    4620         F      MOV      r0,r4
        0x00003954:    2a08        .*      CMP      r2,#8
        0x00003956:    d049        I.      BEQ      0x39ec ; SX1276FskSetDccBw + 204
        0x00003958:    930a        ..      STR      r3,[sp,#0x28]
        0x0000395a:    1c93        ..      ADDS     r3,r2,#2
        0x0000395c:    9304        ..      STR      r3,[sp,#0x10]
        0x0000395e:    2310        .#      MOVS     r3,#0x10
        0x00003960:    9205        ..      STR      r2,[sp,#0x14]
        0x00003962:    b2de        ..      UXTB     r6,r3
        0x00003964:    2e18        ..      CMP      r6,#0x18
        0x00003966:    d83e        >.      BHI      0x39e6 ; SX1276FskSetDccBw + 198
        0x00003968:    9308        ..      STR      r3,[sp,#0x20]
        0x0000396a:    9106        ..      STR      r1,[sp,#0x18]
        0x0000396c:    9007        ..      STR      r0,[sp,#0x1c]
        0x0000396e:    2500        .%      MOVS     r5,#0
        0x00003970:    4628        (F      MOV      r0,r5
        0x00003972:    4938        8I      LDR      r1,[pc,#224] ; [0x3a54] = 0x3ff00000
        0x00003974:    9a04        ..      LDR      r2,[sp,#0x10]
        0x00003976:    f003fc27    ..'.    BL       ldexp ; 0x71c8
        0x0000397a:    4607        .F      MOV      r7,r0
        0x0000397c:    460c        .F      MOV      r4,r1
        0x0000397e:    4630        0F      MOV      r0,r6
        0x00003980:    f7fcfdbc    ....    BL       __aeabi_ui2d ; 0x4fc
        0x00003984:    4602        .F      MOV      r2,r0
        0x00003986:    460b        .F      MOV      r3,r1
        0x00003988:    4638        8F      MOV      r0,r7
        0x0000398a:    4621        !F      MOV      r1,r4
        0x0000398c:    f7fcfcac    ....    BL       __aeabi_dmul ; 0x2e8
        0x00003990:    4602        .F      MOV      r2,r0
        0x00003992:    460b        .F      MOV      r3,r1
        0x00003994:    4628        (F      MOV      r0,r5
        0x00003996:    4930        0I      LDR      r1,[pc,#192] ; [0x3a58] = 0x417e8480
        0x00003998:    f7fcfd0e    ....    BL       __aeabi_ddiv ; 0x3b8
        0x0000399c:    9a03        ..      LDR      r2,[sp,#0xc]
        0x0000399e:    9b02        ..      LDR      r3,[sp,#8]
        0x000039a0:    f7fcfc94    ....    BL       __aeabi_dsub ; 0x2cc
        0x000039a4:    4606        .F      MOV      r6,r0
        0x000039a6:    460d        .F      MOV      r5,r1
        0x000039a8:    2001        .       MOVS     r0,#1
        0x000039aa:    07c0        ..      LSLS     r0,r0,#31
        0x000039ac:    4385        .C      BICS     r5,r5,r0
        0x000039ae:    4630        0F      MOV      r0,r6
        0x000039b0:    4629        )F      MOV      r1,r5
        0x000039b2:    9f0a        ..      LDR      r7,[sp,#0x28]
        0x000039b4:    463a        :F      MOV      r2,r7
        0x000039b6:    9c09        ..      LDR      r4,[sp,#0x24]
        0x000039b8:    4623        #F      MOV      r3,r4
        0x000039ba:    f7fcfd75    ..u.    BL       __aeabi_dcmplt ; 0x4a8
        0x000039be:    2800        .(      CMP      r0,#0
        0x000039c0:    d100        ..      BNE      0x39c4 ; SX1276FskSetDccBw + 164
        0x000039c2:    4625        %F      MOV      r5,r4
        0x000039c4:    2800        .(      CMP      r0,#0
        0x000039c6:    9a05        ..      LDR      r2,[sp,#0x14]
        0x000039c8:    d100        ..      BNE      0x39cc ; SX1276FskSetDccBw + 172
        0x000039ca:    463e        >F      MOV      r6,r7
        0x000039cc:    2800        .(      CMP      r0,#0
        0x000039ce:    4611        .F      MOV      r1,r2
        0x000039d0:    9b08        ..      LDR      r3,[sp,#0x20]
        0x000039d2:    d100        ..      BNE      0x39d6 ; SX1276FskSetDccBw + 182
        0x000039d4:    9906        ..      LDR      r1,[sp,#0x18]
        0x000039d6:    2800        .(      CMP      r0,#0
        0x000039d8:    4618        .F      MOV      r0,r3
        0x000039da:    d100        ..      BNE      0x39de ; SX1276FskSetDccBw + 190
        0x000039dc:    9807        ..      LDR      r0,[sp,#0x1c]
        0x000039de:    1d1b        ..      ADDS     r3,r3,#4
        0x000039e0:    960a        ..      STR      r6,[sp,#0x28]
        0x000039e2:    9509        ..      STR      r5,[sp,#0x24]
        0x000039e4:    e7bd        ..      B        0x3962 ; SX1276FskSetDccBw + 66
        0x000039e6:    1c52        R.      ADDS     r2,r2,#1
        0x000039e8:    9b0a        ..      LDR      r3,[sp,#0x28]
        0x000039ea:    e7b3        ..      B        0x3954 ; SX1276FskSetDccBw + 52
        0x000039ec:    b2c0        ..      UXTB     r0,r0
        0x000039ee:    2818        .(      CMP      r0,#0x18
        0x000039f0:    9a00        ..      LDR      r2,[sp,#0]
        0x000039f2:    d00e        ..      BEQ      0x3a12 ; SX1276FskSetDccBw + 242
        0x000039f4:    2814        .(      CMP      r0,#0x14
        0x000039f6:    d005        ..      BEQ      0x3a04 ; SX1276FskSetDccBw + 228
        0x000039f8:    2810        .(      CMP      r0,#0x10
        0x000039fa:    d112        ..      BNE      0x3a22 ; SX1276FskSetDccBw + 258
        0x000039fc:    2007        .       MOVS     r0,#7
        0x000039fe:    4001        .@      ANDS     r1,r1,r0
        0x00003a00:    7810        .x      LDRB     r0,[r2,#0]
        0x00003a02:    e00c        ..      B        0x3a1e ; SX1276FskSetDccBw + 254
        0x00003a04:    2007        .       MOVS     r0,#7
        0x00003a06:    4001        .@      ANDS     r1,r1,r0
        0x00003a08:    4608        .F      MOV      r0,r1
        0x00003a0a:    7811        .x      LDRB     r1,[r2,#0]
        0x00003a0c:    4301        .C      ORRS     r1,r1,r0
        0x00003a0e:    2008        .       MOVS     r0,#8
        0x00003a10:    e005        ..      B        0x3a1e ; SX1276FskSetDccBw + 254
        0x00003a12:    2007        .       MOVS     r0,#7
        0x00003a14:    4001        .@      ANDS     r1,r1,r0
        0x00003a16:    4608        .F      MOV      r0,r1
        0x00003a18:    7811        .x      LDRB     r1,[r2,#0]
        0x00003a1a:    4301        .C      ORRS     r1,r1,r0
        0x00003a1c:    2010        .       MOVS     r0,#0x10
        0x00003a1e:    4308        .C      ORRS     r0,r0,r1
        0x00003a20:    7010        .p      STRB     r0,[r2,#0]
        0x00003a22:    48a5        .H      LDR      r0,[pc,#660] ; [0x3cb8] = 0x200003c4
        0x00003a24:    6804        .h      LDR      r4,[r0,#0]
        0x00003a26:    3412        .4      ADDS     r4,r4,#0x12
        0x00003a28:    4294        .B      CMP      r4,r2
        0x00003a2a:    d001        ..      BEQ      0x3a30 ; SX1276FskSetDccBw + 272
        0x00003a2c:    2013        .       MOVS     r0,#0x13
        0x00003a2e:    e000        ..      B        0x3a32 ; SX1276FskSetDccBw + 274
        0x00003a30:    2012        .       MOVS     r0,#0x12
        0x00003a32:    7811        .x      LDRB     r1,[r2,#0]
        0x00003a34:    4615        .F      MOV      r5,r2
        0x00003a36:    f000ffc9    ....    BL       SX1276Write ; 0x49cc
        0x00003a3a:    42ac        .B      CMP      r4,r5
        0x00003a3c:    d001        ..      BEQ      0x3a42 ; SX1276FskSetDccBw + 290
        0x00003a3e:    2014        .       MOVS     r0,#0x14
        0x00003a40:    e000        ..      B        0x3a44 ; SX1276FskSetDccBw + 292
        0x00003a42:    2010        .       MOVS     r0,#0x10
        0x00003a44:    9a01        ..      LDR      r2,[sp,#4]
        0x00003a46:    498f        .I      LDR      r1,[pc,#572] ; [0x3c84] = 0x2000003c
        0x00003a48:    500a        .P      STR      r2,[r1,r0]
        0x00003a4a:    b00b        ..      ADD      sp,sp,#0x2c
        0x00003a4c:    bdf0        ..      POP      {r4-r7,pc}
        0x00003a4e:    46c0        .F      MOV      r8,r8
    $d.21
    __arm_cp.10_1
        0x00003a50:    416312d0    ..cA    DCD    1097011920
    __arm_cp.10_2
        0x00003a54:    3ff00000    ...?    DCD    1072693248
    __arm_cp.10_3
        0x00003a58:    417e8480    ..~A    DCD    1098810496
    $t.8
    SX1276FskSetDefaults
        0x00003a5c:    b580        ..      PUSH     {r7,lr}
        0x00003a5e:    489d        .H      LDR      r0,[pc,#628] ; [0x3cd4] = 0x200003b8
        0x00003a60:    68c1        .h      LDR      r1,[r0,#0xc]
        0x00003a62:    3142        B1      ADDS     r1,r1,#0x42
        0x00003a64:    2042        B       MOVS     r0,#0x42
        0x00003a66:    f000fef5    ....    BL       SX1276Read ; 0x4854
        0x00003a6a:    bd80        ..      POP      {r7,pc}
    $d.9
    __arm_cp.4_0
        0x00003a6c:    200003b8    ...     DCD    536871864
    $t.12
    SX1276FskSetFdev
        0x00003a70:    b570        p.      PUSH     {r4-r6,lr}
        0x00003a72:    4605        .F      MOV      r5,r0
        0x00003a74:    4883        .H      LDR      r0,[pc,#524] ; [0x3c84] = 0x2000003c
        0x00003a76:    6085        .`      STR      r5,[r0,#8]
        0x00003a78:    4ee6        .N      LDR      r6,[pc,#920] ; [0x3e14] = 0x200003c4
        0x00003a7a:    6830        0h      LDR      r0,[r6,#0]
        0x00003a7c:    1d01        ..      ADDS     r1,r0,#4
        0x00003a7e:    2404        .$      MOVS     r4,#4
        0x00003a80:    4620         F      MOV      r0,r4
        0x00003a82:    f000fee7    ....    BL       SX1276Read ; 0x4854
        0x00003a86:    4628        (F      MOV      r0,r5
        0x00003a88:    f7fcfd38    ..8.    BL       __aeabi_ui2d ; 0x4fc
        0x00003a8c:    2200        ."      MOVS     r2,#0
        0x00003a8e:    4b5c        \K      LDR      r3,[pc,#368] ; [0x3c00] = 0x404e8480
        0x00003a90:    f7fcfc92    ....    BL       __aeabi_ddiv ; 0x3b8
        0x00003a94:    f7fcfd40    ..@.    BL       __aeabi_d2iz ; 0x518
        0x00003a98:    6831        1h      LDR      r1,[r6,#0]
        0x00003a9a:    7148        Hq      STRB     r0,[r1,#5]
        0x00003a9c:    0480        ..      LSLS     r0,r0,#18
        0x00003a9e:    0e80        ..      LSRS     r0,r0,#26
        0x00003aa0:    790a        .y      LDRB     r2,[r1,#4]
        0x00003aa2:    23c0        .#      MOVS     r3,#0xc0
        0x00003aa4:    4013        .@      ANDS     r3,r3,r2
        0x00003aa6:    1818        ..      ADDS     r0,r3,r0
        0x00003aa8:    7108        .q      STRB     r0,[r1,#4]
        0x00003aaa:    1d09        ..      ADDS     r1,r1,#4
        0x00003aac:    2202        ."      MOVS     r2,#2
        0x00003aae:    4620         F      MOV      r0,r4
        0x00003ab0:    f000ff94    ....    BL       SX1276WriteBuffer ; 0x49dc
        0x00003ab4:    bd70        p.      POP      {r4-r6,pc}
        0x00003ab6:    46c0        .F      MOV      r8,r8
    $d.13
    __arm_cp.6_2
        0x00003ab8:    404e8480    ..N@    DCD    1078887552
    $t.10
    SX1276FskSetOpMode
        0x00003abc:    b5b0        ..      PUSH     {r4,r5,r7,lr}
        0x00003abe:    4985        .I      LDR      r1,[pc,#532] ; [0x3cd4] = 0x200003b8
        0x00003ac0:    68ca        .h      LDR      r2,[r1,#0xc]
        0x00003ac2:    7851        Qx      LDRB     r1,[r2,#1]
        0x00003ac4:    2307        .#      MOVS     r3,#7
        0x00003ac6:    400b        .@      ANDS     r3,r3,r1
        0x00003ac8:    4283        .B      CMP      r3,r0
        0x00003aca:    d00e        ..      BEQ      0x3aea ; SX1276FskSetOpMode + 46
        0x00003acc:    1ec4        ..      SUBS     r4,r0,#3
        0x00003ace:    4263        cB      RSBS     r3,r4,#0
        0x00003ad0:    4163        cA      ADCS     r3,r3,r4
        0x00003ad2:    4c07        .L      LDR      r4,[pc,#28] ; [0x3af0] = 0x20000093
        0x00003ad4:    7825        %x      LDRB     r5,[r4,#0]
        0x00003ad6:    429d        .B      CMP      r5,r3
        0x00003ad8:    d000        ..      BEQ      0x3adc ; SX1276FskSetOpMode + 32
        0x00003ada:    7023        #p      STRB     r3,[r4,#0]
        0x00003adc:    23f8        .#      MOVS     r3,#0xf8
        0x00003ade:    4019        .@      ANDS     r1,r1,r3
        0x00003ae0:    4301        .C      ORRS     r1,r1,r0
        0x00003ae2:    7051        Qp      STRB     r1,[r2,#1]
        0x00003ae4:    2001        .       MOVS     r0,#1
        0x00003ae6:    f000ff71    ..q.    BL       SX1276Write ; 0x49cc
        0x00003aea:    bdb0        ..      POP      {r4,r5,r7,pc}
    $d.11
    __arm_cp.5_0
        0x00003aec:    200003b8    ...     DCD    536871864
    __arm_cp.5_1
        0x00003af0:    20000093    ...     DCD    536871059
    $t.40
    SX1276FskSetPAOutput
        0x00003af4:    b570        p.      PUSH     {r4-r6,lr}
        0x00003af6:    4604        .F      MOV      r4,r0
        0x00003af8:    4ec6        .N      LDR      r6,[pc,#792] ; [0x3e14] = 0x200003c4
        0x00003afa:    6831        1h      LDR      r1,[r6,#0]
        0x00003afc:    3109        .1      ADDS     r1,r1,#9
        0x00003afe:    2509        .%      MOVS     r5,#9
        0x00003b00:    4628        (F      MOV      r0,r5
        0x00003b02:    f000fea7    ....    BL       SX1276Read ; 0x4854
        0x00003b06:    6830        0h      LDR      r0,[r6,#0]
        0x00003b08:    7a42        Bz      LDRB     r2,[r0,#9]
        0x00003b0a:    217f        .!      MOVS     r1,#0x7f
        0x00003b0c:    4011        .@      ANDS     r1,r1,r2
        0x00003b0e:    4321        !C      ORRS     r1,r1,r4
        0x00003b10:    7241        Ar      STRB     r1,[r0,#9]
        0x00003b12:    4628        (F      MOV      r0,r5
        0x00003b14:    f000ff5a    ..Z.    BL       SX1276Write ; 0x49cc
        0x00003b18:    bd70        p.      POP      {r4-r6,pc}
        0x00003b1a:    46c0        .F      MOV      r8,r8
    SX1276FskSetPa20dBm
        0x00003b1c:    b570        p.      PUSH     {r4-r6,lr}
        0x00003b1e:    4604        .F      MOV      r4,r0
        0x00003b20:    4ebc        .N      LDR      r6,[pc,#752] ; [0x3e14] = 0x200003c4
        0x00003b22:    6831        1h      LDR      r1,[r6,#0]
        0x00003b24:    314d        M1      ADDS     r1,r1,#0x4d
        0x00003b26:    204d        M       MOVS     r0,#0x4d
        0x00003b28:    f000fe94    ....    BL       SX1276Read ; 0x4854
        0x00003b2c:    6831        1h      LDR      r1,[r6,#0]
        0x00003b2e:    3109        .1      ADDS     r1,r1,#9
        0x00003b30:    2509        .%      MOVS     r5,#9
        0x00003b32:    4628        (F      MOV      r0,r5
        0x00003b34:    f000fe8e    ....    BL       SX1276Read ; 0x4854
        0x00003b38:    6830        0h      LDR      r0,[r6,#0]
        0x00003b3a:    5741        AW      LDRSB    r1,[r0,r5]
        0x00003b3c:    304d        M0      ADDS     r0,r0,#0x4d
        0x00003b3e:    2900        .)      CMP      r1,#0
        0x00003b40:    d401        ..      BMI      0x3b46 ; SX1276FskSetPa20dBm + 42
        0x00003b42:    2184        .!      MOVS     r1,#0x84
        0x00003b44:    e002        ..      B        0x3b4c ; SX1276FskSetPa20dBm + 48
        0x00003b46:    2c00        .,      CMP      r4,#0
        0x00003b48:    d005        ..      BEQ      0x3b56 ; SX1276FskSetPa20dBm + 58
        0x00003b4a:    2187        .!      MOVS     r1,#0x87
        0x00003b4c:    7001        .p      STRB     r1,[r0,#0]
        0x00003b4e:    204d        M       MOVS     r0,#0x4d
        0x00003b50:    f000ff3c    ..<.    BL       SX1276Write ; 0x49cc
        0x00003b54:    bd70        p.      POP      {r4-r6,pc}
        0x00003b56:    7801        .x      LDRB     r1,[r0,#0]
        0x00003b58:    e7f9        ..      B        0x3b4e ; SX1276FskSetPa20dBm + 50
        0x00003b5a:    46c0        .F      MOV      r8,r8
    SX1276FskSetPaRamp
        0x00003b5c:    b570        p.      PUSH     {r4-r6,lr}
        0x00003b5e:    4604        .F      MOV      r4,r0
        0x00003b60:    4eac        .N      LDR      r6,[pc,#688] ; [0x3e14] = 0x200003c4
        0x00003b62:    6831        1h      LDR      r1,[r6,#0]
        0x00003b64:    310a        .1      ADDS     r1,r1,#0xa
        0x00003b66:    250a        .%      MOVS     r5,#0xa
        0x00003b68:    4628        (F      MOV      r0,r5
        0x00003b6a:    f000fe73    ..s.    BL       SX1276Read ; 0x4854
        0x00003b6e:    200f        .       MOVS     r0,#0xf
        0x00003b70:    4004        .@      ANDS     r4,r4,r0
        0x00003b72:    6831        1h      LDR      r1,[r6,#0]
        0x00003b74:    7a8a        .z      LDRB     r2,[r1,#0xa]
        0x00003b76:    4382        .C      BICS     r2,r2,r0
        0x00003b78:    1910        ..      ADDS     r0,r2,r4
        0x00003b7a:    7288        .r      STRB     r0,[r1,#0xa]
        0x00003b7c:    b2c1        ..      UXTB     r1,r0
        0x00003b7e:    4628        (F      MOV      r0,r5
        0x00003b80:    f000ff24    ..$.    BL       SX1276Write ; 0x49cc
        0x00003b84:    bd70        p.      POP      {r4-r6,pc}
        0x00003b86:    46c0        .F      MOV      r8,r8
    SX1276FskSetPayloadLength
        0x00003b88:    b510        ..      PUSH     {r4,lr}
        0x00003b8a:    4604        .F      MOV      r4,r0
        0x00003b8c:    48a1        .H      LDR      r0,[pc,#644] ; [0x3e14] = 0x200003c4
        0x00003b8e:    6801        .h      LDR      r1,[r0,#0]
        0x00003b90:    2032        2       MOVS     r0,#0x32
        0x00003b92:    540c        .T      STRB     r4,[r1,r0]
        0x00003b94:    4621        !F      MOV      r1,r4
        0x00003b96:    f000ff19    ....    BL       SX1276Write ; 0x49cc
        0x00003b9a:    483a        :H      LDR      r0,[pc,#232] ; [0x3c84] = 0x2000003c
        0x00003b9c:    7684        .v      STRB     r4,[r0,#0x1a]
        0x00003b9e:    bd10        ..      POP      {r4,pc}
    SX1276FskSetPreambleSize
        0x00003ba0:    b570        p.      PUSH     {r4-r6,lr}
        0x00003ba2:    4604        .F      MOV      r4,r0
        0x00003ba4:    4e9b        .N      LDR      r6,[pc,#620] ; [0x3e14] = 0x200003c4
        0x00003ba6:    6831        1h      LDR      r1,[r6,#0]
        0x00003ba8:    3125        %1      ADDS     r1,r1,#0x25
        0x00003baa:    2525        %%      MOVS     r5,#0x25
        0x00003bac:    2202        ."      MOVS     r2,#2
        0x00003bae:    4628        (F      MOV      r0,r5
        0x00003bb0:    f000fe56    ..V.    BL       SX1276ReadBuffer ; 0x4860
        0x00003bb4:    0a21        !.      LSRS     r1,r4,#8
        0x00003bb6:    6830        0h      LDR      r0,[r6,#0]
        0x00003bb8:    5541        AU      STRB     r1,[r0,r5]
        0x00003bba:    3025        %0      ADDS     r0,r0,#0x25
        0x00003bbc:    7044        Dp      STRB     r4,[r0,#1]
        0x00003bbe:    4628        (F      MOV      r0,r5
        0x00003bc0:    f000ff04    ....    BL       SX1276Write ; 0x49cc
        0x00003bc4:    6831        1h      LDR      r1,[r6,#0]
        0x00003bc6:    2026        &       MOVS     r0,#0x26
        0x00003bc8:    5c09        .\      LDRB     r1,[r1,r0]
        0x00003bca:    f000feff    ....    BL       SX1276Write ; 0x49cc
        0x00003bce:    bd70        p.      POP      {r4-r6,pc}
    SX1276FskSetRFFrequency
        0x00003bd0:    b580        ..      PUSH     {r7,lr}
        0x00003bd2:    492c        ,I      LDR      r1,[pc,#176] ; [0x3c84] = 0x2000003c
        0x00003bd4:    6008        .`      STR      r0,[r1,#0]
        0x00003bd6:    f7fcfc91    ....    BL       __aeabi_ui2d ; 0x4fc
        0x00003bda:    2200        ."      MOVS     r2,#0
        0x00003bdc:    4bd6        .K      LDR      r3,[pc,#856] ; [0x3f38] = 0x404e8480
        0x00003bde:    f7fcfbeb    ....    BL       __aeabi_ddiv ; 0x3b8
        0x00003be2:    f7fcfcbd    ....    BL       __aeabi_d2uiz ; 0x560
        0x00003be6:    498b        .I      LDR      r1,[pc,#556] ; [0x3e14] = 0x200003c4
        0x00003be8:    6809        .h      LDR      r1,[r1,#0]
        0x00003bea:    7208        .r      STRB     r0,[r1,#8]
        0x00003bec:    0a02        ..      LSRS     r2,r0,#8
        0x00003bee:    71ca        .q      STRB     r2,[r1,#7]
        0x00003bf0:    0c00        ..      LSRS     r0,r0,#16
        0x00003bf2:    7188        .q      STRB     r0,[r1,#6]
        0x00003bf4:    1d89        ..      ADDS     r1,r1,#6
        0x00003bf6:    2006        .       MOVS     r0,#6
        0x00003bf8:    2203        ."      MOVS     r2,#3
        0x00003bfa:    f000feef    ....    BL       SX1276WriteBuffer ; 0x49dc
        0x00003bfe:    bd80        ..      POP      {r7,pc}
    $d.3
    __arm_cp.1_1
        0x00003c00:    404e8480    ..N@    DCD    1078887552
    __arm_cp.1_2
        0x00003c04:    200003c4    ...     DCD    536871876
    $t.16
    SX1276FskSetRFPower
        0x00003c08:    b5f8        ..      PUSH     {r3-r7,lr}
        0x00003c0a:    4604        .F      MOV      r4,r0
        0x00003c0c:    4f81        .O      LDR      r7,[pc,#516] ; [0x3e14] = 0x200003c4
        0x00003c0e:    6839        9h      LDR      r1,[r7,#0]
        0x00003c10:    3109        .1      ADDS     r1,r1,#9
        0x00003c12:    2609        .&      MOVS     r6,#9
        0x00003c14:    4630        0F      MOV      r0,r6
        0x00003c16:    f000fe1d    ....    BL       SX1276Read ; 0x4854
        0x00003c1a:    6839        9h      LDR      r1,[r7,#0]
        0x00003c1c:    314d        M1      ADDS     r1,r1,#0x4d
        0x00003c1e:    254d        M%      MOVS     r5,#0x4d
        0x00003c20:    4628        (F      MOV      r0,r5
        0x00003c22:    f000fe17    ....    BL       SX1276Read ; 0x4854
        0x00003c26:    6838        8h      LDR      r0,[r7,#0]
        0x00003c28:    5781        .W      LDRSB    r1,[r0,r6]
        0x00003c2a:    2900        .)      CMP      r1,#0
        0x00003c2c:    d408        ..      BMI      0x3c40 ; SX1276FskSetRFPower + 56
        0x00003c2e:    17e2        ..      ASRS     r2,r4,#31
        0x00003c30:    4322        "C      ORRS     r2,r2,r4
        0x00003c32:    2a0e        .*      CMP      r2,#0xe
        0x00003c34:    db00        ..      BLT      0x3c38 ; SX1276FskSetRFPower + 48
        0x00003c36:    220e        ."      MOVS     r2,#0xe
        0x00003c38:    4611        .F      MOV      r1,r2
        0x00003c3a:    3171        q1      ADDS     r1,r1,#0x71
        0x00003c3c:    4614        .F      MOV      r4,r2
        0x00003c3e:    e018        ..      B        0x3c72 ; SX1276FskSetRFPower + 106
        0x00003c40:    5d41        A]      LDRB     r1,[r0,r5]
        0x00003c42:    2287        ."      MOVS     r2,#0x87
        0x00003c44:    400a        .@      ANDS     r2,r2,r1
        0x00003c46:    2a87        .*      CMP      r2,#0x87
        0x00003c48:    d108        ..      BNE      0x3c5c ; SX1276FskSetRFPower + 84
        0x00003c4a:    2c05        .,      CMP      r4,#5
        0x00003c4c:    dc00        ..      BGT      0x3c50 ; SX1276FskSetRFPower + 72
        0x00003c4e:    2405        .$      MOVS     r4,#5
        0x00003c50:    2c14        .,      CMP      r4,#0x14
        0x00003c52:    d300        ..      BCC      0x3c56 ; SX1276FskSetRFPower + 78
        0x00003c54:    2414        .$      MOVS     r4,#0x14
        0x00003c56:    4622        "F      MOV      r2,r4
        0x00003c58:    320b        .2      ADDS     r2,r2,#0xb
        0x00003c5a:    e007        ..      B        0x3c6c ; SX1276FskSetRFPower + 100
        0x00003c5c:    2c02        .,      CMP      r4,#2
        0x00003c5e:    dc00        ..      BGT      0x3c62 ; SX1276FskSetRFPower + 90
        0x00003c60:    2402        .$      MOVS     r4,#2
        0x00003c62:    2c11        .,      CMP      r4,#0x11
        0x00003c64:    d300        ..      BCC      0x3c68 ; SX1276FskSetRFPower + 96
        0x00003c66:    2411        .$      MOVS     r4,#0x11
        0x00003c68:    4622        "F      MOV      r2,r4
        0x00003c6a:    320e        .2      ADDS     r2,r2,#0xe
        0x00003c6c:    210f        .!      MOVS     r1,#0xf
        0x00003c6e:    43c9        .C      MVNS     r1,r1
        0x00003c70:    4311        .C      ORRS     r1,r1,r2
        0x00003c72:    7241        Ar      STRB     r1,[r0,#9]
        0x00003c74:    b2c9        ..      UXTB     r1,r1
        0x00003c76:    2009        .       MOVS     r0,#9
        0x00003c78:    f000fea8    ....    BL       SX1276Write ; 0x49cc
        0x00003c7c:    4801        .H      LDR      r0,[pc,#4] ; [0x3c84] = 0x2000003c
        0x00003c7e:    7304        .s      STRB     r4,[r0,#0xc]
        0x00003c80:    bdf8        ..      POP      {r3-r7,pc}
        0x00003c82:    46c0        .F      MOV      r8,r8
    $d.17
    __arm_cp.8_1
        0x00003c84:    2000003c    <..     DCD    536870972
    $t.30
    SX1276FskSetRFState
        0x00003c88:    4912        .I      LDR      r1,[pc,#72] ; [0x3cd4] = 0x200003b8
        0x00003c8a:    7008        .p      STRB     r0,[r1,#0]
        0x00003c8c:    4770        pG      BX       lr
        0x00003c8e:    46c0        .F      MOV      r8,r8
    SX1276FskSetRssiOffset
        0x00003c90:    b570        p.      PUSH     {r4-r6,lr}
        0x00003c92:    4604        .F      MOV      r4,r0
        0x00003c94:    4e5f        _N      LDR      r6,[pc,#380] ; [0x3e14] = 0x200003c4
        0x00003c96:    6831        1h      LDR      r1,[r6,#0]
        0x00003c98:    310e        .1      ADDS     r1,r1,#0xe
        0x00003c9a:    250e        .%      MOVS     r5,#0xe
        0x00003c9c:    4628        (F      MOV      r0,r5
        0x00003c9e:    f000fdd9    ....    BL       SX1276Read ; 0x4854
        0x00003ca2:    00e0        ..      LSLS     r0,r4,#3
        0x00003ca4:    6831        1h      LDR      r1,[r6,#0]
        0x00003ca6:    7b8a        .{      LDRB     r2,[r1,#0xe]
        0x00003ca8:    4302        .C      ORRS     r2,r2,r0
        0x00003caa:    738a        .s      STRB     r2,[r1,#0xe]
        0x00003cac:    b2d1        ..      UXTB     r1,r2
        0x00003cae:    4628        (F      MOV      r0,r5
        0x00003cb0:    f000fe8c    ....    BL       SX1276Write ; 0x49cc
        0x00003cb4:    bd70        p.      POP      {r4-r6,pc}
        0x00003cb6:    46c0        .F      MOV      r8,r8
    $d.49
    __arm_cp.24_0
        0x00003cb8:    200003c4    ...     DCD    536871876
    $t.34
    SX1276FskSetTxPacket
        0x00003cbc:    b510        ..      PUSH     {r4,lr}
        0x00003cbe:    460a        .F      MOV      r2,r1
        0x00003cc0:    4601        .F      MOV      r1,r0
        0x00003cc2:    4c04        .L      LDR      r4,[pc,#16] ; [0x3cd4] = 0x200003b8
        0x00003cc4:    8162        b.      STRH     r2,[r4,#0xa]
        0x00003cc6:    4804        .H      LDR      r0,[pc,#16] ; [0x3cd8] = 0x20000438
        0x00003cc8:    f7fcfa2a    ..*.    BL       __aeabi_memcpy ; 0x120
        0x00003ccc:    2007        .       MOVS     r0,#7
        0x00003cce:    7020         p      STRB     r0,[r4,#0]
        0x00003cd0:    bd10        ..      POP      {r4,pc}
        0x00003cd2:    46c0        .F      MOV      r8,r8
    $d.35
    __arm_cp.17_0
        0x00003cd4:    200003b8    ...     DCD    536871864
    __arm_cp.17_1
        0x00003cd8:    20000438    8..     DCD    536871992
    $t.2
    SX1276GetMode
        0x00003cdc:    484c        LH      LDR      r0,[pc,#304] ; [0x3e10] = 0x20000260
        0x00003cde:    7800        .x      LDRB     r0,[r0,#0]
        0x00003ce0:    4770        pG      BX       lr
        0x00003ce2:    46c0        .F      MOV      r8,r8
    SX1276GetPacketRssi
        0x00003ce4:    b580        ..      PUSH     {r7,lr}
        0x00003ce6:    484a        JH      LDR      r0,[pc,#296] ; [0x3e10] = 0x20000260
        0x00003ce8:    7800        .x      LDRB     r0,[r0,#0]
        0x00003cea:    2800        .(      CMP      r0,#0
        0x00003cec:    d002        ..      BEQ      0x3cf4 ; SX1276GetPacketRssi + 16
        0x00003cee:    f000f8f5    ....    BL       SX1276LoRaGetPacketRssi ; 0x3edc
        0x00003cf2:    bd80        ..      POP      {r7,pc}
        0x00003cf4:    f7fffa98    ....    BL       SX1276FskGetPacketRssi ; 0x3228
        0x00003cf8:    bd80        ..      POP      {r7,pc}
        0x00003cfa:    46c0        .F      MOV      r8,r8
    SX1276GetRxPacket
        0x00003cfc:    b580        ..      PUSH     {r7,lr}
        0x00003cfe:    4a44        DJ      LDR      r2,[pc,#272] ; [0x3e10] = 0x20000260
        0x00003d00:    7812        .x      LDRB     r2,[r2,#0]
        0x00003d02:    2a00        .*      CMP      r2,#0
        0x00003d04:    d002        ..      BEQ      0x3d0c ; SX1276GetRxPacket + 16
        0x00003d06:    f000f93d    ..=.    BL       SX1276LoRaGetRxPacket ; 0x3f84
        0x00003d0a:    bd80        ..      POP      {r7,pc}
        0x00003d0c:    f7fffac2    ....    BL       SX1276FskGetRxPacket ; 0x3294
        0x00003d10:    bd80        ..      POP      {r7,pc}
        0x00003d12:    46c0        .F      MOV      r8,r8
    SX1276GetTimeOnAir
        0x00003d14:    b5f8        ..      PUSH     {r3-r7,lr}
        0x00003d16:    4b2d        -K      LDR      r3,[pc,#180] ; [0x3dcc] = 0x20000058
        0x00003d18:    7b18        .{      LDRB     r0,[r3,#0xc]
        0x00003d1a:    7f1a        ..      LDRB     r2,[r3,#0x1c]
        0x00003d1c:    7f5e        ^.      LDRB     r6,[r3,#0x1d]
        0x00003d1e:    7ad9        .z      LDRB     r1,[r3,#0xb]
        0x00003d20:    9100        ..      STR      r1,[sp,#0]
        0x00003d22:    7a59        Yz      LDRB     r1,[r3,#9]
        0x00003d24:    7a9d        .z      LDRB     r5,[r3,#0xa]
        0x00003d26:    2900        .)      CMP      r1,#0
        0x00003d28:    d103        ..      BNE      0x3d32 ; SX1276GetTimeOnAir + 30
        0x00003d2a:    462b        +F      MOV      r3,r5
        0x00003d2c:    3b0b        .;      SUBS     r3,r3,#0xb
        0x00003d2e:    2b02        .+      CMP      r3,#2
        0x00003d30:    d304        ..      BCC      0x3d3c ; SX1276GetTimeOnAir + 40
        0x00003d32:    2300        .#      MOVS     r3,#0
        0x00003d34:    2901        .)      CMP      r1,#1
        0x00003d36:    d102        ..      BNE      0x3d3e ; SX1276GetTimeOnAir + 42
        0x00003d38:    2d0c        .-      CMP      r5,#0xc
        0x00003d3a:    d100        ..      BNE      0x3d3e ; SX1276GetTimeOnAir + 42
        0x00003d3c:    2301        .#      MOVS     r3,#1
        0x00003d3e:    1fc9        ..      SUBS     r1,r1,#7
        0x00003d40:    b2c9        ..      UXTB     r1,r1
        0x00003d42:    2902        .)      CMP      r1,#2
        0x00003d44:    d803        ..      BHI      0x3d4e ; SX1276GetTimeOnAir + 58
        0x00003d46:    0089        ..      LSLS     r1,r1,#2
        0x00003d48:    a421        !.      ADR      r4,{pc}+0x88 ; 0x3dd0
        0x00003d4a:    5864        dX      LDR      r4,[r4,r1]
        0x00003d4c:    e000        ..      B        0x3d50 ; SX1276GetTimeOnAir + 60
        0x00003d4e:    2400        .$      MOVS     r4,#0
        0x00003d50:    2d07        .-      CMP      r5,#7
        0x00003d52:    d301        ..      BCC      0x3d58 ; SX1276GetTimeOnAir + 68
        0x00003d54:    271c        .'      MOVS     r7,#0x1c
        0x00003d56:    e000        ..      B        0x3d5a ; SX1276GetTimeOnAir + 70
        0x00003d58:    2714        .'      MOVS     r7,#0x14
        0x00003d5a:    00a9        ..      LSLS     r1,r5,#2
        0x00003d5c:    1a7f        ..      SUBS     r7,r7,r1
        0x00003d5e:    00d2        ..      LSLS     r2,r2,#3
        0x00003d60:    18ba        ..      ADDS     r2,r7,r2
        0x00003d62:    2800        .(      CMP      r0,#0
        0x00003d64:    d000        ..      BEQ      0x3d68 ; SX1276GetTimeOnAir + 84
        0x00003d66:    3210        .2      ADDS     r2,r2,#0x10
        0x00003d68:    17d0        ..      ASRS     r0,r2,#31
        0x00003d6a:    2b00        .+      CMP      r3,#0
        0x00003d6c:    d101        ..      BNE      0x3d72 ; SX1276GetTimeOnAir + 94
        0x00003d6e:    460b        .F      MOV      r3,r1
        0x00003d70:    e001        ..      B        0x3d76 ; SX1276GetTimeOnAir + 98
        0x00003d72:    460b        .F      MOV      r3,r1
        0x00003d74:    3b08        .;      SUBS     r3,r3,#8
        0x00003d76:    4382        .C      BICS     r2,r2,r0
        0x00003d78:    2d07        .-      CMP      r5,#7
        0x00003d7a:    d300        ..      BCC      0x3d7e ; SX1276GetTimeOnAir + 106
        0x00003d7c:    4619        .F      MOV      r1,r3
        0x00003d7e:    1850        P.      ADDS     r0,r2,r1
        0x00003d80:    1e40        @.      SUBS     r0,r0,#1
        0x00003d82:    b200        ..      SXTH     r0,r0
        0x00003d84:    f7fcfc2a    ..*.    BL       __aeabi_idiv ; 0x5dc
        0x00003d88:    220c        ."      MOVS     r2,#0xc
        0x00003d8a:    2d07        .-      CMP      r5,#7
        0x00003d8c:    d301        ..      BCC      0x3d92 ; SX1276GetTimeOnAir + 126
        0x00003d8e:    4611        .F      MOV      r1,r2
        0x00003d90:    e000        ..      B        0x3d94 ; SX1276GetTimeOnAir + 128
        0x00003d92:    210e        .!      MOVS     r1,#0xe
        0x00003d94:    b200        ..      SXTH     r0,r0
        0x00003d96:    9b00        ..      LDR      r3,[sp,#0]
        0x00003d98:    1d1f        ..      ADDS     r7,r3,#4
        0x00003d9a:    2e0c        ..      CMP      r6,#0xc
        0x00003d9c:    4633        3F      MOV      r3,r6
        0x00003d9e:    d800        ..      BHI      0x3da2 ; SX1276GetTimeOnAir + 142
        0x00003da0:    4613        .F      MOV      r3,r2
        0x00003da2:    4378        xC      MULS     r0,r7,r0
        0x00003da4:    1f6a        j.      SUBS     r2,r5,#5
        0x00003da6:    2a02        .*      CMP      r2,#2
        0x00003da8:    d300        ..      BCC      0x3dac ; SX1276GetTimeOnAir + 152
        0x00003daa:    4633        3F      MOV      r3,r6
        0x00003dac:    18c9        ..      ADDS     r1,r1,r3
        0x00003dae:    1808        ..      ADDS     r0,r1,r0
        0x00003db0:    0080        ..      LSLS     r0,r0,#2
        0x00003db2:    1c40        @.      ADDS     r0,r0,#1
        0x00003db4:    1ea9        ..      SUBS     r1,r5,#2
        0x00003db6:    4088        .@      LSLS     r0,r0,r1
        0x00003db8:    217d        }!      MOVS     r1,#0x7d
        0x00003dba:    00c9        ..      LSLS     r1,r1,#3
        0x00003dbc:    4341        AC      MULS     r1,r0,r1
        0x00003dbe:    1860        `.      ADDS     r0,r4,r1
        0x00003dc0:    1e40        @.      SUBS     r0,r0,#1
        0x00003dc2:    4621        !F      MOV      r1,r4
        0x00003dc4:    f7fcfbea    ....    BL       __aeabi_uidiv ; 0x59c
        0x00003dc8:    bdf8        ..      POP      {r3-r7,pc}
        0x00003dca:    46c0        .F      MOV      r8,r8
    $d.47
    __arm_cp.22_0
        0x00003dcc:    20000058    X..     DCD    536871000
        0x00003dd0:    0001e848    H...    DCD    125000
        0x00003dd4:    0003d090    ....    DCD    250000
        0x00003dd8:    0007a120     ...    DCD    500000
    $t.4
    SX1276Init
        0x00003ddc:    b510        ..      PUSH     {r4,lr}
        0x00003dde:    4c0c        .L      LDR      r4,[pc,#48] ; [0x3e10] = 0x20000260
        0x00003de0:    1c60        `.      ADDS     r0,r4,#1
        0x00003de2:    490c        .I      LDR      r1,[pc,#48] ; [0x3e14] = 0x200003c4
        0x00003de4:    6008        .`      STR      r0,[r1,#0]
        0x00003de6:    497d        }I      LDR      r1,[pc,#500] ; [0x3fdc] = 0x200003f0
        0x00003de8:    6008        .`      STR      r0,[r1,#0]
        0x00003dea:    f000f815    ....    BL       SX1276InitIO ; 0x3e18
        0x00003dee:    f000fd55    ..U.    BL       SX1276Reset ; 0x489c
        0x00003df2:    7820         x      LDRB     r0,[r4,#0]
        0x00003df4:    2800        .(      CMP      r0,#0
        0x00003df6:    d004        ..      BEQ      0x3e02 ; SX1276Init + 38
        0x00003df8:    f000fd62    ..b.    BL       SX1276SetLoRaOn ; 0x48c0
        0x00003dfc:    f000f8fe    ....    BL       SX1276LoRaInit ; 0x3ffc
        0x00003e00:    bd10        ..      POP      {r4,pc}
        0x00003e02:    2000        .       MOVS     r0,#0
        0x00003e04:    f000fd5c    ..\.    BL       SX1276SetLoRaOn ; 0x48c0
        0x00003e08:    f7fffa88    ....    BL       SX1276FskInit ; 0x331c
        0x00003e0c:    bd10        ..      POP      {r4,pc}
        0x00003e0e:    46c0        .F      MOV      r8,r8
    $d.5
    __arm_cp.2_0
        0x00003e10:    20000260    `..     DCD    536871520
    __arm_cp.2_1
        0x00003e14:    200003c4    ...     DCD    536871876
    $t.0
    SX1276InitIO
        0x00003e18:    b5fe        ..      PUSH     {r1-r7,lr}
        0x00003e1a:    481d        .H      LDR      r0,[pc,#116] ; [0x3e90] = 0xf4240
        0x00003e1c:    9000        ..      STR      r0,[sp,#0]
        0x00003e1e:    4c1d        .L      LDR      r4,[pc,#116] ; [0x3e94] = 0x40030000
        0x00003e20:    2500        .%      MOVS     r5,#0
        0x00003e22:    2204        ."      MOVS     r2,#4
        0x00003e24:    9201        ..      STR      r2,[sp,#4]
        0x00003e26:    2308        .#      MOVS     r3,#8
        0x00003e28:    9302        ..      STR      r3,[sp,#8]
        0x00003e2a:    4620         F      MOV      r0,r4
        0x00003e2c:    4629        )F      MOV      r1,r5
        0x00003e2e:    f7fff8f5    ....    BL       SPI_Open ; 0x301c
        0x00003e32:    6820         h      LDR      r0,[r4,#0]
        0x00003e34:    2140        @!      MOVS     r1,#0x40
        0x00003e36:    4301        .C      ORRS     r1,r1,r0
        0x00003e38:    20b8        .       MOVS     r0,#0xb8
        0x00003e3a:    4381        .C      BICS     r1,r1,r0
        0x00003e3c:    6021        !`      STR      r1,[r4,#0]
        0x00003e3e:    2601        .&      MOVS     r6,#1
        0x00003e40:    02b0        ..      LSLS     r0,r6,#10
        0x00003e42:    6821        !h      LDR      r1,[r4,#0]
        0x00003e44:    4381        .C      BICS     r1,r1,r0
        0x00003e46:    6021        !`      STR      r1,[r4,#0]
        0x00003e48:    4620         F      MOV      r0,r4
        0x00003e4a:    4631        1F      MOV      r1,r6
        0x00003e4c:    462a        *F      MOV      r2,r5
        0x00003e4e:    f7fff8dc    ....    BL       SPI_EnableAutoSS ; 0x300a
        0x00003e52:    4620         F      MOV      r0,r4
        0x00003e54:    f7fff8d4    ....    BL       SPI_DisableAutoSS ; 0x3000
        0x00003e58:    4c0f        .L      LDR      r4,[pc,#60] ; [0x3e98] = 0x50004000
        0x00003e5a:    3440        @4      ADDS     r4,r4,#0x40
        0x00003e5c:    4f0f        .O      LDR      r7,[pc,#60] ; [0x3e9c] = 0x1a65
        0x00003e5e:    4620         F      MOV      r0,r4
        0x00003e60:    9901        ..      LDR      r1,[sp,#4]
        0x00003e62:    462a        *F      MOV      r2,r5
        0x00003e64:    47b8        .G      BLX      r7
        0x00003e66:    03f1        ..      LSLS     r1,r6,#15
        0x00003e68:    480b        .H      LDR      r0,[pc,#44] ; [0x3e98] = 0x50004000
        0x00003e6a:    462a        *F      MOV      r2,r5
        0x00003e6c:    47b8        .G      BLX      r7
        0x00003e6e:    03b1        ..      LSLS     r1,r6,#14
        0x00003e70:    4809        .H      LDR      r0,[pc,#36] ; [0x3e98] = 0x50004000
        0x00003e72:    462a        *F      MOV      r2,r5
        0x00003e74:    47b8        .G      BLX      r7
        0x00003e76:    4620         F      MOV      r0,r4
        0x00003e78:    4631        1F      MOV      r1,r6
        0x00003e7a:    462a        *F      MOV      r2,r5
        0x00003e7c:    47b8        .G      BLX      r7
        0x00003e7e:    2102        .!      MOVS     r1,#2
        0x00003e80:    4620         F      MOV      r0,r4
        0x00003e82:    462a        *F      MOV      r2,r5
        0x00003e84:    47b8        .G      BLX      r7
        0x00003e86:    4620         F      MOV      r0,r4
        0x00003e88:    9902        ..      LDR      r1,[sp,#8]
        0x00003e8a:    4632        2F      MOV      r2,r6
        0x00003e8c:    47b8        .G      BLX      r7
        0x00003e8e:    bdfe        ..      POP      {r1-r7,pc}
    $d.1
    __arm_cp.0_0
        0x00003e90:    000f4240    @B..    DCD    1000000
    __arm_cp.0_1
        0x00003e94:    40030000    ...@    DCD    1073938432
    __arm_cp.0_2
        0x00003e98:    50004000    .@.P    DCD    1342193664
    __arm_cp.0_3
        0x00003e9c:    00001a65    e...    DCD    6757
    $t.20
    SX1276LoRaGetErrorCoding
        0x00003ea0:    b510        ..      PUSH     {r4,lr}
        0x00003ea2:    4c4e        NL      LDR      r4,[pc,#312] ; [0x3fdc] = 0x200003f0
        0x00003ea4:    6821        !h      LDR      r1,[r4,#0]
        0x00003ea6:    311d        .1      ADDS     r1,r1,#0x1d
        0x00003ea8:    201d        .       MOVS     r0,#0x1d
        0x00003eaa:    f000fcd3    ....    BL       SX1276Read ; 0x4854
        0x00003eae:    6820         h      LDR      r0,[r4,#0]
        0x00003eb0:    7f40        @.      LDRB     r0,[r0,#0x1d]
        0x00003eb2:    0700        ..      LSLS     r0,r0,#28
        0x00003eb4:    0f40        @.      LSRS     r0,r0,#29
        0x00003eb6:    494a        JI      LDR      r1,[pc,#296] ; [0x3fe0] = 0x2000005c
        0x00003eb8:    71c8        .q      STRB     r0,[r1,#7]
        0x00003eba:    bd10        ..      POP      {r4,pc}
    SX1276LoRaGetPacketCrcOn
        0x00003ebc:    b510        ..      PUSH     {r4,lr}
        0x00003ebe:    4c47        GL      LDR      r4,[pc,#284] ; [0x3fdc] = 0x200003f0
        0x00003ec0:    6821        !h      LDR      r1,[r4,#0]
        0x00003ec2:    311e        .1      ADDS     r1,r1,#0x1e
        0x00003ec4:    201e        .       MOVS     r0,#0x1e
        0x00003ec6:    f000fcc5    ....    BL       SX1276Read ; 0x4854
        0x00003eca:    6820         h      LDR      r0,[r4,#0]
        0x00003ecc:    7f80        ..      LDRB     r0,[r0,#0x1e]
        0x00003ece:    0841        A.      LSRS     r1,r0,#1
        0x00003ed0:    2002        .       MOVS     r0,#2
        0x00003ed2:    4008        .@      ANDS     r0,r0,r1
        0x00003ed4:    4942        BI      LDR      r1,[pc,#264] ; [0x3fe0] = 0x2000005c
        0x00003ed6:    7208        .r      STRB     r0,[r1,#8]
        0x00003ed8:    bd10        ..      POP      {r4,pc}
        0x00003eda:    46c0        .F      MOV      r8,r8
    SX1276LoRaGetPacketRssi
        0x00003edc:    4978        xI      LDR      r1,[pc,#480] ; [0x40c0] = 0x200003e8
        0x00003ede:    6988        .i      LDR      r0,[r1,#0x18]
        0x00003ee0:    69c9        .i      LDR      r1,[r1,#0x1c]
        0x00003ee2:    4770        pG      BX       lr
    SX1276LoRaGetPayloadLength
        0x00003ee4:    b5b0        ..      PUSH     {r4,r5,r7,lr}
        0x00003ee6:    4d3d        =M      LDR      r5,[pc,#244] ; [0x3fdc] = 0x200003f0
        0x00003ee8:    6829        )h      LDR      r1,[r5,#0]
        0x00003eea:    3122        "1      ADDS     r1,r1,#0x22
        0x00003eec:    2422        "$      MOVS     r4,#0x22
        0x00003eee:    4620         F      MOV      r0,r4
        0x00003ef0:    f000fcb0    ....    BL       SX1276Read ; 0x4854
        0x00003ef4:    6828        (h      LDR      r0,[r5,#0]
        0x00003ef6:    5d00        .]      LDRB     r0,[r0,r4]
        0x00003ef8:    4939        9I      LDR      r1,[pc,#228] ; [0x3fe0] = 0x2000005c
        0x00003efa:    7608        .v      STRB     r0,[r1,#0x18]
        0x00003efc:    bdb0        ..      POP      {r4,r5,r7,pc}
        0x00003efe:    46c0        .F      MOV      r8,r8
    SX1276LoRaGetRFFrequency
        0x00003f00:    b510        ..      PUSH     {r4,lr}
        0x00003f02:    4c36        6L      LDR      r4,[pc,#216] ; [0x3fdc] = 0x200003f0
        0x00003f04:    6820         h      LDR      r0,[r4,#0]
        0x00003f06:    1d81        ..      ADDS     r1,r0,#6
        0x00003f08:    2006        .       MOVS     r0,#6
        0x00003f0a:    2203        ."      MOVS     r2,#3
        0x00003f0c:    f000fca8    ....    BL       SX1276ReadBuffer ; 0x4860
        0x00003f10:    6820         h      LDR      r0,[r4,#0]
        0x00003f12:    7981        .y      LDRB     r1,[r0,#6]
        0x00003f14:    0409        ..      LSLS     r1,r1,#16
        0x00003f16:    79c2        .y      LDRB     r2,[r0,#7]
        0x00003f18:    0212        ..      LSLS     r2,r2,#8
        0x00003f1a:    1851        Q.      ADDS     r1,r2,r1
        0x00003f1c:    7a00        .z      LDRB     r0,[r0,#8]
        0x00003f1e:    1808        ..      ADDS     r0,r1,r0
        0x00003f20:    f7fcfad8    ....    BL       __aeabi_i2d ; 0x4d4
        0x00003f24:    2200        ."      MOVS     r2,#0
        0x00003f26:    4b04        .K      LDR      r3,[pc,#16] ; [0x3f38] = 0x404e8480
        0x00003f28:    f7fcf9de    ....    BL       __aeabi_dmul ; 0x2e8
        0x00003f2c:    f7fcfb18    ....    BL       __aeabi_d2uiz ; 0x560
        0x00003f30:    492b        +I      LDR      r1,[pc,#172] ; [0x3fe0] = 0x2000005c
        0x00003f32:    6008        .`      STR      r0,[r1,#0]
        0x00003f34:    bd10        ..      POP      {r4,pc}
        0x00003f36:    46c0        .F      MOV      r8,r8
    $d.3
    __arm_cp.1_1
        0x00003f38:    404e8480    ..N@    DCD    1078887552
    $t.6
    SX1276LoRaGetRFPower
        0x00003f3c:    b570        p.      PUSH     {r4-r6,lr}
        0x00003f3e:    4e27        'N      LDR      r6,[pc,#156] ; [0x3fdc] = 0x200003f0
        0x00003f40:    6831        1h      LDR      r1,[r6,#0]
        0x00003f42:    3109        .1      ADDS     r1,r1,#9
        0x00003f44:    2509        .%      MOVS     r5,#9
        0x00003f46:    4628        (F      MOV      r0,r5
        0x00003f48:    f000fc84    ....    BL       SX1276Read ; 0x4854
        0x00003f4c:    6831        1h      LDR      r1,[r6,#0]
        0x00003f4e:    314d        M1      ADDS     r1,r1,#0x4d
        0x00003f50:    244d        M$      MOVS     r4,#0x4d
        0x00003f52:    4620         F      MOV      r0,r4
        0x00003f54:    f000fc7e    ..~.    BL       SX1276Read ; 0x4854
        0x00003f58:    6831        1h      LDR      r1,[r6,#0]
        0x00003f5a:    5748        HW      LDRSB    r0,[r1,r5]
        0x00003f5c:    2800        .(      CMP      r0,#0
        0x00003f5e:    d403        ..      BMI      0x3f68 ; SX1276LoRaGetRFPower + 44
        0x00003f60:    210f        .!      MOVS     r1,#0xf
        0x00003f62:    4008        .@      ANDS     r0,r0,r1
        0x00003f64:    1e40        @.      SUBS     r0,r0,#1
        0x00003f66:    e009        ..      B        0x3f7c ; SX1276LoRaGetRFPower + 64
        0x00003f68:    220f        ."      MOVS     r2,#0xf
        0x00003f6a:    4010        .@      ANDS     r0,r0,r2
        0x00003f6c:    5d09        .]      LDRB     r1,[r1,r4]
        0x00003f6e:    2207        ."      MOVS     r2,#7
        0x00003f70:    400a        .@      ANDS     r2,r2,r1
        0x00003f72:    2a07        .*      CMP      r2,#7
        0x00003f74:    d101        ..      BNE      0x3f7a ; SX1276LoRaGetRFPower + 62
        0x00003f76:    1d40        @.      ADDS     r0,r0,#5
        0x00003f78:    e000        ..      B        0x3f7c ; SX1276LoRaGetRFPower + 64
        0x00003f7a:    1c80        ..      ADDS     r0,r0,#2
        0x00003f7c:    4918        .I      LDR      r1,[pc,#96] ; [0x3fe0] = 0x2000005c
        0x00003f7e:    7108        .q      STRB     r0,[r1,#4]
        0x00003f80:    b2c0        ..      UXTB     r0,r0
        0x00003f82:    bd70        p.      POP      {r4-r6,pc}
    SX1276LoRaGetRxPacket
        0x00003f84:    b580        ..      PUSH     {r7,lr}
        0x00003f86:    494e        NI      LDR      r1,[pc,#312] ; [0x40c0] = 0x200003e8
        0x00003f88:    898a        ..      LDRH     r2,[r1,#0xc]
        0x00003f8a:    2300        .#      MOVS     r3,#0
        0x00003f8c:    60cb        .`      STR      r3,[r1,#0xc]
        0x00003f8e:    4902        .I      LDR      r1,[pc,#8] ; [0x3f98] = 0x20000538
        0x00003f90:    f7fcf8c6    ....    BL       __aeabi_memcpy ; 0x120
        0x00003f94:    bd80        ..      POP      {r7,pc}
        0x00003f96:    46c0        .F      MOV      r8,r8
    $d.25
    __arm_cp.12_1
        0x00003f98:    20000538    8..     DCD    536872248
    $t.52
    SX1276LoRaGetRxPacketTimeout
        0x00003f9c:    4810        .H      LDR      r0,[pc,#64] ; [0x3fe0] = 0x2000005c
        0x00003f9e:    6940        @i      LDR      r0,[r0,#0x14]
        0x00003fa0:    4770        pG      BX       lr
        0x00003fa2:    46c0        .F      MOV      r8,r8
    SX1276LoRaGetSignalBandwidth
        0x00003fa4:    b510        ..      PUSH     {r4,lr}
        0x00003fa6:    4c0d        .L      LDR      r4,[pc,#52] ; [0x3fdc] = 0x200003f0
        0x00003fa8:    6821        !h      LDR      r1,[r4,#0]
        0x00003faa:    311d        .1      ADDS     r1,r1,#0x1d
        0x00003fac:    201d        .       MOVS     r0,#0x1d
        0x00003fae:    f000fc51    ..Q.    BL       SX1276Read ; 0x4854
        0x00003fb2:    6820         h      LDR      r0,[r4,#0]
        0x00003fb4:    7f40        @.      LDRB     r0,[r0,#0x1d]
        0x00003fb6:    0900        ..      LSRS     r0,r0,#4
        0x00003fb8:    4909        .I      LDR      r1,[pc,#36] ; [0x3fe0] = 0x2000005c
        0x00003fba:    7148        Hq      STRB     r0,[r1,#5]
        0x00003fbc:    bd10        ..      POP      {r4,pc}
        0x00003fbe:    46c0        .F      MOV      r8,r8
    SX1276LoRaGetSpreadingFactor
        0x00003fc0:    b510        ..      PUSH     {r4,lr}
        0x00003fc2:    4c06        .L      LDR      r4,[pc,#24] ; [0x3fdc] = 0x200003f0
        0x00003fc4:    6821        !h      LDR      r1,[r4,#0]
        0x00003fc6:    311e        .1      ADDS     r1,r1,#0x1e
        0x00003fc8:    201e        .       MOVS     r0,#0x1e
        0x00003fca:    f000fc43    ..C.    BL       SX1276Read ; 0x4854
        0x00003fce:    6820         h      LDR      r0,[r4,#0]
        0x00003fd0:    7f80        ..      LDRB     r0,[r0,#0x1e]
        0x00003fd2:    0900        ..      LSRS     r0,r0,#4
        0x00003fd4:    4902        .I      LDR      r1,[pc,#8] ; [0x3fe0] = 0x2000005c
        0x00003fd6:    7188        .q      STRB     r0,[r1,#6]
        0x00003fd8:    bd10        ..      POP      {r4,pc}
        0x00003fda:    46c0        .F      MOV      r8,r8
    $d.17
    __arm_cp.8_0
        0x00003fdc:    200003f0    ...     DCD    536871920
    __arm_cp.8_1
        0x00003fe0:    2000005c    \..     DCD    536871004
    $t.0
    SX1276LoRaGetVersion
        0x00003fe4:    b5b0        ..      PUSH     {r4,r5,r7,lr}
        0x00003fe6:    4d36        6M      LDR      r5,[pc,#216] ; [0x40c0] = 0x200003e8
        0x00003fe8:    68a9        .h      LDR      r1,[r5,#8]
        0x00003fea:    3142        B1      ADDS     r1,r1,#0x42
        0x00003fec:    2442        B$      MOVS     r4,#0x42
        0x00003fee:    4620         F      MOV      r0,r4
        0x00003ff0:    f000fc30    ..0.    BL       SX1276Read ; 0x4854
        0x00003ff4:    68a8        .h      LDR      r0,[r5,#8]
        0x00003ff6:    5d00        .]      LDRB     r0,[r0,r4]
        0x00003ff8:    bdb0        ..      POP      {r4,r5,r7,pc}
        0x00003ffa:    46c0        .F      MOV      r8,r8
    SX1276LoRaInit
        0x00003ffc:    b5f8        ..      PUSH     {r3-r7,lr}
        0x00003ffe:    4f30        0O      LDR      r7,[pc,#192] ; [0x40c0] = 0x200003e8
        0x00004000:    2000        .       MOVS     r0,#0
        0x00004002:    7038        8p      STRB     r0,[r7,#0]
        0x00004004:    f000fa70    ..p.    BL       SX1276LoRaSetDefaults ; 0x44e8
        0x00004008:    481e        .H      LDR      r0,[pc,#120] ; [0x4084] = 0x20000261
        0x0000400a:    1c45        E.      ADDS     r5,r0,#1
        0x0000400c:    2401        .$      MOVS     r4,#1
        0x0000400e:    266f        o&      MOVS     r6,#0x6f
        0x00004010:    4620         F      MOV      r0,r4
        0x00004012:    4629        )F      MOV      r1,r5
        0x00004014:    4632        2F      MOV      r2,r6
        0x00004016:    f000fc23    ..#.    BL       SX1276ReadBuffer ; 0x4860
        0x0000401a:    68b8        .h      LDR      r0,[r7,#8]
        0x0000401c:    2120         !      MOVS     r1,#0x20
        0x0000401e:    7301        .s      STRB     r1,[r0,#0xc]
        0x00004020:    4620         F      MOV      r0,r4
        0x00004022:    4629        )F      MOV      r1,r5
        0x00004024:    4632        2F      MOV      r2,r6
        0x00004026:    f000fcd9    ....    BL       SX1276WriteBuffer ; 0x49dc
        0x0000402a:    4d17        .M      LDR      r5,[pc,#92] ; [0x4088] = 0x20000058
        0x0000402c:    6868        hh      LDR      r0,[r5,#4]
        0x0000402e:    f000fb3b    ..;.    BL       SX1276LoRaSetRFFrequency ; 0x46a8
        0x00004032:    7aa8        .z      LDRB     r0,[r5,#0xa]
        0x00004034:    f000fbb0    ....    BL       SX1276LoRaSetSpreadingFactor ; 0x4798
        0x00004038:    7ae8        .z      LDRB     r0,[r5,#0xb]
        0x0000403a:    f000fa5d    ..].    BL       SX1276LoRaSetErrorCoding ; 0x44f8
        0x0000403e:    7b28        ({      LDRB     r0,[r5,#0xc]
        0x00004040:    f000faf8    ....    BL       SX1276LoRaSetPacketCrcOn ; 0x4634
        0x00004044:    7a68        hz      LDRB     r0,[r5,#9]
        0x00004046:    f000fb8f    ....    BL       SX1276LoRaSetSignalBandwidth ; 0x4768
        0x0000404a:    7b68        h{      LDRB     r0,[r5,#0xd]
        0x0000404c:    f000fa6c    ..l.    BL       SX1276LoRaSetImplicitHeaderOn ; 0x4528
        0x00004050:    480e        .H      LDR      r0,[pc,#56] ; [0x408c] = 0x3ff
        0x00004052:    f000fbc7    ....    BL       SX1276LoRaSetSymbTimeout ; 0x47e4
        0x00004056:    7f28        (.      LDRB     r0,[r5,#0x1c]
        0x00004058:    f000fb04    ....    BL       SX1276LoRaSetPayloadLength ; 0x4664
        0x0000405c:    7f68        h.      LDRB     r0,[r5,#0x1d]
        0x0000405e:    f000fb0d    ....    BL       SX1276LoRaSetPreambleLength ; 0x467c
        0x00004062:    4620         F      MOV      r0,r4
        0x00004064:    f000fa76    ..v.    BL       SX1276LoRaSetLowDatarateOptimize ; 0x4554
        0x00004068:    2080        .       MOVS     r0,#0x80
        0x0000406a:    f000faad    ....    BL       SX1276LoRaSetPAOutput ; 0x45c8
        0x0000406e:    4620         F      MOV      r0,r4
        0x00004070:    f000fabe    ....    BL       SX1276LoRaSetPa20dBm ; 0x45f0
        0x00004074:    2008        .       MOVS     r0,#8
        0x00004076:    5628        (V      LDRSB    r0,[r5,r0]
        0x00004078:    f000fb30    ..0.    BL       SX1276LoRaSetRFPower ; 0x46dc
        0x0000407c:    4620         F      MOV      r0,r4
        0x0000407e:    f000fa93    ....    BL       SX1276LoRaSetOpMode ; 0x45a8
        0x00004082:    bdf8        ..      POP      {r3-r7,pc}
    $d.3
    __arm_cp.1_1
        0x00004084:    20000261    a..     DCD    536871521
    __arm_cp.1_2
        0x00004088:    20000058    X..     DCD    536871000
    __arm_cp.1_3
        0x0000408c:    000003ff    ....    DCD    1023
    $t.30
    SX1276LoRaProcess
        0x00004090:    b5fe        ..      PUSH     {r1-r7,lr}
        0x00004092:    4f0b        .O      LDR      r7,[pc,#44] ; [0x40c0] = 0x200003e8
        0x00004094:    7838        8x      LDRB     r0,[r7,#0]
        0x00004096:    1e40        @.      SUBS     r0,r0,#1
        0x00004098:    2401        .$      MOVS     r4,#1
        0x0000409a:    2809        .(      CMP      r0,#9
        0x0000409c:    d900        ..      BLS      0x40a0 ; SX1276LoRaProcess + 16
        0x0000409e:    e1ff        ..      B        0x44a0 ; 0x44a0
        0x000040a0:    0040        @.      LSLS     r0,r0,#1
        0x000040a2:    46c0        .F      MOV      r8,r8
        0x000040a4:    4478        xD      ADD      r0,r0,pc
        0x000040a6:    8880        ..      LDRH     r0,[r0,#4]
        0x000040a8:    0040        @.      LSLS     r0,r0,#1
        0x000040aa:    4487        .D      ADD      pc,pc,r0
    $d.31
        0x000040ac:    0067000b    ..g.    DCD    6750219
        0x000040b0:    00d0002d    -...    DCD    13631533
        0x000040b4:    004300d4    ..C.    DCD    4391124
        0x000040b8:    01f900b1    ....    DCD    33095857
        0x000040bc:    00f000b8    ....    DCD    15728824
    __arm_cp.15_13
        0x000040c0:    200003e8    ...     DCD    536871912
    $t.32
        0x000040c4:    2401        .$      MOVS     r4,#1
        0x000040c6:    4620         F      MOV      r0,r4
        0x000040c8:    f000fa6e    ..n.    BL       SX1276LoRaSetOpMode ; 0x45a8
        0x000040cc:    68b8        .h      LDR      r0,[r7,#8]
        0x000040ce:    219d        .!      MOVS     r1,#0x9d
        0x000040d0:    7441        At      STRB     r1,[r0,#0x11]
        0x000040d2:    2011        .       MOVS     r0,#0x11
        0x000040d4:    f000fc7a    ..z.    BL       SX1276Write ; 0x49cc
        0x000040d8:    4ef3        .N      LDR      r6,[pc,#972] ; [0x44a8] = 0x20000058
        0x000040da:    7bf0        .{      LDRB     r0,[r6,#0xf]
        0x000040dc:    2801        .(      CMP      r0,#1
        0x000040de:    d000        ..      BEQ      0x40e2 ; 0x40e2
        0x000040e0:    e0f5        ..      B        0x42ce ; 0x42ce
        0x000040e2:    68b9        .h      LDR      r1,[r7,#8]
        0x000040e4:    7c30        0|      LDRB     r0,[r6,#0x10]
        0x000040e6:    2524        $%      MOVS     r5,#0x24
        0x000040e8:    5548        HU      STRB     r0,[r1,r5]
        0x000040ea:    311c        .1      ADDS     r1,r1,#0x1c
        0x000040ec:    201c        .       MOVS     r0,#0x1c
        0x000040ee:    f000fbb1    ....    BL       SX1276Read ; 0x4854
        0x000040f2:    68b8        .h      LDR      r0,[r7,#8]
        0x000040f4:    7f00        ..      LDRB     r0,[r0,#0x1c]
        0x000040f6:    0680        ..      LSLS     r0,r0,#26
        0x000040f8:    0e00        ..      LSRS     r0,r0,#24
        0x000040fa:    49ec        .I      LDR      r1,[pc,#944] ; [0x44ac] = 0x72f4
        0x000040fc:    5808        .X      LDR      r0,[r1,r0]
        0x000040fe:    f000fad3    ....    BL       SX1276LoRaSetRFFrequency ; 0x46a8
        0x00004102:    68b8        .h      LDR      r0,[r7,#8]
        0x00004104:    5d41        A]      LDRB     r1,[r0,r5]
        0x00004106:    e0e6        ..      B        0x42d6 ; 0x42d6
        0x00004108:    68b9        .h      LDR      r1,[r7,#8]
        0x0000410a:    3112        .1      ADDS     r1,r1,#0x12
        0x0000410c:    2012        .       MOVS     r0,#0x12
        0x0000410e:    f000fba1    ....    BL       SX1276Read ; 0x4854
        0x00004112:    68b8        .h      LDR      r0,[r7,#8]
        0x00004114:    7c80        .|      LDRB     r0,[r0,#0x12]
        0x00004116:    0680        ..      LSLS     r0,r0,#26
        0x00004118:    d500        ..      BPL      0x411c ; 0x411c
        0x0000411a:    e0cd        ..      B        0x42b8 ; 0x42b8
        0x0000411c:    1cb9        ..      ADDS     r1,r7,#2
        0x0000411e:    2019        .       MOVS     r0,#0x19
        0x00004120:    f000fb98    ....    BL       SX1276Read ; 0x4854
        0x00004124:    2402        .$      MOVS     r4,#2
        0x00004126:    5738        8W      LDRSB    r0,[r7,r4]
        0x00004128:    2800        .(      CMP      r0,#0
        0x0000412a:    d500        ..      BPL      0x412e ; 0x412e
        0x0000412c:    e130        0.      B        0x4390 ; 0x4390
        0x0000412e:    b2c0        ..      UXTB     r0,r0
        0x00004130:    0880        ..      LSRS     r0,r0,#2
        0x00004132:    e131        1.      B        0x4398 ; 0x4398
        0x00004134:    4ddb        .M      LDR      r5,[pc,#876] ; [0x44a4] = 0x50004238
        0x00004136:    6928        (i      LDR      r0,[r5,#0x10]
        0x00004138:    2801        .(      CMP      r0,#1
        0x0000413a:    d105        ..      BNE      0x4148 ; 0x4148
        0x0000413c:    2012        .       MOVS     r0,#0x12
        0x0000413e:    2108        .!      MOVS     r1,#8
        0x00004140:    f000fc44    ..D.    BL       SX1276Write ; 0x49cc
        0x00004144:    2007        .       MOVS     r0,#7
        0x00004146:    7038        8p      STRB     r0,[r7,#0]
        0x00004148:    6828        (h      LDR      r0,[r5,#0]
        0x0000414a:    2801        .(      CMP      r0,#1
        0x0000414c:    d000        ..      BEQ      0x4150 ; 0x4150
        0x0000414e:    e1a7        ..      B        0x44a0 ; 0x44a0
        0x00004150:    48d5        .H      LDR      r0,[pc,#852] ; [0x44a8] = 0x20000058
        0x00004152:    7bc0        .{      LDRB     r0,[r0,#0xf]
        0x00004154:    2801        .(      CMP      r0,#1
        0x00004156:    d10c        ..      BNE      0x4172 ; 0x4172
        0x00004158:    68b9        .h      LDR      r1,[r7,#8]
        0x0000415a:    311c        .1      ADDS     r1,r1,#0x1c
        0x0000415c:    201c        .       MOVS     r0,#0x1c
        0x0000415e:    f000fb79    ..y.    BL       SX1276Read ; 0x4854
        0x00004162:    68b8        .h      LDR      r0,[r7,#8]
        0x00004164:    7f00        ..      LDRB     r0,[r0,#0x1c]
        0x00004166:    0680        ..      LSLS     r0,r0,#26
        0x00004168:    0e00        ..      LSRS     r0,r0,#24
        0x0000416a:    49d0        .I      LDR      r1,[pc,#832] ; [0x44ac] = 0x72f4
        0x0000416c:    5808        .X      LDR      r0,[r1,r0]
        0x0000416e:    f000fa9b    ....    BL       SX1276LoRaSetRFFrequency ; 0x46a8
        0x00004172:    2012        .       MOVS     r0,#0x12
        0x00004174:    2102        .!      MOVS     r1,#2
        0x00004176:    f000fc29    ..).    BL       SX1276Write ; 0x49cc
        0x0000417a:    e191        ..      B        0x44a0 ; 0x44a0
        0x0000417c:    4dc9        .M      LDR      r5,[pc,#804] ; [0x44a4] = 0x50004238
        0x0000417e:    6928        (i      LDR      r0,[r5,#0x10]
        0x00004180:    2801        .(      CMP      r0,#1
        0x00004182:    d119        ..      BNE      0x41b8 ; 0x41b8
        0x00004184:    f001f98e    ....    BL       Timer_GetTickMs ; 0x54a4
        0x00004188:    6078        x`      STR      r0,[r7,#4]
        0x0000418a:    48c7        .H      LDR      r0,[pc,#796] ; [0x44a8] = 0x20000058
        0x0000418c:    7bc0        .{      LDRB     r0,[r0,#0xf]
        0x0000418e:    2801        .(      CMP      r0,#1
        0x00004190:    d10c        ..      BNE      0x41ac ; 0x41ac
        0x00004192:    68b9        .h      LDR      r1,[r7,#8]
        0x00004194:    311c        .1      ADDS     r1,r1,#0x1c
        0x00004196:    201c        .       MOVS     r0,#0x1c
        0x00004198:    f000fb5c    ..\.    BL       SX1276Read ; 0x4854
        0x0000419c:    68b8        .h      LDR      r0,[r7,#8]
        0x0000419e:    7f00        ..      LDRB     r0,[r0,#0x1c]
        0x000041a0:    0680        ..      LSLS     r0,r0,#26
        0x000041a2:    0e00        ..      LSRS     r0,r0,#24
        0x000041a4:    49c1        .I      LDR      r1,[pc,#772] ; [0x44ac] = 0x72f4
        0x000041a6:    5808        .X      LDR      r0,[r1,r0]
        0x000041a8:    f000fa7e    ..~.    BL       SX1276LoRaSetRFFrequency ; 0x46a8
        0x000041ac:    2012        .       MOVS     r0,#0x12
        0x000041ae:    2140        @!      MOVS     r1,#0x40
        0x000041b0:    f000fc0c    ....    BL       SX1276Write ; 0x49cc
        0x000041b4:    2003        .       MOVS     r0,#3
        0x000041b6:    7038        8p      STRB     r0,[r7,#0]
        0x000041b8:    6828        (h      LDR      r0,[r5,#0]
        0x000041ba:    2801        .(      CMP      r0,#1
        0x000041bc:    d117        ..      BNE      0x41ee ; 0x41ee
        0x000041be:    4dba        .M      LDR      r5,[pc,#744] ; [0x44a8] = 0x20000058
        0x000041c0:    7be8        .{      LDRB     r0,[r5,#0xf]
        0x000041c2:    2801        .(      CMP      r0,#1
        0x000041c4:    d10c        ..      BNE      0x41e0 ; 0x41e0
        0x000041c6:    68b9        .h      LDR      r1,[r7,#8]
        0x000041c8:    311c        .1      ADDS     r1,r1,#0x1c
        0x000041ca:    201c        .       MOVS     r0,#0x1c
        0x000041cc:    f000fb42    ..B.    BL       SX1276Read ; 0x4854
        0x000041d0:    68b8        .h      LDR      r0,[r7,#8]
        0x000041d2:    7f00        ..      LDRB     r0,[r0,#0x1c]
        0x000041d4:    0680        ..      LSLS     r0,r0,#26
        0x000041d6:    0e00        ..      LSRS     r0,r0,#24
        0x000041d8:    49b4        .I      LDR      r1,[pc,#720] ; [0x44ac] = 0x72f4
        0x000041da:    5808        .X      LDR      r0,[r1,r0]
        0x000041dc:    f000fa64    ..d.    BL       SX1276LoRaSetRFFrequency ; 0x46a8
        0x000041e0:    2012        .       MOVS     r0,#0x12
        0x000041e2:    2102        .!      MOVS     r1,#2
        0x000041e4:    f000fbf2    ....    BL       SX1276Write ; 0x49cc
        0x000041e8:    f000f972    ..r.    BL       SX1276LoRaReadRxGain ; 0x44d0
        0x000041ec:    7028        (p      STRB     r0,[r5,#0]
        0x000041ee:    48ae        .H      LDR      r0,[pc,#696] ; [0x44a8] = 0x20000058
        0x000041f0:    7b80        .{      LDRB     r0,[r0,#0xe]
        0x000041f2:    2801        .(      CMP      r0,#1
        0x000041f4:    d000        ..      BEQ      0x41f8 ; 0x41f8
        0x000041f6:    e153        S.      B        0x44a0 ; 0x44a0
        0x000041f8:    f001f954    ..T.    BL       Timer_GetTickMs ; 0x54a4
        0x000041fc:    6879        yh      LDR      r1,[r7,#4]
        0x000041fe:    1a40        @.      SUBS     r0,r0,r1
        0x00004200:    6979        yi      LDR      r1,[r7,#0x14]
        0x00004202:    4288        .B      CMP      r0,r1
        0x00004204:    d800        ..      BHI      0x4208 ; 0x4208
        0x00004206:    e14b        K.      B        0x44a0 ; 0x44a0
        0x00004208:    f001f950    ..P.    BL       Timer_ResetTickMs ; 0x54ac
        0x0000420c:    2004        .       MOVS     r0,#4
        0x0000420e:    e0df        ..      B        0x43d0 ; 0x43d0
        0x00004210:    2001        .       MOVS     r0,#1
        0x00004212:    f000f9c9    ....    BL       SX1276LoRaSetOpMode ; 0x45a8
        0x00004216:    2000        .       MOVS     r0,#0
        0x00004218:    7038        8p      STRB     r0,[r7,#0]
        0x0000421a:    2405        .$      MOVS     r4,#5
        0x0000421c:    e140        @.      B        0x44a0 ; 0x44a0
        0x0000421e:    2401        .$      MOVS     r4,#1
        0x00004220:    4620         F      MOV      r0,r4
        0x00004222:    f000f9c1    ....    BL       SX1276LoRaSetOpMode ; 0x45a8
        0x00004226:    68b8        .h      LDR      r0,[r7,#8]
        0x00004228:    21fa        .!      MOVS     r1,#0xfa
        0x0000422a:    7441        At      STRB     r1,[r0,#0x11]
        0x0000422c:    2011        .       MOVS     r0,#0x11
        0x0000422e:    f000fbcd    ....    BL       SX1276Write ; 0x49cc
        0x00004232:    68b9        .h      LDR      r1,[r7,#8]
        0x00004234:    2040        @       MOVS     r0,#0x40
        0x00004236:    2200        ."      MOVS     r2,#0
        0x00004238:    540a        .T      STRB     r2,[r1,r0]
        0x0000423a:    3140        @1      ADDS     r1,r1,#0x40
        0x0000423c:    704a        Jp      STRB     r2,[r1,#1]
        0x0000423e:    2202        ."      MOVS     r2,#2
        0x00004240:    f000fbcc    ....    BL       SX1276WriteBuffer ; 0x49dc
        0x00004244:    2007        .       MOVS     r0,#7
        0x00004246:    f000f9af    ....    BL       SX1276LoRaSetOpMode ; 0x45a8
        0x0000424a:    200a        .       MOVS     r0,#0xa
        0x0000424c:    e0c0        ..      B        0x43d0 ; 0x43d0
        0x0000424e:    2001        .       MOVS     r0,#1
        0x00004250:    7038        8p      STRB     r0,[r7,#0]
        0x00004252:    2404        .$      MOVS     r4,#4
        0x00004254:    e124        $.      B        0x44a0 ; 0x44a0
        0x00004256:    2001        .       MOVS     r0,#1
        0x00004258:    f000f9a6    ....    BL       SX1276LoRaSetOpMode ; 0x45a8
        0x0000425c:    68b9        .h      LDR      r1,[r7,#8]
        0x0000425e:    4892        .H      LDR      r0,[pc,#584] ; [0x44a8] = 0x20000058
        0x00004260:    7bc2        .{      LDRB     r2,[r0,#0xf]
        0x00004262:    2a01        .*      CMP      r2,#1
        0x00004264:    d163        c.      BNE      0x432e ; 0x432e
        0x00004266:    7c00        .|      LDRB     r0,[r0,#0x10]
        0x00004268:    2424        $$      MOVS     r4,#0x24
        0x0000426a:    5508        .U      STRB     r0,[r1,r4]
        0x0000426c:    20f5        .       MOVS     r0,#0xf5
        0x0000426e:    7448        Ht      STRB     r0,[r1,#0x11]
        0x00004270:    311c        .1      ADDS     r1,r1,#0x1c
        0x00004272:    201c        .       MOVS     r0,#0x1c
        0x00004274:    f000faee    ....    BL       SX1276Read ; 0x4854
        0x00004278:    68b8        .h      LDR      r0,[r7,#8]
        0x0000427a:    7f00        ..      LDRB     r0,[r0,#0x1c]
        0x0000427c:    0680        ..      LSLS     r0,r0,#26
        0x0000427e:    0e00        ..      LSRS     r0,r0,#24
        0x00004280:    498a        .I      LDR      r1,[pc,#552] ; [0x44ac] = 0x72f4
        0x00004282:    5808        .X      LDR      r0,[r1,r0]
        0x00004284:    f000fa10    ....    BL       SX1276LoRaSetRFFrequency ; 0x46a8
        0x00004288:    68b8        .h      LDR      r0,[r7,#8]
        0x0000428a:    5d02        .]      LDRB     r2,[r0,r4]
        0x0000428c:    e054        T.      B        0x4338 ; 0x4338
        0x0000428e:    4d85        .M      LDR      r5,[pc,#532] ; [0x44a4] = 0x50004238
        0x00004290:    68a8        .h      LDR      r0,[r5,#8]
        0x00004292:    2801        .(      CMP      r0,#1
        0x00004294:    d000        ..      BEQ      0x4298 ; 0x4298
        0x00004296:    e103        ..      B        0x44a0 ; 0x44a0
        0x00004298:    2012        .       MOVS     r0,#0x12
        0x0000429a:    2104        .!      MOVS     r1,#4
        0x0000429c:    f000fb96    ....    BL       SX1276Write ; 0x49cc
        0x000042a0:    68e8        .h      LDR      r0,[r5,#0xc]
        0x000042a2:    2801        .(      CMP      r0,#1
        0x000042a4:    d000        ..      BEQ      0x42a8 ; 0x42a8
        0x000042a6:    e09e        ..      B        0x43e6 ; 0x43e6
        0x000042a8:    2012        .       MOVS     r0,#0x12
        0x000042aa:    2401        .$      MOVS     r4,#1
        0x000042ac:    4621        !F      MOV      r1,r4
        0x000042ae:    f000fb8d    ....    BL       SX1276Write ; 0x49cc
        0x000042b2:    703c        <p      STRB     r4,[r7,#0]
        0x000042b4:    240a        .$      MOVS     r4,#0xa
        0x000042b6:    e0f3        ..      B        0x44a0 ; 0x44a0
        0x000042b8:    2012        .       MOVS     r0,#0x12
        0x000042ba:    2120         !      MOVS     r1,#0x20
        0x000042bc:    f000fb86    ....    BL       SX1276Write ; 0x49cc
        0x000042c0:    4879        yH      LDR      r0,[pc,#484] ; [0x44a8] = 0x20000058
        0x000042c2:    7b80        .{      LDRB     r0,[r0,#0xe]
        0x000042c4:    2801        .(      CMP      r0,#1
        0x000042c6:    d000        ..      BEQ      0x42ca ; 0x42ca
        0x000042c8:    e081        ..      B        0x43ce ; 0x43ce
        0x000042ca:    2401        .$      MOVS     r4,#1
        0x000042cc:    e05e        ^.      B        0x438c ; 0x438c
        0x000042ce:    68b8        .h      LDR      r0,[r7,#8]
        0x000042d0:    2224        $"      MOVS     r2,#0x24
        0x000042d2:    21ff        .!      MOVS     r1,#0xff
        0x000042d4:    5481        .T      STRB     r1,[r0,r2]
        0x000042d6:    2024        $       MOVS     r0,#0x24
        0x000042d8:    f000fb78    ..x.    BL       SX1276Write ; 0x49cc
        0x000042dc:    68b9        .h      LDR      r1,[r7,#8]
        0x000042de:    2040        @       MOVS     r0,#0x40
        0x000042e0:    2200        ."      MOVS     r2,#0
        0x000042e2:    540a        .T      STRB     r2,[r1,r0]
        0x000042e4:    3140        @1      ADDS     r1,r1,#0x40
        0x000042e6:    704a        Jp      STRB     r2,[r1,#1]
        0x000042e8:    2502        .%      MOVS     r5,#2
        0x000042ea:    462a        *F      MOV      r2,r5
        0x000042ec:    f000fb76    ..v.    BL       SX1276WriteBuffer ; 0x49dc
        0x000042f0:    7bb0        .{      LDRB     r0,[r6,#0xe]
        0x000042f2:    2801        .(      CMP      r0,#1
        0x000042f4:    d101        ..      BNE      0x42fa ; 0x42fa
        0x000042f6:    2006        .       MOVS     r0,#6
        0x000042f8:    e006        ..      B        0x4308 ; 0x4308
        0x000042fa:    68b8        .h      LDR      r0,[r7,#8]
        0x000042fc:    7bc1        .{      LDRB     r1,[r0,#0xf]
        0x000042fe:    7341        As      STRB     r1,[r0,#0xd]
        0x00004300:    200d        .       MOVS     r0,#0xd
        0x00004302:    f000fb63    ..c.    BL       SX1276Write ; 0x49cc
        0x00004306:    2005        .       MOVS     r0,#5
        0x00004308:    f000f94e    ..N.    BL       SX1276LoRaSetOpMode ; 0x45a8
        0x0000430c:    0221        !.      LSLS     r1,r4,#8
        0x0000430e:    4869        iH      LDR      r0,[pc,#420] ; [0x44b4] = 0x20000538
        0x00004310:    f7fbff1f    ....    BL       __aeabi_memclr ; 0x152
        0x00004314:    69b0        .i      LDR      r0,[r6,#0x18]
        0x00004316:    6178        xa      STR      r0,[r7,#0x14]
        0x00004318:    07a0        ..      LSLS     r0,r4,#30
        0x0000431a:    496c        lI      LDR      r1,[pc,#432] ; [0x44cc] = 0x40010000
        0x0000431c:    680a        .h      LDR      r2,[r1,#0]
        0x0000431e:    4302        .C      ORRS     r2,r2,r0
        0x00004320:    600a        .`      STR      r2,[r1,#0]
        0x00004322:    f001f8bf    ....    BL       Timer_GetTickMs ; 0x54a4
        0x00004326:    6078        x`      STR      r0,[r7,#4]
        0x00004328:    703d        =p      STRB     r5,[r7,#0]
        0x0000432a:    2403        .$      MOVS     r4,#3
        0x0000432c:    e0b8        ..      B        0x44a0 ; 0x44a0
        0x0000432e:    2024        $       MOVS     r0,#0x24
        0x00004330:    2200        ."      MOVS     r2,#0
        0x00004332:    540a        .T      STRB     r2,[r1,r0]
        0x00004334:    20f7        .       MOVS     r0,#0xf7
        0x00004336:    7448        Ht      STRB     r0,[r1,#0x11]
        0x00004338:    2024        $       MOVS     r0,#0x24
        0x0000433a:    4d5d        ]M      LDR      r5,[pc,#372] ; [0x44b0] = 0x49cd
        0x0000433c:    4611        .F      MOV      r1,r2
        0x0000433e:    47a8        .G      BLX      r5
        0x00004340:    68b8        .h      LDR      r0,[r7,#8]
        0x00004342:    7c41        A|      LDRB     r1,[r0,#0x11]
        0x00004344:    2011        .       MOVS     r0,#0x11
        0x00004346:    47a8        .G      BLX      r5
        0x00004348:    68b8        .h      LDR      r0,[r7,#8]
        0x0000434a:    7c39        9|      LDRB     r1,[r7,#0x10]
        0x0000434c:    2422        "$      MOVS     r4,#0x22
        0x0000434e:    5501        .U      STRB     r1,[r0,r4]
        0x00004350:    4620         F      MOV      r0,r4
        0x00004352:    47a8        .G      BLX      r5
        0x00004354:    68b8        .h      LDR      r0,[r7,#8]
        0x00004356:    2100        .!      MOVS     r1,#0
        0x00004358:    7381        .s      STRB     r1,[r0,#0xe]
        0x0000435a:    200e        .       MOVS     r0,#0xe
        0x0000435c:    47a8        .G      BLX      r5
        0x0000435e:    68b8        .h      LDR      r0,[r7,#8]
        0x00004360:    7b81        .{      LDRB     r1,[r0,#0xe]
        0x00004362:    7341        As      STRB     r1,[r0,#0xd]
        0x00004364:    200d        .       MOVS     r0,#0xd
        0x00004366:    47a8        .G      BLX      r5
        0x00004368:    68b8        .h      LDR      r0,[r7,#8]
        0x0000436a:    5d01        .]      LDRB     r1,[r0,r4]
        0x0000436c:    4851        QH      LDR      r0,[pc,#324] ; [0x44b4] = 0x20000538
        0x0000436e:    f000fb4d    ..M.    BL       SX1276WriteFifo ; 0x4a0c
        0x00004372:    68b9        .h      LDR      r1,[r7,#8]
        0x00004374:    2040        @       MOVS     r0,#0x40
        0x00004376:    2241        A"      MOVS     r2,#0x41
        0x00004378:    540a        .T      STRB     r2,[r1,r0]
        0x0000437a:    3140        @1      ADDS     r1,r1,#0x40
        0x0000437c:    7048        Hp      STRB     r0,[r1,#1]
        0x0000437e:    2202        ."      MOVS     r2,#2
        0x00004380:    f000fb2c    ..,.    BL       SX1276WriteBuffer ; 0x49dc
        0x00004384:    2003        .       MOVS     r0,#3
        0x00004386:    f000f90f    ....    BL       SX1276LoRaSetOpMode ; 0x45a8
        0x0000438a:    2406        .$      MOVS     r4,#6
        0x0000438c:    703c        <p      STRB     r4,[r7,#0]
        0x0000438e:    e087        ..      B        0x44a0 ; 0x44a0
        0x00004390:    4240        @B      RSBS     r0,r0,#0
        0x00004392:    b2c0        ..      UXTB     r0,r0
        0x00004394:    0880        ..      LSRS     r0,r0,#2
        0x00004396:    4240        @B      RSBS     r0,r0,#0
        0x00004398:    7078        xp      STRB     r0,[r7,#1]
        0x0000439a:    68b9        .h      LDR      r1,[r7,#8]
        0x0000439c:    311a        .1      ADDS     r1,r1,#0x1a
        0x0000439e:    201a        .       MOVS     r0,#0x1a
        0x000043a0:    f000fa58    ..X.    BL       SX1276Read ; 0x4854
        0x000043a4:    2001        .       MOVS     r0,#1
        0x000043a6:    563e        >V      LDRSB    r6,[r7,r0]
        0x000043a8:    483f        ?H      LDR      r0,[pc,#252] ; [0x44a8] = 0x20000058
        0x000043aa:    6845        Eh      LDR      r5,[r0,#4]
        0x000043ac:    68b8        .h      LDR      r0,[r7,#8]
        0x000043ae:    9002        ..      STR      r0,[sp,#8]
        0x000043b0:    7e80        .~      LDRB     r0,[r0,#0x1a]
        0x000043b2:    f7fcf8a3    ....    BL       __aeabi_ui2d ; 0x4fc
        0x000043b6:    4a40        @J      LDR      r2,[pc,#256] ; [0x44b8] = 0x33428eff
        0x000043b8:    4295        .B      CMP      r5,r2
        0x000043ba:    d80b        ..      BHI      0x43d4 ; 0x43d4
        0x000043bc:    2e00        ..      CMP      r6,#0
        0x000043be:    d416        ..      BMI      0x43ee ; 0x43ee
        0x000043c0:    4a3e        >J      LDR      r2,[pc,#248] ; [0x44bc] = 0x295e9e1b
        0x000043c2:    4b3f        ?K      LDR      r3,[pc,#252] ; [0x44c0] = 0x3ff110cb
        0x000043c4:    f7fbff90    ....    BL       __aeabi_dmul ; 0x2e8
        0x000043c8:    2200        ."      MOVS     r2,#0
        0x000043ca:    4b3f        ?K      LDR      r3,[pc,#252] ; [0x44c8] = 0xc0648000
        0x000043cc:    e01f        ..      B        0x440e ; 0x440e
        0x000043ce:    2002        .       MOVS     r0,#2
        0x000043d0:    7038        8p      STRB     r0,[r7,#0]
        0x000043d2:    e065        e.      B        0x44a0 ; 0x44a0
        0x000043d4:    2e00        ..      CMP      r6,#0
        0x000043d6:    d40d        ..      BMI      0x43f4 ; 0x43f4
        0x000043d8:    4a38        8J      LDR      r2,[pc,#224] ; [0x44bc] = 0x295e9e1b
        0x000043da:    4b39        9K      LDR      r3,[pc,#228] ; [0x44c0] = 0x3ff110cb
        0x000043dc:    f7fbff84    ....    BL       __aeabi_dmul ; 0x2e8
        0x000043e0:    2200        ."      MOVS     r2,#0
        0x000043e2:    4b38        8K      LDR      r3,[pc,#224] ; [0x44c4] = 0xc063a000
        0x000043e4:    e013        ..      B        0x440e ; 0x440e
        0x000043e6:    2000        .       MOVS     r0,#0
        0x000043e8:    7038        8p      STRB     r0,[r7,#0]
        0x000043ea:    2409        .$      MOVS     r4,#9
        0x000043ec:    e058        X.      B        0x44a0 ; 0x44a0
        0x000043ee:    2200        ."      MOVS     r2,#0
        0x000043f0:    4b35        5K      LDR      r3,[pc,#212] ; [0x44c8] = 0xc0648000
        0x000043f2:    e001        ..      B        0x43f8 ; 0x43f8
        0x000043f4:    2200        ."      MOVS     r2,#0
        0x000043f6:    4b33        3K      LDR      r3,[pc,#204] ; [0x44c4] = 0xc063a000
        0x000043f8:    f7fbfec4    ....    BL       __aeabi_dadd ; 0x184
        0x000043fc:    4605        .F      MOV      r5,r0
        0x000043fe:    9101        ..      STR      r1,[sp,#4]
        0x00004400:    4630        0F      MOV      r0,r6
        0x00004402:    f7fcf867    ..g.    BL       __aeabi_i2d ; 0x4d4
        0x00004406:    4602        .F      MOV      r2,r0
        0x00004408:    460b        .F      MOV      r3,r1
        0x0000440a:    4628        (F      MOV      r0,r5
        0x0000440c:    9901        ..      LDR      r1,[sp,#4]
        0x0000440e:    f7fbfeb9    ....    BL       __aeabi_dadd ; 0x184
        0x00004412:    61b8        .a      STR      r0,[r7,#0x18]
        0x00004414:    61f9        .a      STR      r1,[r7,#0x1c]
        0x00004416:    4e24        $N      LDR      r6,[pc,#144] ; [0x44a8] = 0x20000058
        0x00004418:    7bb0        .{      LDRB     r0,[r6,#0xe]
        0x0000441a:    2801        .(      CMP      r0,#1
        0x0000441c:    d10c        ..      BNE      0x4438 ; 0x4438
        0x0000441e:    9802        ..      LDR      r0,[sp,#8]
        0x00004420:    7bc1        .{      LDRB     r1,[r0,#0xf]
        0x00004422:    7341        As      STRB     r1,[r0,#0xd]
        0x00004424:    200d        .       MOVS     r0,#0xd
        0x00004426:    f000fad1    ....    BL       SX1276Write ; 0x49cc
        0x0000442a:    68b9        .h      LDR      r1,[r7,#8]
        0x0000442c:    7b70        p{      LDRB     r0,[r6,#0xd]
        0x0000442e:    2801        .(      CMP      r0,#1
        0x00004430:    d117        ..      BNE      0x4462 ; 0x4462
        0x00004432:    2022        "       MOVS     r0,#0x22
        0x00004434:    5c09        .\      LDRB     r1,[r1,r0]
        0x00004436:    e01a        ..      B        0x446e ; 0x446e
        0x00004438:    9902        ..      LDR      r1,[sp,#8]
        0x0000443a:    3110        .1      ADDS     r1,r1,#0x10
        0x0000443c:    2010        .       MOVS     r0,#0x10
        0x0000443e:    f000fa09    ....    BL       SX1276Read ; 0x4854
        0x00004442:    68b9        .h      LDR      r1,[r7,#8]
        0x00004444:    7b70        p{      LDRB     r0,[r6,#0xd]
        0x00004446:    2801        .(      CMP      r0,#1
        0x00004448:    d113        ..      BNE      0x4472 ; 0x4472
        0x0000444a:    2522        "%      MOVS     r5,#0x22
        0x0000444c:    5d48        H]      LDRB     r0,[r1,r5]
        0x0000444e:    60f8        .`      STR      r0,[r7,#0xc]
        0x00004450:    7c0a        .|      LDRB     r2,[r1,#0x10]
        0x00004452:    734a        Js      STRB     r2,[r1,#0xd]
        0x00004454:    200d        .       MOVS     r0,#0xd
        0x00004456:    4611        .F      MOV      r1,r2
        0x00004458:    f000fab8    ....    BL       SX1276Write ; 0x49cc
        0x0000445c:    68b8        .h      LDR      r0,[r7,#8]
        0x0000445e:    5d41        A]      LDRB     r1,[r0,r5]
        0x00004460:    e015        ..      B        0x448e ; 0x448e
        0x00004462:    3113        .1      ADDS     r1,r1,#0x13
        0x00004464:    2013        .       MOVS     r0,#0x13
        0x00004466:    f000f9f5    ....    BL       SX1276Read ; 0x4854
        0x0000446a:    68b8        .h      LDR      r0,[r7,#8]
        0x0000446c:    7cc1        .|      LDRB     r1,[r0,#0x13]
        0x0000446e:    60f9        .`      STR      r1,[r7,#0xc]
        0x00004470:    e00d        ..      B        0x448e ; 0x448e
        0x00004472:    3113        .1      ADDS     r1,r1,#0x13
        0x00004474:    2013        .       MOVS     r0,#0x13
        0x00004476:    f000f9ed    ....    BL       SX1276Read ; 0x4854
        0x0000447a:    68b8        .h      LDR      r0,[r7,#8]
        0x0000447c:    7cc1        .|      LDRB     r1,[r0,#0x13]
        0x0000447e:    60f9        .`      STR      r1,[r7,#0xc]
        0x00004480:    7c01        .|      LDRB     r1,[r0,#0x10]
        0x00004482:    7341        As      STRB     r1,[r0,#0xd]
        0x00004484:    200d        .       MOVS     r0,#0xd
        0x00004486:    f000faa1    ....    BL       SX1276Write ; 0x49cc
        0x0000448a:    68b8        .h      LDR      r0,[r7,#8]
        0x0000448c:    7cc1        .|      LDRB     r1,[r0,#0x13]
        0x0000448e:    4809        .H      LDR      r0,[pc,#36] ; [0x44b4] = 0x20000538
        0x00004490:    f000f9fc    ....    BL       SX1276ReadFifo ; 0x488c
        0x00004494:    7bb0        .{      LDRB     r0,[r6,#0xe]
        0x00004496:    2801        .(      CMP      r0,#1
        0x00004498:    4621        !F      MOV      r1,r4
        0x0000449a:    d100        ..      BNE      0x449e ; 0x449e
        0x0000449c:    4601        .F      MOV      r1,r0
        0x0000449e:    7039        9p      STRB     r1,[r7,#0]
        0x000044a0:    4620         F      MOV      r0,r4
        0x000044a2:    bdfe        ..      POP      {r1-r7,pc}
    $d.33
    __arm_cp.15_1
        0x000044a4:    50004238    8B.P    DCD    1342194232
    __arm_cp.15_2
        0x000044a8:    20000058    X..     DCD    536871000
    __arm_cp.15_3
        0x000044ac:    000072f4    .r..    DCD    29428
    __arm_cp.15_4
        0x000044b0:    000049cd    .I..    DCD    18893
    __arm_cp.15_5
        0x000044b4:    20000538    8..     DCD    536872248
    __arm_cp.15_6
        0x000044b8:    33428eff    ..B3    DCD    859999999
    __arm_cp.15_7
        0x000044bc:    295e9e1b    ..^)    DCD    694066715
    __arm_cp.15_8
        0x000044c0:    3ff110cb    ...?    DCD    1072763083
    __arm_cp.15_9
        0x000044c4:    c063a000    ..c.    DCD    3227754496
    __arm_cp.15_10
        0x000044c8:    c0648000    ..d.    DCD    3227811840
    __arm_cp.15_11
        0x000044cc:    40010000    ...@    DCD    1073807360
    $t.10
    SX1276LoRaReadRxGain
        0x000044d0:    b510        ..      PUSH     {r4,lr}
        0x000044d2:    4cd8        .L      LDR      r4,[pc,#864] ; [0x4834] = 0x200003e8
        0x000044d4:    68a1        .h      LDR      r1,[r4,#8]
        0x000044d6:    310c        .1      ADDS     r1,r1,#0xc
        0x000044d8:    200c        .       MOVS     r0,#0xc
        0x000044da:    f000f9bb    ....    BL       SX1276Read ; 0x4854
        0x000044de:    68a0        .h      LDR      r0,[r4,#8]
        0x000044e0:    7b00        .{      LDRB     r0,[r0,#0xc]
        0x000044e2:    0940        @.      LSRS     r0,r0,#5
        0x000044e4:    bd10        ..      POP      {r4,pc}
        0x000044e6:    46c0        .F      MOV      r8,r8
    SX1276LoRaSetDefaults
        0x000044e8:    b580        ..      PUSH     {r7,lr}
        0x000044ea:    48d2        .H      LDR      r0,[pc,#840] ; [0x4834] = 0x200003e8
        0x000044ec:    6881        .h      LDR      r1,[r0,#8]
        0x000044ee:    3142        B1      ADDS     r1,r1,#0x42
        0x000044f0:    2042        B       MOVS     r0,#0x42
        0x000044f2:    f000f9af    ....    BL       SX1276Read ; 0x4854
        0x000044f6:    bd80        ..      POP      {r7,pc}
    SX1276LoRaSetErrorCoding
        0x000044f8:    b570        p.      PUSH     {r4-r6,lr}
        0x000044fa:    4604        .F      MOV      r4,r0
        0x000044fc:    4ec6        .N      LDR      r6,[pc,#792] ; [0x4818] = 0x200003f0
        0x000044fe:    6831        1h      LDR      r1,[r6,#0]
        0x00004500:    311d        .1      ADDS     r1,r1,#0x1d
        0x00004502:    251d        .%      MOVS     r5,#0x1d
        0x00004504:    4628        (F      MOV      r0,r5
        0x00004506:    f000f9a5    ....    BL       SX1276Read ; 0x4854
        0x0000450a:    6830        0h      LDR      r0,[r6,#0]
        0x0000450c:    7f41        A.      LDRB     r1,[r0,#0x1d]
        0x0000450e:    220e        ."      MOVS     r2,#0xe
        0x00004510:    4391        .C      BICS     r1,r1,r2
        0x00004512:    0062        b.      LSLS     r2,r4,#1
        0x00004514:    430a        .C      ORRS     r2,r2,r1
        0x00004516:    7742        Bw      STRB     r2,[r0,#0x1d]
        0x00004518:    b2d1        ..      UXTB     r1,r2
        0x0000451a:    4628        (F      MOV      r0,r5
        0x0000451c:    f000fa56    ..V.    BL       SX1276Write ; 0x49cc
        0x00004520:    48af        .H      LDR      r0,[pc,#700] ; [0x47e0] = 0x2000005c
        0x00004522:    71c4        .q      STRB     r4,[r0,#7]
        0x00004524:    bd70        p.      POP      {r4-r6,pc}
        0x00004526:    46c0        .F      MOV      r8,r8
    SX1276LoRaSetImplicitHeaderOn
        0x00004528:    b570        p.      PUSH     {r4-r6,lr}
        0x0000452a:    4604        .F      MOV      r4,r0
        0x0000452c:    4eba        .N      LDR      r6,[pc,#744] ; [0x4818] = 0x200003f0
        0x0000452e:    6831        1h      LDR      r1,[r6,#0]
        0x00004530:    311d        .1      ADDS     r1,r1,#0x1d
        0x00004532:    251d        .%      MOVS     r5,#0x1d
        0x00004534:    4628        (F      MOV      r0,r5
        0x00004536:    f000f98d    ....    BL       SX1276Read ; 0x4854
        0x0000453a:    6830        0h      LDR      r0,[r6,#0]
        0x0000453c:    7f41        A.      LDRB     r1,[r0,#0x1d]
        0x0000453e:    2201        ."      MOVS     r2,#1
        0x00004540:    4391        .C      BICS     r1,r1,r2
        0x00004542:    4321        !C      ORRS     r1,r1,r4
        0x00004544:    7741        Aw      STRB     r1,[r0,#0x1d]
        0x00004546:    b2c9        ..      UXTB     r1,r1
        0x00004548:    4628        (F      MOV      r0,r5
        0x0000454a:    f000fa3f    ..?.    BL       SX1276Write ; 0x49cc
        0x0000454e:    48a4        .H      LDR      r0,[pc,#656] ; [0x47e0] = 0x2000005c
        0x00004550:    7244        Dr      STRB     r4,[r0,#9]
        0x00004552:    bd70        p.      POP      {r4-r6,pc}
    SX1276LoRaSetLowDatarateOptimize
        0x00004554:    b570        p.      PUSH     {r4-r6,lr}
        0x00004556:    4604        .F      MOV      r4,r0
        0x00004558:    4eaf        .N      LDR      r6,[pc,#700] ; [0x4818] = 0x200003f0
        0x0000455a:    6831        1h      LDR      r1,[r6,#0]
        0x0000455c:    3126        &1      ADDS     r1,r1,#0x26
        0x0000455e:    2526        &%      MOVS     r5,#0x26
        0x00004560:    4628        (F      MOV      r0,r5
        0x00004562:    f000f977    ..w.    BL       SX1276Read ; 0x4854
        0x00004566:    6830        0h      LDR      r0,[r6,#0]
        0x00004568:    5d41        A]      LDRB     r1,[r0,r5]
        0x0000456a:    2208        ."      MOVS     r2,#8
        0x0000456c:    4391        .C      BICS     r1,r1,r2
        0x0000456e:    00e2        ..      LSLS     r2,r4,#3
        0x00004570:    430a        .C      ORRS     r2,r2,r1
        0x00004572:    5542        BU      STRB     r2,[r0,r5]
        0x00004574:    b2d1        ..      UXTB     r1,r2
        0x00004576:    4628        (F      MOV      r0,r5
        0x00004578:    f000fa28    ..(.    BL       SX1276Write ; 0x49cc
        0x0000457c:    bd70        p.      POP      {r4-r6,pc}
        0x0000457e:    46c0        .F      MOV      r8,r8
    SX1276LoRaSetNbTrigPeaks
        0x00004580:    b570        p.      PUSH     {r4-r6,lr}
        0x00004582:    4604        .F      MOV      r4,r0
        0x00004584:    4ea4        .N      LDR      r6,[pc,#656] ; [0x4818] = 0x200003f0
        0x00004586:    6831        1h      LDR      r1,[r6,#0]
        0x00004588:    3131        11      ADDS     r1,r1,#0x31
        0x0000458a:    2531        1%      MOVS     r5,#0x31
        0x0000458c:    4628        (F      MOV      r0,r5
        0x0000458e:    f000f961    ..a.    BL       SX1276Read ; 0x4854
        0x00004592:    6830        0h      LDR      r0,[r6,#0]
        0x00004594:    5d41        A]      LDRB     r1,[r0,r5]
        0x00004596:    2207        ."      MOVS     r2,#7
        0x00004598:    4391        .C      BICS     r1,r1,r2
        0x0000459a:    4321        !C      ORRS     r1,r1,r4
        0x0000459c:    5541        AU      STRB     r1,[r0,r5]
        0x0000459e:    b2c9        ..      UXTB     r1,r1
        0x000045a0:    4628        (F      MOV      r0,r5
        0x000045a2:    f000fa13    ....    BL       SX1276Write ; 0x49cc
        0x000045a6:    bd70        p.      POP      {r4-r6,pc}
    SX1276LoRaSetOpMode
        0x000045a8:    b580        ..      PUSH     {r7,lr}
        0x000045aa:    49a2        .I      LDR      r1,[pc,#648] ; [0x4834] = 0x200003e8
        0x000045ac:    688a        .h      LDR      r2,[r1,#8]
        0x000045ae:    7851        Qx      LDRB     r1,[r2,#1]
        0x000045b0:    2307        .#      MOVS     r3,#7
        0x000045b2:    400b        .@      ANDS     r3,r3,r1
        0x000045b4:    4283        .B      CMP      r3,r0
        0x000045b6:    d006        ..      BEQ      0x45c6 ; SX1276LoRaSetOpMode + 30
        0x000045b8:    23f8        .#      MOVS     r3,#0xf8
        0x000045ba:    4019        .@      ANDS     r1,r1,r3
        0x000045bc:    4301        .C      ORRS     r1,r1,r0
        0x000045be:    7051        Qp      STRB     r1,[r2,#1]
        0x000045c0:    2001        .       MOVS     r0,#1
        0x000045c2:    f000fa03    ....    BL       SX1276Write ; 0x49cc
        0x000045c6:    bd80        ..      POP      {r7,pc}
    SX1276LoRaSetPAOutput
        0x000045c8:    b570        p.      PUSH     {r4-r6,lr}
        0x000045ca:    4604        .F      MOV      r4,r0
        0x000045cc:    4edb        .N      LDR      r6,[pc,#876] ; [0x493c] = 0x200003f0
        0x000045ce:    6831        1h      LDR      r1,[r6,#0]
        0x000045d0:    3109        .1      ADDS     r1,r1,#9
        0x000045d2:    2509        .%      MOVS     r5,#9
        0x000045d4:    4628        (F      MOV      r0,r5
        0x000045d6:    f000f93d    ..=.    BL       SX1276Read ; 0x4854
        0x000045da:    6830        0h      LDR      r0,[r6,#0]
        0x000045dc:    7a42        Bz      LDRB     r2,[r0,#9]
        0x000045de:    217f        .!      MOVS     r1,#0x7f
        0x000045e0:    4011        .@      ANDS     r1,r1,r2
        0x000045e2:    4321        !C      ORRS     r1,r1,r4
        0x000045e4:    7241        Ar      STRB     r1,[r0,#9]
        0x000045e6:    4628        (F      MOV      r0,r5
        0x000045e8:    f000f9f0    ....    BL       SX1276Write ; 0x49cc
        0x000045ec:    bd70        p.      POP      {r4-r6,pc}
        0x000045ee:    46c0        .F      MOV      r8,r8
    SX1276LoRaSetPa20dBm
        0x000045f0:    b5f8        ..      PUSH     {r3-r7,lr}
        0x000045f2:    4604        .F      MOV      r4,r0
        0x000045f4:    4fd1        .O      LDR      r7,[pc,#836] ; [0x493c] = 0x200003f0
        0x000045f6:    6839        9h      LDR      r1,[r7,#0]
        0x000045f8:    314d        M1      ADDS     r1,r1,#0x4d
        0x000045fa:    254d        M%      MOVS     r5,#0x4d
        0x000045fc:    4628        (F      MOV      r0,r5
        0x000045fe:    f000f929    ..).    BL       SX1276Read ; 0x4854
        0x00004602:    6839        9h      LDR      r1,[r7,#0]
        0x00004604:    3109        .1      ADDS     r1,r1,#9
        0x00004606:    2609        .&      MOVS     r6,#9
        0x00004608:    4630        0F      MOV      r0,r6
        0x0000460a:    f000f923    ..#.    BL       SX1276Read ; 0x4854
        0x0000460e:    6838        8h      LDR      r0,[r7,#0]
        0x00004610:    5781        .W      LDRSB    r1,[r0,r6]
        0x00004612:    2900        .)      CMP      r1,#0
        0x00004614:    d402        ..      BMI      0x461c ; SX1276LoRaSetPa20dBm + 44
        0x00004616:    2184        .!      MOVS     r1,#0x84
        0x00004618:    5541        AU      STRB     r1,[r0,r5]
        0x0000461a:    e006        ..      B        0x462a ; SX1276LoRaSetPa20dBm + 58
        0x0000461c:    304d        M0      ADDS     r0,r0,#0x4d
        0x0000461e:    2c01        .,      CMP      r4,#1
        0x00004620:    d102        ..      BNE      0x4628 ; SX1276LoRaSetPa20dBm + 56
        0x00004622:    2187        .!      MOVS     r1,#0x87
        0x00004624:    7001        .p      STRB     r1,[r0,#0]
        0x00004626:    e000        ..      B        0x462a ; SX1276LoRaSetPa20dBm + 58
        0x00004628:    7801        .x      LDRB     r1,[r0,#0]
        0x0000462a:    204d        M       MOVS     r0,#0x4d
        0x0000462c:    f000f9ce    ....    BL       SX1276Write ; 0x49cc
        0x00004630:    bdf8        ..      POP      {r3-r7,pc}
        0x00004632:    46c0        .F      MOV      r8,r8
    SX1276LoRaSetPacketCrcOn
        0x00004634:    b570        p.      PUSH     {r4-r6,lr}
        0x00004636:    4604        .F      MOV      r4,r0
        0x00004638:    4ec0        .N      LDR      r6,[pc,#768] ; [0x493c] = 0x200003f0
        0x0000463a:    6831        1h      LDR      r1,[r6,#0]
        0x0000463c:    311e        .1      ADDS     r1,r1,#0x1e
        0x0000463e:    251e        .%      MOVS     r5,#0x1e
        0x00004640:    4628        (F      MOV      r0,r5
        0x00004642:    f000f907    ....    BL       SX1276Read ; 0x4854
        0x00004646:    6830        0h      LDR      r0,[r6,#0]
        0x00004648:    7f81        ..      LDRB     r1,[r0,#0x1e]
        0x0000464a:    2204        ."      MOVS     r2,#4
        0x0000464c:    4391        .C      BICS     r1,r1,r2
        0x0000464e:    00a2        ..      LSLS     r2,r4,#2
        0x00004650:    430a        .C      ORRS     r2,r2,r1
        0x00004652:    7782        .w      STRB     r2,[r0,#0x1e]
        0x00004654:    b2d1        ..      UXTB     r1,r2
        0x00004656:    4628        (F      MOV      r0,r5
        0x00004658:    f000f9b8    ....    BL       SX1276Write ; 0x49cc
        0x0000465c:    4860        `H      LDR      r0,[pc,#384] ; [0x47e0] = 0x2000005c
        0x0000465e:    7204        .r      STRB     r4,[r0,#8]
        0x00004660:    bd70        p.      POP      {r4-r6,pc}
        0x00004662:    46c0        .F      MOV      r8,r8
    SX1276LoRaSetPayloadLength
        0x00004664:    b510        ..      PUSH     {r4,lr}
        0x00004666:    4604        .F      MOV      r4,r0
        0x00004668:    48b4        .H      LDR      r0,[pc,#720] ; [0x493c] = 0x200003f0
        0x0000466a:    6801        .h      LDR      r1,[r0,#0]
        0x0000466c:    2022        "       MOVS     r0,#0x22
        0x0000466e:    540c        .T      STRB     r4,[r1,r0]
        0x00004670:    4621        !F      MOV      r1,r4
        0x00004672:    f000f9ab    ....    BL       SX1276Write ; 0x49cc
        0x00004676:    485a        ZH      LDR      r0,[pc,#360] ; [0x47e0] = 0x2000005c
        0x00004678:    7604        .v      STRB     r4,[r0,#0x18]
        0x0000467a:    bd10        ..      POP      {r4,pc}
    SX1276LoRaSetPreambleLength
        0x0000467c:    b5f8        ..      PUSH     {r3-r7,lr}
        0x0000467e:    4604        .F      MOV      r4,r0
        0x00004680:    4fae        .O      LDR      r7,[pc,#696] ; [0x493c] = 0x200003f0
        0x00004682:    6839        9h      LDR      r1,[r7,#0]
        0x00004684:    3120         1      ADDS     r1,r1,#0x20
        0x00004686:    2520         %      MOVS     r5,#0x20
        0x00004688:    2602        .&      MOVS     r6,#2
        0x0000468a:    4628        (F      MOV      r0,r5
        0x0000468c:    4632        2F      MOV      r2,r6
        0x0000468e:    f000f8e7    ....    BL       SX1276ReadBuffer ; 0x4860
        0x00004692:    0a20         .      LSRS     r0,r4,#8
        0x00004694:    6839        9h      LDR      r1,[r7,#0]
        0x00004696:    5548        HU      STRB     r0,[r1,r5]
        0x00004698:    3120         1      ADDS     r1,r1,#0x20
        0x0000469a:    704c        Lp      STRB     r4,[r1,#1]
        0x0000469c:    4628        (F      MOV      r0,r5
        0x0000469e:    4632        2F      MOV      r2,r6
        0x000046a0:    f000f99c    ....    BL       SX1276WriteBuffer ; 0x49dc
        0x000046a4:    bdf8        ..      POP      {r3-r7,pc}
        0x000046a6:    46c0        .F      MOV      r8,r8
    SX1276LoRaSetRFFrequency
        0x000046a8:    b580        ..      PUSH     {r7,lr}
        0x000046aa:    494d        MI      LDR      r1,[pc,#308] ; [0x47e0] = 0x2000005c
        0x000046ac:    6008        .`      STR      r0,[r1,#0]
        0x000046ae:    f7fbff11    ....    BL       __aeabi_i2d ; 0x4d4
        0x000046b2:    2200        ."      MOVS     r2,#0
        0x000046b4:    4b08        .K      LDR      r3,[pc,#32] ; [0x46d8] = 0x404e8480
        0x000046b6:    f7fbfe7f    ....    BL       __aeabi_ddiv ; 0x3b8
        0x000046ba:    f7fbff51    ..Q.    BL       __aeabi_d2uiz ; 0x560
        0x000046be:    499f        .I      LDR      r1,[pc,#636] ; [0x493c] = 0x200003f0
        0x000046c0:    6809        .h      LDR      r1,[r1,#0]
        0x000046c2:    7208        .r      STRB     r0,[r1,#8]
        0x000046c4:    0a02        ..      LSRS     r2,r0,#8
        0x000046c6:    71ca        .q      STRB     r2,[r1,#7]
        0x000046c8:    0c00        ..      LSRS     r0,r0,#16
        0x000046ca:    7188        .q      STRB     r0,[r1,#6]
        0x000046cc:    1d89        ..      ADDS     r1,r1,#6
        0x000046ce:    2006        .       MOVS     r0,#6
        0x000046d0:    2203        ."      MOVS     r2,#3
        0x000046d2:    f000f983    ....    BL       SX1276WriteBuffer ; 0x49dc
        0x000046d6:    bd80        ..      POP      {r7,pc}
    $d.1
    __arm_cp.0_1
        0x000046d8:    404e8480    ..N@    DCD    1078887552
    $t.4
    SX1276LoRaSetRFPower
        0x000046dc:    b5f8        ..      PUSH     {r3-r7,lr}
        0x000046de:    4604        .F      MOV      r4,r0
        0x000046e0:    4f96        .O      LDR      r7,[pc,#600] ; [0x493c] = 0x200003f0
        0x000046e2:    6839        9h      LDR      r1,[r7,#0]
        0x000046e4:    3109        .1      ADDS     r1,r1,#9
        0x000046e6:    2609        .&      MOVS     r6,#9
        0x000046e8:    4630        0F      MOV      r0,r6
        0x000046ea:    f000f8b3    ....    BL       SX1276Read ; 0x4854
        0x000046ee:    6839        9h      LDR      r1,[r7,#0]
        0x000046f0:    314d        M1      ADDS     r1,r1,#0x4d
        0x000046f2:    254d        M%      MOVS     r5,#0x4d
        0x000046f4:    4628        (F      MOV      r0,r5
        0x000046f6:    f000f8ad    ....    BL       SX1276Read ; 0x4854
        0x000046fa:    6838        8h      LDR      r0,[r7,#0]
        0x000046fc:    5781        .W      LDRSB    r1,[r0,r6]
        0x000046fe:    2900        .)      CMP      r1,#0
        0x00004700:    d408        ..      BMI      0x4714 ; SX1276LoRaSetRFPower + 56
        0x00004702:    17e2        ..      ASRS     r2,r4,#31
        0x00004704:    4322        "C      ORRS     r2,r2,r4
        0x00004706:    2a0e        .*      CMP      r2,#0xe
        0x00004708:    db00        ..      BLT      0x470c ; SX1276LoRaSetRFPower + 48
        0x0000470a:    220e        ."      MOVS     r2,#0xe
        0x0000470c:    4611        .F      MOV      r1,r2
        0x0000470e:    3171        q1      ADDS     r1,r1,#0x71
        0x00004710:    4614        .F      MOV      r4,r2
        0x00004712:    e018        ..      B        0x4746 ; SX1276LoRaSetRFPower + 106
        0x00004714:    5d41        A]      LDRB     r1,[r0,r5]
        0x00004716:    2287        ."      MOVS     r2,#0x87
        0x00004718:    400a        .@      ANDS     r2,r2,r1
        0x0000471a:    2a87        .*      CMP      r2,#0x87
        0x0000471c:    d108        ..      BNE      0x4730 ; SX1276LoRaSetRFPower + 84
        0x0000471e:    2c05        .,      CMP      r4,#5
        0x00004720:    dc00        ..      BGT      0x4724 ; SX1276LoRaSetRFPower + 72
        0x00004722:    2405        .$      MOVS     r4,#5
        0x00004724:    2c14        .,      CMP      r4,#0x14
        0x00004726:    d300        ..      BCC      0x472a ; SX1276LoRaSetRFPower + 78
        0x00004728:    2414        .$      MOVS     r4,#0x14
        0x0000472a:    4622        "F      MOV      r2,r4
        0x0000472c:    320b        .2      ADDS     r2,r2,#0xb
        0x0000472e:    e007        ..      B        0x4740 ; SX1276LoRaSetRFPower + 100
        0x00004730:    2c02        .,      CMP      r4,#2
        0x00004732:    dc00        ..      BGT      0x4736 ; SX1276LoRaSetRFPower + 90
        0x00004734:    2402        .$      MOVS     r4,#2
        0x00004736:    2c11        .,      CMP      r4,#0x11
        0x00004738:    d300        ..      BCC      0x473c ; SX1276LoRaSetRFPower + 96
        0x0000473a:    2411        .$      MOVS     r4,#0x11
        0x0000473c:    4622        "F      MOV      r2,r4
        0x0000473e:    320e        .2      ADDS     r2,r2,#0xe
        0x00004740:    210f        .!      MOVS     r1,#0xf
        0x00004742:    43c9        .C      MVNS     r1,r1
        0x00004744:    4311        .C      ORRS     r1,r1,r2
        0x00004746:    7241        Ar      STRB     r1,[r0,#9]
        0x00004748:    b2c9        ..      UXTB     r1,r1
        0x0000474a:    2009        .       MOVS     r0,#9
        0x0000474c:    f000f93e    ..>.    BL       SX1276Write ; 0x49cc
        0x00004750:    4823        #H      LDR      r0,[pc,#140] ; [0x47e0] = 0x2000005c
        0x00004752:    7104        .q      STRB     r4,[r0,#4]
        0x00004754:    bdf8        ..      POP      {r3-r7,pc}
        0x00004756:    46c0        .F      MOV      r8,r8
    SX1276LoRaSetRFState
        0x00004758:    4936        6I      LDR      r1,[pc,#216] ; [0x4834] = 0x200003e8
        0x0000475a:    7008        .p      STRB     r0,[r1,#0]
        0x0000475c:    4770        pG      BX       lr
        0x0000475e:    46c0        .F      MOV      r8,r8
    SX1276LoRaSetRxPacketTimeout
        0x00004760:    491f        .I      LDR      r1,[pc,#124] ; [0x47e0] = 0x2000005c
        0x00004762:    6148        Ha      STR      r0,[r1,#0x14]
        0x00004764:    4770        pG      BX       lr
        0x00004766:    46c0        .F      MOV      r8,r8
    SX1276LoRaSetSignalBandwidth
        0x00004768:    b570        p.      PUSH     {r4-r6,lr}
        0x0000476a:    4604        .F      MOV      r4,r0
        0x0000476c:    4e73        sN      LDR      r6,[pc,#460] ; [0x493c] = 0x200003f0
        0x0000476e:    6831        1h      LDR      r1,[r6,#0]
        0x00004770:    311d        .1      ADDS     r1,r1,#0x1d
        0x00004772:    251d        .%      MOVS     r5,#0x1d
        0x00004774:    4628        (F      MOV      r0,r5
        0x00004776:    f000f86d    ..m.    BL       SX1276Read ; 0x4854
        0x0000477a:    6830        0h      LDR      r0,[r6,#0]
        0x0000477c:    7f41        A.      LDRB     r1,[r0,#0x1d]
        0x0000477e:    220f        ."      MOVS     r2,#0xf
        0x00004780:    400a        .@      ANDS     r2,r2,r1
        0x00004782:    0121        !.      LSLS     r1,r4,#4
        0x00004784:    1851        Q.      ADDS     r1,r2,r1
        0x00004786:    7741        Aw      STRB     r1,[r0,#0x1d]
        0x00004788:    b2c9        ..      UXTB     r1,r1
        0x0000478a:    4628        (F      MOV      r0,r5
        0x0000478c:    f000f91e    ....    BL       SX1276Write ; 0x49cc
        0x00004790:    4813        .H      LDR      r0,[pc,#76] ; [0x47e0] = 0x2000005c
        0x00004792:    7144        Dq      STRB     r4,[r0,#5]
        0x00004794:    bd70        p.      POP      {r4-r6,pc}
        0x00004796:    46c0        .F      MOV      r8,r8
    SX1276LoRaSetSpreadingFactor
        0x00004798:    b570        p.      PUSH     {r4-r6,lr}
        0x0000479a:    4604        .F      MOV      r4,r0
        0x0000479c:    2807        .(      CMP      r0,#7
        0x0000479e:    d301        ..      BCC      0x47a4 ; SX1276LoRaSetSpreadingFactor + 12
        0x000047a0:    2003        .       MOVS     r0,#3
        0x000047a2:    e000        ..      B        0x47a6 ; SX1276LoRaSetSpreadingFactor + 14
        0x000047a4:    2005        .       MOVS     r0,#5
        0x000047a6:    f7fffeeb    ....    BL       SX1276LoRaSetNbTrigPeaks ; 0x4580
        0x000047aa:    4e64        dN      LDR      r6,[pc,#400] ; [0x493c] = 0x200003f0
        0x000047ac:    6831        1h      LDR      r1,[r6,#0]
        0x000047ae:    311e        .1      ADDS     r1,r1,#0x1e
        0x000047b0:    251e        .%      MOVS     r5,#0x1e
        0x000047b2:    4628        (F      MOV      r0,r5
        0x000047b4:    f000f84e    ..N.    BL       SX1276Read ; 0x4854
        0x000047b8:    6830        0h      LDR      r0,[r6,#0]
        0x000047ba:    7f81        ..      LDRB     r1,[r0,#0x1e]
        0x000047bc:    220f        ."      MOVS     r2,#0xf
        0x000047be:    2c06        .,      CMP      r4,#6
        0x000047c0:    d800        ..      BHI      0x47c4 ; SX1276LoRaSetSpreadingFactor + 44
        0x000047c2:    2406        .$      MOVS     r4,#6
        0x000047c4:    4011        .@      ANDS     r1,r1,r2
        0x000047c6:    2c0c        .,      CMP      r4,#0xc
        0x000047c8:    d300        ..      BCC      0x47cc ; SX1276LoRaSetSpreadingFactor + 52
        0x000047ca:    240c        .$      MOVS     r4,#0xc
        0x000047cc:    0122        ".      LSLS     r2,r4,#4
        0x000047ce:    1889        ..      ADDS     r1,r1,r2
        0x000047d0:    7781        .w      STRB     r1,[r0,#0x1e]
        0x000047d2:    4628        (F      MOV      r0,r5
        0x000047d4:    f000f8fa    ....    BL       SX1276Write ; 0x49cc
        0x000047d8:    4801        .H      LDR      r0,[pc,#4] ; [0x47e0] = 0x2000005c
        0x000047da:    7184        .q      STRB     r4,[r0,#6]
        0x000047dc:    bd70        p.      POP      {r4-r6,pc}
        0x000047de:    46c0        .F      MOV      r8,r8
    $d.13
    __arm_cp.6_1
        0x000047e0:    2000005c    \..     DCD    536871004
    $t.70
    SX1276LoRaSetSymbTimeout
        0x000047e4:    b5f8        ..      PUSH     {r3-r7,lr}
        0x000047e6:    4606        .F      MOV      r6,r0
        0x000047e8:    4f54        TO      LDR      r7,[pc,#336] ; [0x493c] = 0x200003f0
        0x000047ea:    6839        9h      LDR      r1,[r7,#0]
        0x000047ec:    311e        .1      ADDS     r1,r1,#0x1e
        0x000047ee:    251e        .%      MOVS     r5,#0x1e
        0x000047f0:    2402        .$      MOVS     r4,#2
        0x000047f2:    4628        (F      MOV      r0,r5
        0x000047f4:    4622        "F      MOV      r2,r4
        0x000047f6:    f000f833    ..3.    BL       SX1276ReadBuffer ; 0x4860
        0x000047fa:    6839        9h      LDR      r1,[r7,#0]
        0x000047fc:    77ce        .w      STRB     r6,[r1,#0x1f]
        0x000047fe:    7f88        ..      LDRB     r0,[r1,#0x1e]
        0x00004800:    22fc        ."      MOVS     r2,#0xfc
        0x00004802:    4002        .@      ANDS     r2,r2,r0
        0x00004804:    05b0        ..      LSLS     r0,r6,#22
        0x00004806:    0f80        ..      LSRS     r0,r0,#30
        0x00004808:    1810        ..      ADDS     r0,r2,r0
        0x0000480a:    7788        .w      STRB     r0,[r1,#0x1e]
        0x0000480c:    311e        .1      ADDS     r1,r1,#0x1e
        0x0000480e:    4628        (F      MOV      r0,r5
        0x00004810:    4622        "F      MOV      r2,r4
        0x00004812:    f000f8e3    ....    BL       SX1276WriteBuffer ; 0x49dc
        0x00004816:    bdf8        ..      POP      {r3-r7,pc}
    $d.71
    __arm_cp.35_0
        0x00004818:    200003f0    ...     DCD    536871920
    $t.26
    SX1276LoRaSetTxPacket
        0x0000481c:    b510        ..      PUSH     {r4,lr}
        0x0000481e:    460a        .F      MOV      r2,r1
        0x00004820:    4601        .F      MOV      r1,r0
        0x00004822:    4c04        .L      LDR      r4,[pc,#16] ; [0x4834] = 0x200003e8
        0x00004824:    6122        "a      STR      r2,[r4,#0x10]
        0x00004826:    4804        .H      LDR      r0,[pc,#16] ; [0x4838] = 0x20000538
        0x00004828:    f7fbfc7a    ..z.    BL       __aeabi_memcpy ; 0x120
        0x0000482c:    2005        .       MOVS     r0,#5
        0x0000482e:    7020         p      STRB     r0,[r4,#0]
        0x00004830:    bd10        ..      POP      {r4,pc}
        0x00004832:    46c0        .F      MOV      r8,r8
    $d.27
    __arm_cp.13_0
        0x00004834:    200003e8    ...     DCD    536871912
    __arm_cp.13_1
        0x00004838:    20000538    8..     DCD    536872248
    $t.38
    SX1276Process
        0x0000483c:    b580        ..      PUSH     {r7,lr}
        0x0000483e:    4862        bH      LDR      r0,[pc,#392] ; [0x49c8] = 0x20000260
        0x00004840:    7800        .x      LDRB     r0,[r0,#0]
        0x00004842:    2800        .(      CMP      r0,#0
        0x00004844:    d002        ..      BEQ      0x484c ; SX1276Process + 16
        0x00004846:    f7fffc23    ..#.    BL       SX1276LoRaProcess ; 0x4090
        0x0000484a:    bd80        ..      POP      {r7,pc}
        0x0000484c:    f7fefdfe    ....    BL       SX1276FskProcess ; 0x344c
        0x00004850:    bd80        ..      POP      {r7,pc}
        0x00004852:    46c0        .F      MOV      r8,r8
    SX1276Read
        0x00004854:    b580        ..      PUSH     {r7,lr}
        0x00004856:    2201        ."      MOVS     r2,#1
        0x00004858:    f000f802    ....    BL       SX1276ReadBuffer ; 0x4860
        0x0000485c:    bd80        ..      POP      {r7,pc}
        0x0000485e:    0000        ..      MOVS     r0,r0
    SX1276ReadBuffer
        0x00004860:    b570        p.      PUSH     {r4-r6,lr}
        0x00004862:    4614        .F      MOV      r4,r2
        0x00004864:    460d        .F      MOV      r5,r1
        0x00004866:    4e68        hN      LDR      r6,[pc,#416] ; [0x4a08] = 0x40030008
        0x00004868:    2101        .!      MOVS     r1,#1
        0x0000486a:    6031        1`      STR      r1,[r6,#0]
        0x0000486c:    217f        .!      MOVS     r1,#0x7f
        0x0000486e:    4008        .@      ANDS     r0,r0,r1
        0x00004870:    f7fefbba    ....    BL       SPI_Command ; 0x2fe8
        0x00004874:    2c00        .,      CMP      r4,#0
        0x00004876:    d005        ..      BEQ      0x4884 ; SX1276ReadBuffer + 36
        0x00004878:    f7fefc84    ....    BL       SPI_Readbyte ; 0x3184
        0x0000487c:    7028        (p      STRB     r0,[r5,#0]
        0x0000487e:    1c6d        m.      ADDS     r5,r5,#1
        0x00004880:    1e64        d.      SUBS     r4,r4,#1
        0x00004882:    e7f7        ..      B        0x4874 ; SX1276ReadBuffer + 20
        0x00004884:    2000        .       MOVS     r0,#0
        0x00004886:    6030        0`      STR      r0,[r6,#0]
        0x00004888:    bd70        p.      POP      {r4-r6,pc}
        0x0000488a:    46c0        .F      MOV      r8,r8
    SX1276ReadFifo
        0x0000488c:    b580        ..      PUSH     {r7,lr}
        0x0000488e:    460a        .F      MOV      r2,r1
        0x00004890:    4601        .F      MOV      r1,r0
        0x00004892:    2000        .       MOVS     r0,#0
        0x00004894:    f7ffffe4    ....    BL       SX1276ReadBuffer ; 0x4860
        0x00004898:    bd80        ..      POP      {r7,pc}
        0x0000489a:    0000        ..      MOVS     r0,r0
    SX1276Reset
        0x0000489c:    b580        ..      PUSH     {r7,lr}
        0x0000489e:    2001        .       MOVS     r0,#1
        0x000048a0:    f000f85c    ..\.    BL       SX1276SetReset ; 0x495c
        0x000048a4:    207d        }       MOVS     r0,#0x7d
        0x000048a6:    00c0        ..      LSLS     r0,r0,#3
        0x000048a8:    f7fcfaac    ....    BL       CLK_SysTickDelay ; 0xe04
        0x000048ac:    2000        .       MOVS     r0,#0
        0x000048ae:    f000f855    ..U.    BL       SX1276SetReset ; 0x495c
        0x000048b2:    4802        .H      LDR      r0,[pc,#8] ; [0x48bc] = 0x1770
        0x000048b4:    f7fcfaa6    ....    BL       CLK_SysTickDelay ; 0xe04
        0x000048b8:    bd80        ..      POP      {r7,pc}
        0x000048ba:    46c0        .F      MOV      r8,r8
    $d.7
    __arm_cp.3_0
        0x000048bc:    00001770    p...    DCD    6000
    $t.8
    SX1276SetLoRaOn
        0x000048c0:    b5f8        ..      PUSH     {r3-r7,lr}
        0x000048c2:    4e41        AN      LDR      r6,[pc,#260] ; [0x49c8] = 0x20000260
        0x000048c4:    7030        0p      STRB     r0,[r6,#0]
        0x000048c6:    2801        .(      CMP      r0,#1
        0x000048c8:    d11e        ..      BNE      0x4908 ; SX1276SetLoRaOn + 72
        0x000048ca:    2400        .$      MOVS     r4,#0
        0x000048cc:    4620         F      MOV      r0,r4
        0x000048ce:    f7fffe6b    ..k.    BL       SX1276LoRaSetOpMode ; 0x45a8
        0x000048d2:    4f1a        .O      LDR      r7,[pc,#104] ; [0x493c] = 0x200003f0
        0x000048d4:    6838        8h      LDR      r0,[r7,#0]
        0x000048d6:    7842        Bx      LDRB     r2,[r0,#1]
        0x000048d8:    2180        .!      MOVS     r1,#0x80
        0x000048da:    4311        .C      ORRS     r1,r1,r2
        0x000048dc:    7041        Ap      STRB     r1,[r0,#1]
        0x000048de:    2501        .%      MOVS     r5,#1
        0x000048e0:    4628        (F      MOV      r0,r5
        0x000048e2:    f000f873    ..s.    BL       SX1276Write ; 0x49cc
        0x000048e6:    4628        (F      MOV      r0,r5
        0x000048e8:    f7fffe5e    ..^.    BL       SX1276LoRaSetOpMode ; 0x45a8
        0x000048ec:    6839        9h      LDR      r1,[r7,#0]
        0x000048ee:    2040        @       MOVS     r0,#0x40
        0x000048f0:    540c        .T      STRB     r4,[r1,r0]
        0x000048f2:    3140        @1      ADDS     r1,r1,#0x40
        0x000048f4:    704c        Lp      STRB     r4,[r1,#1]
        0x000048f6:    2202        ."      MOVS     r2,#2
        0x000048f8:    f000f870    ..p.    BL       SX1276WriteBuffer ; 0x49dc
        0x000048fc:    1cb1        ..      ADDS     r1,r6,#2
        0x000048fe:    226f        o"      MOVS     r2,#0x6f
        0x00004900:    4628        (F      MOV      r0,r5
        0x00004902:    f7ffffad    ....    BL       SX1276ReadBuffer ; 0x4860
        0x00004906:    7830        0x      LDRB     r0,[r6,#0]
        0x00004908:    2800        .(      CMP      r0,#0
        0x0000490a:    d000        ..      BEQ      0x490e ; SX1276SetLoRaOn + 78
        0x0000490c:    bdf8        ..      POP      {r3-r7,pc}
        0x0000490e:    2000        .       MOVS     r0,#0
        0x00004910:    f7fffe4a    ..J.    BL       SX1276LoRaSetOpMode ; 0x45a8
        0x00004914:    4809        .H      LDR      r0,[pc,#36] ; [0x493c] = 0x200003f0
        0x00004916:    6800        .h      LDR      r0,[r0,#0]
        0x00004918:    7842        Bx      LDRB     r2,[r0,#1]
        0x0000491a:    217f        .!      MOVS     r1,#0x7f
        0x0000491c:    4011        .@      ANDS     r1,r1,r2
        0x0000491e:    7041        Ap      STRB     r1,[r0,#1]
        0x00004920:    2401        .$      MOVS     r4,#1
        0x00004922:    4620         F      MOV      r0,r4
        0x00004924:    f000f852    ..R.    BL       SX1276Write ; 0x49cc
        0x00004928:    4620         F      MOV      r0,r4
        0x0000492a:    f7fffe3d    ..=.    BL       SX1276LoRaSetOpMode ; 0x45a8
        0x0000492e:    1cb1        ..      ADDS     r1,r6,#2
        0x00004930:    226f        o"      MOVS     r2,#0x6f
        0x00004932:    4620         F      MOV      r0,r4
        0x00004934:    f7ffff94    ....    BL       SX1276ReadBuffer ; 0x4860
        0x00004938:    bdf8        ..      POP      {r3-r7,pc}
        0x0000493a:    46c0        .F      MOV      r8,r8
    $d.9
    __arm_cp.4_1
        0x0000493c:    200003f0    ...     DCD    536871920
    $t.0
    SX1276SetMode
        0x00004940:    2800        .(      CMP      r0,#0
        0x00004942:    d004        ..      BEQ      0x494e ; SX1276SetMode + 14
        0x00004944:    2801        .(      CMP      r0,#1
        0x00004946:    d106        ..      BNE      0x4956 ; SX1276SetMode + 22
        0x00004948:    491f        .I      LDR      r1,[pc,#124] ; [0x49c8] = 0x20000260
        0x0000494a:    2001        .       MOVS     r0,#1
        0x0000494c:    e001        ..      B        0x4952 ; SX1276SetMode + 18
        0x0000494e:    491e        .I      LDR      r1,[pc,#120] ; [0x49c8] = 0x20000260
        0x00004950:    2000        .       MOVS     r0,#0
        0x00004952:    7008        .p      STRB     r0,[r1,#0]
        0x00004954:    4770        pG      BX       lr
        0x00004956:    481c        .H      LDR      r0,[pc,#112] ; [0x49c8] = 0x20000260
        0x00004958:    7800        .x      LDRB     r0,[r0,#0]
        0x0000495a:    4770        pG      BX       lr
    SX1276SetReset
        0x0000495c:    b580        ..      PUSH     {r7,lr}
        0x0000495e:    2801        .(      CMP      r0,#1
        0x00004960:    d103        ..      BNE      0x496a ; SX1276SetReset + 14
        0x00004962:    4806        .H      LDR      r0,[pc,#24] ; [0x497c] = 0x5000424c
        0x00004964:    2100        .!      MOVS     r1,#0
        0x00004966:    6001        .`      STR      r1,[r0,#0]
        0x00004968:    bd80        ..      POP      {r7,pc}
        0x0000496a:    4803        .H      LDR      r0,[pc,#12] ; [0x4978] = 0x50004040
        0x0000496c:    2108        .!      MOVS     r1,#8
        0x0000496e:    2200        ."      MOVS     r2,#0
        0x00004970:    f7fdf878    ..x.    BL       GPIO_SetMode ; 0x1a64
        0x00004974:    bd80        ..      POP      {r7,pc}
        0x00004976:    46c0        .F      MOV      r8,r8
    $d.3
    __arm_cp.1_0
        0x00004978:    50004040    @@.P    DCD    1342193728
    __arm_cp.1_1
        0x0000497c:    5000424c    LB.P    DCD    1342194252
    $t.32
    SX1276SetTxPacket
        0x00004980:    b580        ..      PUSH     {r7,lr}
        0x00004982:    4a11        .J      LDR      r2,[pc,#68] ; [0x49c8] = 0x20000260
        0x00004984:    7812        .x      LDRB     r2,[r2,#0]
        0x00004986:    2a00        .*      CMP      r2,#0
        0x00004988:    d002        ..      BEQ      0x4990 ; SX1276SetTxPacket + 16
        0x0000498a:    f7ffff47    ..G.    BL       SX1276LoRaSetTxPacket ; 0x481c
        0x0000498e:    bd80        ..      POP      {r7,pc}
        0x00004990:    f7fff994    ....    BL       SX1276FskSetTxPacket ; 0x3cbc
        0x00004994:    bd80        ..      POP      {r7,pc}
        0x00004996:    46c0        .F      MOV      r8,r8
    SX1276StartCad
        0x00004998:    b580        ..      PUSH     {r7,lr}
        0x0000499a:    480b        .H      LDR      r0,[pc,#44] ; [0x49c8] = 0x20000260
        0x0000499c:    7800        .x      LDRB     r0,[r0,#0]
        0x0000499e:    2800        .(      CMP      r0,#0
        0x000049a0:    d002        ..      BEQ      0x49a8 ; SX1276StartCad + 16
        0x000049a2:    2009        .       MOVS     r0,#9
        0x000049a4:    f7fffed8    ....    BL       SX1276LoRaSetRFState ; 0x4758
        0x000049a8:    bd80        ..      POP      {r7,pc}
        0x000049aa:    46c0        .F      MOV      r8,r8
    SX1276StartRx
        0x000049ac:    b580        ..      PUSH     {r7,lr}
        0x000049ae:    4806        .H      LDR      r0,[pc,#24] ; [0x49c8] = 0x20000260
        0x000049b0:    7800        .x      LDRB     r0,[r0,#0]
        0x000049b2:    2800        .(      CMP      r0,#0
        0x000049b4:    d003        ..      BEQ      0x49be ; SX1276StartRx + 18
        0x000049b6:    2001        .       MOVS     r0,#1
        0x000049b8:    f7fffece    ....    BL       SX1276LoRaSetRFState ; 0x4758
        0x000049bc:    bd80        ..      POP      {r7,pc}
        0x000049be:    2001        .       MOVS     r0,#1
        0x000049c0:    f7fff962    ..b.    BL       SX1276FskSetRFState ; 0x3c88
        0x000049c4:    bd80        ..      POP      {r7,pc}
        0x000049c6:    46c0        .F      MOV      r8,r8
    $d.29
    __arm_cp.14_0
        0x000049c8:    20000260    `..     DCD    536871520
    $t.14
    SX1276Write
        0x000049cc:    b5e0        ..      PUSH     {r5-r7,lr}
        0x000049ce:    ab01        ..      ADD      r3,sp,#4
        0x000049d0:    7019        .p      STRB     r1,[r3,#0]
        0x000049d2:    2201        ."      MOVS     r2,#1
        0x000049d4:    4619        .F      MOV      r1,r3
        0x000049d6:    f000f801    ....    BL       SX1276WriteBuffer ; 0x49dc
        0x000049da:    bd8c        ..      POP      {r2,r3,r7,pc}
    SX1276WriteBuffer
        0x000049dc:    b570        p.      PUSH     {r4-r6,lr}
        0x000049de:    4614        .F      MOV      r4,r2
        0x000049e0:    460d        .F      MOV      r5,r1
        0x000049e2:    4e09        .N      LDR      r6,[pc,#36] ; [0x4a08] = 0x40030008
        0x000049e4:    2101        .!      MOVS     r1,#1
        0x000049e6:    6031        1`      STR      r1,[r6,#0]
        0x000049e8:    2180        .!      MOVS     r1,#0x80
        0x000049ea:    4308        .C      ORRS     r0,r0,r1
        0x000049ec:    f7fefafc    ....    BL       SPI_Command ; 0x2fe8
        0x000049f0:    2c00        .,      CMP      r4,#0
        0x000049f2:    d005        ..      BEQ      0x4a00 ; SX1276WriteBuffer + 36
        0x000049f4:    7828        (x      LDRB     r0,[r5,#0]
        0x000049f6:    f7fefaf7    ....    BL       SPI_Command ; 0x2fe8
        0x000049fa:    1c6d        m.      ADDS     r5,r5,#1
        0x000049fc:    1e64        d.      SUBS     r4,r4,#1
        0x000049fe:    e7f7        ..      B        0x49f0 ; SX1276WriteBuffer + 20
        0x00004a00:    2000        .       MOVS     r0,#0
        0x00004a02:    6030        0`      STR      r0,[r6,#0]
        0x00004a04:    bd70        p.      POP      {r4-r6,pc}
        0x00004a06:    46c0        .F      MOV      r8,r8
    $d.11
    __arm_cp.5_0
        0x00004a08:    40030008    ...@    DCD    1073938440
    $t.16
    SX1276WriteFifo
        0x00004a0c:    b580        ..      PUSH     {r7,lr}
        0x00004a0e:    460a        .F      MOV      r2,r1
        0x00004a10:    4601        .F      MOV      r1,r0
        0x00004a12:    2000        .       MOVS     r0,#0
        0x00004a14:    f7ffffe2    ....    BL       SX1276WriteBuffer ; 0x49dc
        0x00004a18:    bd80        ..      POP      {r7,pc}
        0x00004a1a:    0000        ..      MOVS     r0,r0
    SYS_ResetCPU
        0x00004a1c:    480a        .H      LDR      r0,[pc,#40] ; [0x4a48] = 0x50000008
        0x00004a1e:    6801        .h      LDR      r1,[r0,#0]
        0x00004a20:    2202        ."      MOVS     r2,#2
        0x00004a22:    430a        .C      ORRS     r2,r2,r1
        0x00004a24:    6002        .`      STR      r2,[r0,#0]
        0x00004a26:    4770        pG      BX       lr
    SYS_ResetModule
        0x00004a28:    b510        ..      PUSH     {r4,lr}
        0x00004a2a:    0e01        ..      LSRS     r1,r0,#24
        0x00004a2c:    4a06        .J      LDR      r2,[pc,#24] ; [0x4a48] = 0x50000008
        0x00004a2e:    588b        .X      LDR      r3,[r1,r2]
        0x00004a30:    24ff        .$      MOVS     r4,#0xff
        0x00004a32:    0624        $.      LSLS     r4,r4,#24
        0x00004a34:    43a0        .C      BICS     r0,r0,r4
        0x00004a36:    2401        .$      MOVS     r4,#1
        0x00004a38:    4084        .@      LSLS     r4,r4,r0
        0x00004a3a:    4323        #C      ORRS     r3,r3,r4
        0x00004a3c:    508b        .P      STR      r3,[r1,r2]
        0x00004a3e:    5888        .X      LDR      r0,[r1,r2]
        0x00004a40:    43a0        .C      BICS     r0,r0,r4
        0x00004a42:    5088        .P      STR      r0,[r1,r2]
        0x00004a44:    bd10        ..      POP      {r4,pc}
        0x00004a46:    46c0        .F      MOV      r8,r8
    $d.14
    __arm_cp.7_0
        0x00004a48:    50000008    ...P    DCD    1342177288
    $t.30
    Saban_Feedback_Mode_IOStandand
        0x00004a4c:    b5b0        ..      PUSH     {r4,r5,r7,lr}
        0x00004a4e:    4604        .F      MOV      r4,r0
        0x00004a50:    4d1d        .M      LDR      r5,[pc,#116] ; [0x4ac8] = 0x20000212
        0x00004a52:    2000        .       MOVS     r0,#0
        0x00004a54:    70e8        .p      STRB     r0,[r5,#3]
        0x00004a56:    70a8        .p      STRB     r0,[r5,#2]
        0x00004a58:    f000f838    ..8.    BL       Saban_Input_Control ; 0x4acc
        0x00004a5c:    70e8        .p      STRB     r0,[r5,#3]
        0x00004a5e:    0a00        ..      LSRS     r0,r0,#8
        0x00004a60:    70a8        .p      STRB     r0,[r5,#2]
        0x00004a62:    2c03        .,      CMP      r4,#3
        0x00004a64:    d80e        ..      BHI      0x4a84 ; Saban_Feedback_Mode_IOStandand + 56
        0x00004a66:    46c0        .F      MOV      r8,r8
        0x00004a68:    447c        |D      ADD      r4,r4,pc
        0x00004a6a:    7924        $y      LDRB     r4,[r4,#4]
        0x00004a6c:    0064        d.      LSLS     r4,r4,#1
        0x00004a6e:    44a7        .D      ADD      pc,pc,r4
    $d.31
        0x00004a70:    07040a01    ....    DCD    117705217
    $t.32
        0x00004a74:    f7fdfee2    ....    BL       Rf_Send_Feedback_CRC ; 0x283c
        0x00004a78:    bdb0        ..      POP      {r4,r5,r7,pc}
        0x00004a7a:    f7fdff15    ....    BL       Rf_Send_Feedback_SHA ; 0x28a8
        0x00004a7e:    bdb0        ..      POP      {r4,r5,r7,pc}
        0x00004a80:    f7fdfea6    ....    BL       Rf_Send_Feedback_AESSHA ; 0x27d0
        0x00004a84:    bdb0        ..      POP      {r4,r5,r7,pc}
        0x00004a86:    f7fdfe6b    ..k.    BL       Rf_Send_Feedback_AESCRC ; 0x2760
        0x00004a8a:    bdb0        ..      POP      {r4,r5,r7,pc}
    Saban_Feedback_Mode_RS485
        0x00004a8c:    b580        ..      PUSH     {r7,lr}
        0x00004a8e:    4b0e        .K      LDR      r3,[pc,#56] ; [0x4ac8] = 0x20000212
        0x00004a90:    70d9        .p      STRB     r1,[r3,#3]
        0x00004a92:    7098        .p      STRB     r0,[r3,#2]
        0x00004a94:    2a03        .*      CMP      r2,#3
        0x00004a96:    d813        ..      BHI      0x4ac0 ; Saban_Feedback_Mode_RS485 + 52
        0x00004a98:    0090        ..      LSLS     r0,r2,#2
        0x00004a9a:    a101        ..      ADR      r1,{pc}+6 ; 0x4aa0
        0x00004a9c:    5808        .X      LDR      r0,[r1,r0]
        0x00004a9e:    4687        .F      MOV      pc,r0
    $d.35
        0x00004aa0:    00004ab1    .J..    DCD    19121
        0x00004aa4:    00004ac3    .J..    DCD    19139
        0x00004aa8:    00004ab7    .J..    DCD    19127
        0x00004aac:    00004abd    .J..    DCD    19133
    $t.36
        0x00004ab0:    f7fdfec4    ....    BL       Rf_Send_Feedback_CRC ; 0x283c
        0x00004ab4:    bd80        ..      POP      {r7,pc}
        0x00004ab6:    f7fdfef7    ....    BL       Rf_Send_Feedback_SHA ; 0x28a8
        0x00004aba:    bd80        ..      POP      {r7,pc}
        0x00004abc:    f7fdfe88    ....    BL       Rf_Send_Feedback_AESSHA ; 0x27d0
        0x00004ac0:    bd80        ..      POP      {r7,pc}
        0x00004ac2:    f7fdfe4d    ..M.    BL       Rf_Send_Feedback_AESCRC ; 0x2760
        0x00004ac6:    bd80        ..      POP      {r7,pc}
    $d.37
    __arm_cp.19_0
        0x00004ac8:    20000212    ...     DCD    536871442
    $t.38
    Saban_Input_Control
        0x00004acc:    b570        p.      PUSH     {r4-r6,lr}
        0x00004ace:    b090        ..      SUB      sp,sp,#0x40
        0x00004ad0:    ad08        ..      ADD      r5,sp,#0x20
        0x00004ad2:    2420         $      MOVS     r4,#0x20
        0x00004ad4:    4628        (F      MOV      r0,r5
        0x00004ad6:    4621        !F      MOV      r1,r4
        0x00004ad8:    f7fbfb3b    ..;.    BL       __aeabi_memclr ; 0x152
        0x00004adc:    4668        hF      MOV      r0,sp
        0x00004ade:    4621        !F      MOV      r1,r4
        0x00004ae0:    f7fbfb37    ..7.    BL       __aeabi_memclr ; 0x152
        0x00004ae4:    48c6        .H      LDR      r0,[pc,#792] ; [0x4e00] = 0x20000408
        0x00004ae6:    7e41        A~      LDRB     r1,[r0,#0x19]
        0x00004ae8:    2230        0"      MOVS     r2,#0x30
        0x00004aea:    434a        JC      MULS     r2,r1,r2
        0x00004aec:    4968        hI      LDR      r1,[pc,#416] ; [0x4c90] = 0x2000073c
        0x00004aee:    1889        ..      ADDS     r1,r1,r2
        0x00004af0:    7909        .y      LDRB     r1,[r1,#4]
        0x00004af2:    2200        ."      MOVS     r2,#0
        0x00004af4:    2a08        .*      CMP      r2,#8
        0x00004af6:    d008        ..      BEQ      0x4b0a ; Saban_Input_Control + 62
        0x00004af8:    460b        .F      MOV      r3,r1
        0x00004afa:    40d3        .@      LSRS     r3,r3,r2
        0x00004afc:    2601        .&      MOVS     r6,#1
        0x00004afe:    401e        .@      ANDS     r6,r6,r3
        0x00004b00:    4273        sB      RSBS     r3,r6,#0
        0x00004b02:    1c52        R.      ADDS     r2,r2,#1
        0x00004b04:    4013        .@      ANDS     r3,r3,r2
        0x00004b06:    c508        ..      STM      r5!,{r3}
        0x00004b08:    e7f4        ..      B        0x4af4 ; Saban_Input_Control + 40
        0x00004b0a:    7e80        .~      LDRB     r0,[r0,#0x1a]
        0x00004b0c:    2100        .!      MOVS     r1,#0
        0x00004b0e:    466a        jF      MOV      r2,sp
        0x00004b10:    2908        .)      CMP      r1,#8
        0x00004b12:    d008        ..      BEQ      0x4b26 ; Saban_Input_Control + 90
        0x00004b14:    4603        .F      MOV      r3,r0
        0x00004b16:    40cb        .@      LSRS     r3,r3,r1
        0x00004b18:    2501        .%      MOVS     r5,#1
        0x00004b1a:    401d        .@      ANDS     r5,r5,r3
        0x00004b1c:    426b        kB      RSBS     r3,r5,#0
        0x00004b1e:    1c49        I.      ADDS     r1,r1,#1
        0x00004b20:    400b        .@      ANDS     r3,r3,r1
        0x00004b22:    c208        ..      STM      r2!,{r3}
        0x00004b24:    e7f4        ..      B        0x4b10 ; Saban_Input_Control + 68
        0x00004b26:    9a00        ..      LDR      r2,[sp,#0]
        0x00004b28:    9b08        ..      LDR      r3,[sp,#0x20]
        0x00004b2a:    485a        ZH      LDR      r0,[pc,#360] ; [0x4c94] = 0x50004218
        0x00004b2c:    2b00        .+      CMP      r3,#0
        0x00004b2e:    d00e        ..      BEQ      0x4b4e ; Saban_Input_Control + 130
        0x00004b30:    2a01        .*      CMP      r2,#1
        0x00004b32:    d10c        ..      BNE      0x4b4e ; Saban_Input_Control + 130
        0x00004b34:    4958        XI      LDR      r1,[pc,#352] ; [0x4c98] = 0x20000004
        0x00004b36:    7809        .x      LDRB     r1,[r1,#0]
        0x00004b38:    9a01        ..      LDR      r2,[sp,#4]
        0x00004b3a:    9b09        ..      LDR      r3,[sp,#0x24]
        0x00004b3c:    2b00        .+      CMP      r3,#0
        0x00004b3e:    d010        ..      BEQ      0x4b62 ; Saban_Input_Control + 150
        0x00004b40:    2a02        .*      CMP      r2,#2
        0x00004b42:    d10e        ..      BNE      0x4b62 ; Saban_Input_Control + 150
        0x00004b44:    4a54        TJ      LDR      r2,[pc,#336] ; [0x4c98] = 0x20000004
        0x00004b46:    7852        Rx      LDRB     r2,[r2,#1]
        0x00004b48:    0092        ..      LSLS     r2,r2,#2
        0x00004b4a:    430a        .C      ORRS     r2,r2,r1
        0x00004b4c:    e015        ..      B        0x4b7a ; Saban_Input_Control + 174
        0x00004b4e:    2100        .!      MOVS     r1,#0
        0x00004b50:    2b00        .+      CMP      r3,#0
        0x00004b52:    d0f1        ..      BEQ      0x4b38 ; Saban_Input_Control + 108
        0x00004b54:    2a00        .*      CMP      r2,#0
        0x00004b56:    d1ef        ..      BNE      0x4b38 ; Saban_Input_Control + 108
        0x00004b58:    6801        .h      LDR      r1,[r0,#0]
        0x00004b5a:    2901        .)      CMP      r1,#1
        0x00004b5c:    d0ec        ..      BEQ      0x4b38 ; Saban_Input_Control + 108
        0x00004b5e:    2102        .!      MOVS     r1,#2
        0x00004b60:    e7ea        ..      B        0x4b38 ; Saban_Input_Control + 108
        0x00004b62:    2b00        .+      CMP      r3,#0
        0x00004b64:    d008        ..      BEQ      0x4b78 ; Saban_Input_Control + 172
        0x00004b66:    2a00        .*      CMP      r2,#0
        0x00004b68:    d106        ..      BNE      0x4b78 ; Saban_Input_Control + 172
        0x00004b6a:    4a4c        LJ      LDR      r2,[pc,#304] ; [0x4c9c] = 0x50004298
        0x00004b6c:    6852        Rh      LDR      r2,[r2,#4]
        0x00004b6e:    2a01        .*      CMP      r2,#1
        0x00004b70:    d100        ..      BNE      0x4b74 ; Saban_Input_Control + 168
        0x00004b72:    e087        ..      B        0x4c84 ; Saban_Input_Control + 440
        0x00004b74:    2208        ."      MOVS     r2,#8
        0x00004b76:    e7e8        ..      B        0x4b4a ; Saban_Input_Control + 126
        0x00004b78:    460a        .F      MOV      r2,r1
        0x00004b7a:    9902        ..      LDR      r1,[sp,#8]
        0x00004b7c:    9b0a        ..      LDR      r3,[sp,#0x28]
        0x00004b7e:    2b00        .+      CMP      r3,#0
        0x00004b80:    d006        ..      BEQ      0x4b90 ; Saban_Input_Control + 196
        0x00004b82:    2903        .)      CMP      r1,#3
        0x00004b84:    d104        ..      BNE      0x4b90 ; Saban_Input_Control + 196
        0x00004b86:    4944        DI      LDR      r1,[pc,#272] ; [0x4c98] = 0x20000004
        0x00004b88:    7889        .x      LDRB     r1,[r1,#2]
        0x00004b8a:    010c        ..      LSLS     r4,r1,#4
        0x00004b8c:    4314        .C      ORRS     r4,r4,r2
        0x00004b8e:    e00a        ..      B        0x4ba6 ; Saban_Input_Control + 218
        0x00004b90:    2b00        .+      CMP      r3,#0
        0x00004b92:    d007        ..      BEQ      0x4ba4 ; Saban_Input_Control + 216
        0x00004b94:    2900        .)      CMP      r1,#0
        0x00004b96:    d105        ..      BNE      0x4ba4 ; Saban_Input_Control + 216
        0x00004b98:    4940        @I      LDR      r1,[pc,#256] ; [0x4c9c] = 0x50004298
        0x00004b9a:    6809        .h      LDR      r1,[r1,#0]
        0x00004b9c:    2901        .)      CMP      r1,#1
        0x00004b9e:    d1f5        ..      BNE      0x4b8c ; Saban_Input_Control + 192
        0x00004ba0:    2410        .$      MOVS     r4,#0x10
        0x00004ba2:    e7f3        ..      B        0x4b8c ; Saban_Input_Control + 192
        0x00004ba4:    4614        .F      MOV      r4,r2
        0x00004ba6:    9903        ..      LDR      r1,[sp,#0xc]
        0x00004ba8:    9a0b        ..      LDR      r2,[sp,#0x2c]
        0x00004baa:    2a00        .*      CMP      r2,#0
        0x00004bac:    d006        ..      BEQ      0x4bbc ; Saban_Input_Control + 240
        0x00004bae:    2904        .)      CMP      r1,#4
        0x00004bb0:    d104        ..      BNE      0x4bbc ; Saban_Input_Control + 240
        0x00004bb2:    4939        9I      LDR      r1,[pc,#228] ; [0x4c98] = 0x20000004
        0x00004bb4:    78c9        .x      LDRB     r1,[r1,#3]
        0x00004bb6:    0189        ..      LSLS     r1,r1,#6
        0x00004bb8:    4321        !C      ORRS     r1,r1,r4
        0x00004bba:    e009        ..      B        0x4bd0 ; Saban_Input_Control + 260
        0x00004bbc:    2a00        .*      CMP      r2,#0
        0x00004bbe:    d006        ..      BEQ      0x4bce ; Saban_Input_Control + 258
        0x00004bc0:    2900        .)      CMP      r1,#0
        0x00004bc2:    d104        ..      BNE      0x4bce ; Saban_Input_Control + 258
        0x00004bc4:    6e41        An      LDR      r1,[r0,#0x64]
        0x00004bc6:    2901        .)      CMP      r1,#1
        0x00004bc8:    d05e        ^.      BEQ      0x4c88 ; Saban_Input_Control + 444
        0x00004bca:    2180        .!      MOVS     r1,#0x80
        0x00004bcc:    e7f4        ..      B        0x4bb8 ; Saban_Input_Control + 236
        0x00004bce:    4621        !F      MOV      r1,r4
        0x00004bd0:    9a04        ..      LDR      r2,[sp,#0x10]
        0x00004bd2:    9b0c        ..      LDR      r3,[sp,#0x30]
        0x00004bd4:    2b00        .+      CMP      r3,#0
        0x00004bd6:    d006        ..      BEQ      0x4be6 ; Saban_Input_Control + 282
        0x00004bd8:    2a05        .*      CMP      r2,#5
        0x00004bda:    d104        ..      BNE      0x4be6 ; Saban_Input_Control + 282
        0x00004bdc:    4a2e        .J      LDR      r2,[pc,#184] ; [0x4c98] = 0x20000004
        0x00004bde:    7912        .y      LDRB     r2,[r2,#4]
        0x00004be0:    0212        ..      LSLS     r2,r2,#8
        0x00004be2:    430a        .C      ORRS     r2,r2,r1
        0x00004be4:    e00a        ..      B        0x4bfc ; Saban_Input_Control + 304
        0x00004be6:    2b00        .+      CMP      r3,#0
        0x00004be8:    d007        ..      BEQ      0x4bfa ; Saban_Input_Control + 302
        0x00004bea:    2a00        .*      CMP      r2,#0
        0x00004bec:    d105        ..      BNE      0x4bfa ; Saban_Input_Control + 302
        0x00004bee:    6c83        .l      LDR      r3,[r0,#0x48]
        0x00004bf0:    2201        ."      MOVS     r2,#1
        0x00004bf2:    2b01        .+      CMP      r3,#1
        0x00004bf4:    d0f4        ..      BEQ      0x4be0 ; Saban_Input_Control + 276
        0x00004bf6:    0252        R.      LSLS     r2,r2,#9
        0x00004bf8:    e7f3        ..      B        0x4be2 ; Saban_Input_Control + 278
        0x00004bfa:    460a        .F      MOV      r2,r1
        0x00004bfc:    9905        ..      LDR      r1,[sp,#0x14]
        0x00004bfe:    9b0d        ..      LDR      r3,[sp,#0x34]
        0x00004c00:    2b00        .+      CMP      r3,#0
        0x00004c02:    d006        ..      BEQ      0x4c12 ; Saban_Input_Control + 326
        0x00004c04:    2906        .)      CMP      r1,#6
        0x00004c06:    d104        ..      BNE      0x4c12 ; Saban_Input_Control + 326
        0x00004c08:    4923        #I      LDR      r1,[pc,#140] ; [0x4c98] = 0x20000004
        0x00004c0a:    7949        Iy      LDRB     r1,[r1,#5]
        0x00004c0c:    0289        ..      LSLS     r1,r1,#10
        0x00004c0e:    4311        .C      ORRS     r1,r1,r2
        0x00004c10:    e00a        ..      B        0x4c28 ; Saban_Input_Control + 348
        0x00004c12:    2b00        .+      CMP      r3,#0
        0x00004c14:    d007        ..      BEQ      0x4c26 ; Saban_Input_Control + 346
        0x00004c16:    2900        .)      CMP      r1,#0
        0x00004c18:    d105        ..      BNE      0x4c26 ; Saban_Input_Control + 346
        0x00004c1a:    6943        Ci      LDR      r3,[r0,#0x14]
        0x00004c1c:    2101        .!      MOVS     r1,#1
        0x00004c1e:    2b01        .+      CMP      r3,#1
        0x00004c20:    d0f4        ..      BEQ      0x4c0c ; Saban_Input_Control + 320
        0x00004c22:    02c9        ..      LSLS     r1,r1,#11
        0x00004c24:    e7f3        ..      B        0x4c0e ; Saban_Input_Control + 322
        0x00004c26:    4611        .F      MOV      r1,r2
        0x00004c28:    9a06        ..      LDR      r2,[sp,#0x18]
        0x00004c2a:    9b0e        ..      LDR      r3,[sp,#0x38]
        0x00004c2c:    2b00        .+      CMP      r3,#0
        0x00004c2e:    d006        ..      BEQ      0x4c3e ; Saban_Input_Control + 370
        0x00004c30:    2a07        .*      CMP      r2,#7
        0x00004c32:    d104        ..      BNE      0x4c3e ; Saban_Input_Control + 370
        0x00004c34:    4a18        .J      LDR      r2,[pc,#96] ; [0x4c98] = 0x20000004
        0x00004c36:    7992        .y      LDRB     r2,[r2,#6]
        0x00004c38:    0312        ..      LSLS     r2,r2,#12
        0x00004c3a:    430a        .C      ORRS     r2,r2,r1
        0x00004c3c:    e00a        ..      B        0x4c54 ; Saban_Input_Control + 392
        0x00004c3e:    2b00        .+      CMP      r3,#0
        0x00004c40:    d007        ..      BEQ      0x4c52 ; Saban_Input_Control + 390
        0x00004c42:    2a00        .*      CMP      r2,#0
        0x00004c44:    d105        ..      BNE      0x4c52 ; Saban_Input_Control + 390
        0x00004c46:    6903        .i      LDR      r3,[r0,#0x10]
        0x00004c48:    2201        ."      MOVS     r2,#1
        0x00004c4a:    2b01        .+      CMP      r3,#1
        0x00004c4c:    d0f4        ..      BEQ      0x4c38 ; Saban_Input_Control + 364
        0x00004c4e:    0352        R.      LSLS     r2,r2,#13
        0x00004c50:    e7f3        ..      B        0x4c3a ; Saban_Input_Control + 366
        0x00004c52:    460a        .F      MOV      r2,r1
        0x00004c54:    9907        ..      LDR      r1,[sp,#0x1c]
        0x00004c56:    9b0f        ..      LDR      r3,[sp,#0x3c]
        0x00004c58:    2b00        .+      CMP      r3,#0
        0x00004c5a:    d006        ..      BEQ      0x4c6a ; Saban_Input_Control + 414
        0x00004c5c:    2908        .)      CMP      r1,#8
        0x00004c5e:    d104        ..      BNE      0x4c6a ; Saban_Input_Control + 414
        0x00004c60:    480d        .H      LDR      r0,[pc,#52] ; [0x4c98] = 0x20000004
        0x00004c62:    79c0        .y      LDRB     r0,[r0,#7]
        0x00004c64:    0380        ..      LSLS     r0,r0,#14
        0x00004c66:    4310        .C      ORRS     r0,r0,r2
        0x00004c68:    e009        ..      B        0x4c7e ; Saban_Input_Control + 434
        0x00004c6a:    2b00        .+      CMP      r3,#0
        0x00004c6c:    d006        ..      BEQ      0x4c7c ; Saban_Input_Control + 432
        0x00004c6e:    2900        .)      CMP      r1,#0
        0x00004c70:    d104        ..      BNE      0x4c7c ; Saban_Input_Control + 432
        0x00004c72:    68c0        .h      LDR      r0,[r0,#0xc]
        0x00004c74:    2801        .(      CMP      r0,#1
        0x00004c76:    d009        ..      BEQ      0x4c8c ; Saban_Input_Control + 448
        0x00004c78:    4809        .H      LDR      r0,[pc,#36] ; [0x4ca0] = 0xffff8000
        0x00004c7a:    e7f4        ..      B        0x4c66 ; Saban_Input_Control + 410
        0x00004c7c:    4610        .F      MOV      r0,r2
        0x00004c7e:    b280        ..      UXTH     r0,r0
        0x00004c80:    b010        ..      ADD      sp,sp,#0x40
        0x00004c82:    bd70        p.      POP      {r4-r6,pc}
        0x00004c84:    2204        ."      MOVS     r2,#4
        0x00004c86:    e760        `.      B        0x4b4a ; Saban_Input_Control + 126
        0x00004c88:    2140        @!      MOVS     r1,#0x40
        0x00004c8a:    e795        ..      B        0x4bb8 ; Saban_Input_Control + 236
        0x00004c8c:    2001        .       MOVS     r0,#1
        0x00004c8e:    e7e9        ..      B        0x4c64 ; Saban_Input_Control + 408
    $d.39
    __arm_cp.19_1
        0x00004c90:    2000073c    <..     DCD    536872764
    __arm_cp.19_2
        0x00004c94:    50004218    .B.P    DCD    1342194200
    __arm_cp.19_3
        0x00004c98:    20000004    ...     DCD    536870916
    __arm_cp.19_4
        0x00004c9c:    50004298    .B.P    DCD    1342194328
    __arm_cp.19_5
        0x00004ca0:    ffff8000    ....    DCD    4294934528
    $t.40
    Saban_Output_Control
        0x00004ca4:    b510        ..      PUSH     {r4,lr}
        0x00004ca6:    b088        ..      SUB      sp,sp,#0x20
        0x00004ca8:    466c        lF      MOV      r4,sp
        0x00004caa:    2120         !      MOVS     r1,#0x20
        0x00004cac:    4620         F      MOV      r0,r4
        0x00004cae:    f7fbfa50    ..P.    BL       __aeabi_memclr ; 0x152
        0x00004cb2:    4853        SH      LDR      r0,[pc,#332] ; [0x4e00] = 0x20000408
        0x00004cb4:    7ec0        .~      LDRB     r0,[r0,#0x1b]
        0x00004cb6:    2100        .!      MOVS     r1,#0
        0x00004cb8:    2908        .)      CMP      r1,#8
        0x00004cba:    d008        ..      BEQ      0x4cce ; Saban_Output_Control + 42
        0x00004cbc:    4602        .F      MOV      r2,r0
        0x00004cbe:    40ca        .@      LSRS     r2,r2,r1
        0x00004cc0:    2301        .#      MOVS     r3,#1
        0x00004cc2:    4013        .@      ANDS     r3,r3,r2
        0x00004cc4:    425a        ZB      RSBS     r2,r3,#0
        0x00004cc6:    1c49        I.      ADDS     r1,r1,#1
        0x00004cc8:    400a        .@      ANDS     r2,r2,r1
        0x00004cca:    c404        ..      STM      r4!,{r2}
        0x00004ccc:    e7f4        ..      B        0x4cb8 ; Saban_Output_Control + 20
        0x00004cce:    9900        ..      LDR      r1,[sp,#0]
        0x00004cd0:    1e48        H.      SUBS     r0,r1,#1
        0x00004cd2:    4181        .A      SBCS     r1,r1,r0
        0x00004cd4:    480f        .H      LDR      r0,[pc,#60] ; [0x4d14] = 0x50004200
        0x00004cd6:    6141        Aa      STR      r1,[r0,#0x14]
        0x00004cd8:    9901        ..      LDR      r1,[sp,#4]
        0x00004cda:    1e4a        J.      SUBS     r2,r1,#1
        0x00004cdc:    4191        .A      SBCS     r1,r1,r2
        0x00004cde:    6101        .a      STR      r1,[r0,#0x10]
        0x00004ce0:    9902        ..      LDR      r1,[sp,#8]
        0x00004ce2:    1e4a        J.      SUBS     r2,r1,#1
        0x00004ce4:    4191        .A      SBCS     r1,r1,r2
        0x00004ce6:    60c1        .`      STR      r1,[r0,#0xc]
        0x00004ce8:    9903        ..      LDR      r1,[sp,#0xc]
        0x00004cea:    1e4a        J.      SUBS     r2,r1,#1
        0x00004cec:    4191        .A      SBCS     r1,r1,r2
        0x00004cee:    6081        .`      STR      r1,[r0,#8]
        0x00004cf0:    9904        ..      LDR      r1,[sp,#0x10]
        0x00004cf2:    1e4a        J.      SUBS     r2,r1,#1
        0x00004cf4:    4191        .A      SBCS     r1,r1,r2
        0x00004cf6:    6041        A`      STR      r1,[r0,#4]
        0x00004cf8:    9905        ..      LDR      r1,[sp,#0x14]
        0x00004cfa:    1e4a        J.      SUBS     r2,r1,#1
        0x00004cfc:    4191        .A      SBCS     r1,r1,r2
        0x00004cfe:    6001        .`      STR      r1,[r0,#0]
        0x00004d00:    9906        ..      LDR      r1,[sp,#0x18]
        0x00004d02:    1e4a        J.      SUBS     r2,r1,#1
        0x00004d04:    4191        .A      SBCS     r1,r1,r2
        0x00004d06:    6301        .c      STR      r1,[r0,#0x30]
        0x00004d08:    9907        ..      LDR      r1,[sp,#0x1c]
        0x00004d0a:    1e4a        J.      SUBS     r2,r1,#1
        0x00004d0c:    4191        .A      SBCS     r1,r1,r2
        0x00004d0e:    6341        Ac      STR      r1,[r0,#0x34]
        0x00004d10:    b008        ..      ADD      sp,sp,#0x20
        0x00004d12:    bd10        ..      POP      {r4,pc}
    $d.41
    __arm_cp.20_1
        0x00004d14:    50004200    .B.P    DCD    1342194176
    $t.3
    SendBack
        0x00004d18:    b5b0        ..      PUSH     {r4,r5,r7,lr}
        0x00004d1a:    b090        ..      SUB      sp,sp,#0x40
        0x00004d1c:    4605        .F      MOV      r5,r0
        0x00004d1e:    466c        lF      MOV      r4,sp
        0x00004d20:    1da0        ..      ADDS     r0,r4,#6
        0x00004d22:    213a        :!      MOVS     r1,#0x3a
        0x00004d24:    f7fbfa15    ....    BL       __aeabi_memclr ; 0x152
        0x00004d28:    7065        ep      STRB     r5,[r4,#1]
        0x00004d2a:    2002        .       MOVS     r0,#2
        0x00004d2c:    7020         p      STRB     r0,[r4,#0]
        0x00004d2e:    f7fefff1    ....    BL       SX1276GetTimeOnAir ; 0x3d14
        0x00004d32:    4605        .F      MOV      r5,r0
        0x00004d34:    3014        .0      ADDS     r0,r0,#0x14
        0x00004d36:    f7fffd13    ....    BL       SX1276LoRaSetRxPacketTimeout ; 0x4760
        0x00004d3a:    7165        eq      STRB     r5,[r4,#5]
        0x00004d3c:    0a28        (.      LSRS     r0,r5,#8
        0x00004d3e:    7120         q      STRB     r0,[r4,#4]
        0x00004d40:    0c28        (.      LSRS     r0,r5,#16
        0x00004d42:    70e0        .p      STRB     r0,[r4,#3]
        0x00004d44:    0e28        (.      LSRS     r0,r5,#24
        0x00004d46:    70a0        .p      STRB     r0,[r4,#2]
        0x00004d48:    4d3c        <M      LDR      r5,[pc,#240] ; [0x4e3c] = 0x40060040
        0x00004d4a:    6828        (h      LDR      r0,[r5,#0]
        0x00004d4c:    1940        @.      ADDS     r0,r0,r5
        0x00004d4e:    30c0        .0      ADDS     r0,r0,#0xc0
        0x00004d50:    4621        !F      MOV      r1,r4
        0x00004d52:    f000fe28    ..(.    BL       USBD_MemCopy ; 0x59a6
        0x00004d56:    2040        @       MOVS     r0,#0x40
        0x00004d58:    6068        h`      STR      r0,[r5,#4]
        0x00004d5a:    b010        ..      ADD      sp,sp,#0x40
        0x00004d5c:    bdb0        ..      POP      {r4,r5,r7,pc}
        0x00004d5e:    46c0        .F      MOV      r8,r8
    SendBackDeviceSettingInfo
        0x00004d60:    b5f0        ..      PUSH     {r4-r7,lr}
        0x00004d62:    b093        ..      SUB      sp,sp,#0x4c
        0x00004d64:    a803        ..      ADD      r0,sp,#0xc
        0x00004d66:    2140        @!      MOVS     r1,#0x40
        0x00004d68:    9102        ..      STR      r1,[sp,#8]
        0x00004d6a:    f7fbf9f2    ....    BL       __aeabi_memclr ; 0x152
        0x00004d6e:    f7fff8c7    ....    BL       SX1276LoRaGetRFFrequency ; 0x3f00
        0x00004d72:    4604        .F      MOV      r4,r0
        0x00004d74:    f7fff8e2    ....    BL       SX1276LoRaGetRFPower ; 0x3f3c
        0x00004d78:    9001        ..      STR      r0,[sp,#4]
        0x00004d7a:    f7fff913    ....    BL       SX1276LoRaGetSignalBandwidth ; 0x3fa4
        0x00004d7e:    4606        .F      MOV      r6,r0
        0x00004d80:    f7fff91e    ....    BL       SX1276LoRaGetSpreadingFactor ; 0x3fc0
        0x00004d84:    4607        .F      MOV      r7,r0
        0x00004d86:    f7fff88b    ....    BL       SX1276LoRaGetErrorCoding ; 0x3ea0
        0x00004d8a:    4605        .F      MOV      r5,r0
        0x00004d8c:    f7fff906    ....    BL       SX1276LoRaGetRxPacketTimeout ; 0x3f9c
        0x00004d90:    4a1b        .J      LDR      r2,[pc,#108] ; [0x4e00] = 0x20000408
        0x00004d92:    8c93        ..      LDRH     r3,[r2,#0x24]
        0x00004d94:    491b        .I      LDR      r1,[pc,#108] ; [0x4e04] = 0x3689cac0
        0x00004d96:    428c        .B      CMP      r4,r1
        0x00004d98:    d005        ..      BEQ      0x4da6 ; SendBackDeviceSettingInfo + 70
        0x00004d9a:    491b        .I      LDR      r1,[pc,#108] ; [0x4e08] = 0x19cf0e40
        0x00004d9c:    428c        .B      CMP      r4,r1
        0x00004d9e:    d105        ..      BNE      0x4dac ; SendBackDeviceSettingInfo + 76
        0x00004da0:    a903        ..      ADD      r1,sp,#0xc
        0x00004da2:    2401        .$      MOVS     r4,#1
        0x00004da4:    e001        ..      B        0x4daa ; SendBackDeviceSettingInfo + 74
        0x00004da6:    a903        ..      ADD      r1,sp,#0xc
        0x00004da8:    2402        .$      MOVS     r4,#2
        0x00004daa:    700c        .p      STRB     r4,[r1,#0]
        0x00004dac:    a903        ..      ADD      r1,sp,#0xc
        0x00004dae:    710d        .q      STRB     r5,[r1,#4]
        0x00004db0:    70cf        .p      STRB     r7,[r1,#3]
        0x00004db2:    708e        .p      STRB     r6,[r1,#2]
        0x00004db4:    9c01        ..      LDR      r4,[sp,#4]
        0x00004db6:    704c        Lp      STRB     r4,[r1,#1]
        0x00004db8:    7288        .r      STRB     r0,[r1,#0xa]
        0x00004dba:    7e14        .~      LDRB     r4,[r2,#0x18]
        0x00004dbc:    714c        Lq      STRB     r4,[r1,#5]
        0x00004dbe:    0a04        ..      LSRS     r4,r0,#8
        0x00004dc0:    724c        Lr      STRB     r4,[r1,#9]
        0x00004dc2:    0c04        ..      LSRS     r4,r0,#16
        0x00004dc4:    720c        .r      STRB     r4,[r1,#8]
        0x00004dc6:    0e00        ..      LSRS     r0,r0,#24
        0x00004dc8:    71c8        .q      STRB     r0,[r1,#7]
        0x00004dca:    7e50        P~      LDRB     r0,[r2,#0x19]
        0x00004dcc:    7188        .q      STRB     r0,[r1,#6]
        0x00004dce:    3218        .2      ADDS     r2,r2,#0x18
        0x00004dd0:    7a10        .z      LDRB     r0,[r2,#8]
        0x00004dd2:    72c8        .r      STRB     r0,[r1,#0xb]
        0x00004dd4:    7a50        Pz      LDRB     r0,[r2,#9]
        0x00004dd6:    7308        .s      STRB     r0,[r1,#0xc]
        0x00004dd8:    7a90        .z      LDRB     r0,[r2,#0xa]
        0x00004dda:    7348        Hs      STRB     r0,[r1,#0xd]
        0x00004ddc:    7ad0        .z      LDRB     r0,[r2,#0xb]
        0x00004dde:    740b        .t      STRB     r3,[r1,#0x10]
        0x00004de0:    0a1b        ..      LSRS     r3,r3,#8
        0x00004de2:    73cb        .s      STRB     r3,[r1,#0xf]
        0x00004de4:    7388        .s      STRB     r0,[r1,#0xe]
        0x00004de6:    7d90        .}      LDRB     r0,[r2,#0x16]
        0x00004de8:    7448        Ht      STRB     r0,[r1,#0x11]
        0x00004dea:    4c14        .L      LDR      r4,[pc,#80] ; [0x4e3c] = 0x40060040
        0x00004dec:    6820         h      LDR      r0,[r4,#0]
        0x00004dee:    1900        ..      ADDS     r0,r0,r4
        0x00004df0:    30c0        .0      ADDS     r0,r0,#0xc0
        0x00004df2:    f000fdd8    ....    BL       USBD_MemCopy ; 0x59a6
        0x00004df6:    9802        ..      LDR      r0,[sp,#8]
        0x00004df8:    6060        ``      STR      r0,[r4,#4]
        0x00004dfa:    b013        ..      ADD      sp,sp,#0x4c
        0x00004dfc:    bdf0        ..      POP      {r4-r7,pc}
        0x00004dfe:    46c0        .F      MOV      r8,r8
    $d.1
    __arm_cp.0_0
        0x00004e00:    20000408    ...     DCD    536871944
    __arm_cp.0_1
        0x00004e04:    3689cac0    ...6    DCD    915000000
    __arm_cp.0_2
        0x00004e08:    19cf0e40    @...    DCD    433000000
    $t.5
    SendBackTestModbus
        0x00004e0c:    b5f0        ..      PUSH     {r4-r7,lr}
        0x00004e0e:    b091        ..      SUB      sp,sp,#0x44
        0x00004e10:    460d        .F      MOV      r5,r1
        0x00004e12:    4606        .F      MOV      r6,r0
        0x00004e14:    af01        ..      ADD      r7,sp,#4
        0x00004e16:    2440        @$      MOVS     r4,#0x40
        0x00004e18:    4638        8F      MOV      r0,r7
        0x00004e1a:    4621        !F      MOV      r1,r4
        0x00004e1c:    f7fbf999    ....    BL       __aeabi_memclr ; 0x152
        0x00004e20:    70be        .p      STRB     r6,[r7,#2]
        0x00004e22:    7828        (x      LDRB     r0,[r5,#0]
        0x00004e24:    7078        xp      STRB     r0,[r7,#1]
        0x00004e26:    4d05        .M      LDR      r5,[pc,#20] ; [0x4e3c] = 0x40060040
        0x00004e28:    6828        (h      LDR      r0,[r5,#0]
        0x00004e2a:    1940        @.      ADDS     r0,r0,r5
        0x00004e2c:    30c0        .0      ADDS     r0,r0,#0xc0
        0x00004e2e:    4639        9F      MOV      r1,r7
        0x00004e30:    f000fdb9    ....    BL       USBD_MemCopy ; 0x59a6
        0x00004e34:    606c        l`      STR      r4,[r5,#4]
        0x00004e36:    b011        ..      ADD      sp,sp,#0x44
        0x00004e38:    bdf0        ..      POP      {r4-r7,pc}
        0x00004e3a:    46c0        .F      MOV      r8,r8
    $d.6
    __arm_cp.3_0
        0x00004e3c:    40060040    @..@    DCD    1074135104
    $t.4
    SendChar_ToUART
        0x00004e40:    2101        .!      MOVS     r1,#1
        0x00004e42:    05ca        ..      LSLS     r2,r1,#23
        0x00004e44:    4906        .I      LDR      r1,[pc,#24] ; [0x4e60] = 0x40150000
        0x00004e46:    698b        .i      LDR      r3,[r1,#0x18]
        0x00004e48:    4213        .B      TST      r3,r2
        0x00004e4a:    d1fc        ..      BNE      0x4e46 ; SendChar_ToUART + 6
        0x00004e4c:    280a        .(      CMP      r0,#0xa
        0x00004e4e:    d104        ..      BNE      0x4e5a ; SendChar_ToUART + 26
        0x00004e50:    230d        .#      MOVS     r3,#0xd
        0x00004e52:    600b        .`      STR      r3,[r1,#0]
        0x00004e54:    698b        .i      LDR      r3,[r1,#0x18]
        0x00004e56:    4213        .B      TST      r3,r2
        0x00004e58:    d1fc        ..      BNE      0x4e54 ; SendChar_ToUART + 20
        0x00004e5a:    6008        .`      STR      r0,[r1,#0]
        0x00004e5c:    4770        pG      BX       lr
        0x00004e5e:    46c0        .F      MOV      r8,r8
    $d.5
    __arm_cp.2_0
        0x00004e60:    40150000    ...@    DCD    1075118080
    $t.7
    SetDataFlashBase
        0x00004e64:    b51c        ..      PUSH     {r2-r4,lr}
        0x00004e66:    4604        .F      MOV      r4,r0
        0x00004e68:    4668        hF      MOV      r0,sp
        0x00004e6a:    2102        .!      MOVS     r1,#2
        0x00004e6c:    f7fcfd28    ..(.    BL       FMC_ReadConfig ; 0x18c0
        0x00004e70:    2800        .(      CMP      r0,#0
        0x00004e72:    d408        ..      BMI      0x4e86 ; SetDataFlashBase + 34
        0x00004e74:    4668        hF      MOV      r0,sp
        0x00004e76:    7800        .x      LDRB     r0,[r0,#0]
        0x00004e78:    07c0        ..      LSLS     r0,r0,#31
        0x00004e7a:    d109        ..      BNE      0x4e90 ; SetDataFlashBase + 44
        0x00004e7c:    9801        ..      LDR      r0,[sp,#4]
        0x00004e7e:    42a0        .B      CMP      r0,r4
        0x00004e80:    d106        ..      BNE      0x4e90 ; SetDataFlashBase + 44
        0x00004e82:    2000        .       MOVS     r0,#0
        0x00004e84:    bd1c        ..      POP      {r2-r4,pc}
        0x00004e86:    a010        ..      ADR      r0,{pc}+0x42 ; 0x4ec8
        0x00004e88:    f002f9d6    ....    BL       puts ; 0x7238
        0x00004e8c:    2000        .       MOVS     r0,#0
        0x00004e8e:    e014        ..      B        0x4eba ; SetDataFlashBase + 86
        0x00004e90:    480b        .H      LDR      r0,[pc,#44] ; [0x4ec0] = 0x5000c000
        0x00004e92:    6801        .h      LDR      r1,[r0,#0]
        0x00004e94:    2210        ."      MOVS     r2,#0x10
        0x00004e96:    430a        .C      ORRS     r2,r2,r1
        0x00004e98:    6002        .`      STR      r2,[r0,#0]
        0x00004e9a:    9401        ..      STR      r4,[sp,#4]
        0x00004e9c:    2401        .$      MOVS     r4,#1
        0x00004e9e:    9800        ..      LDR      r0,[sp,#0]
        0x00004ea0:    43a0        .C      BICS     r0,r0,r4
        0x00004ea2:    9000        ..      STR      r0,[sp,#0]
        0x00004ea4:    4668        hF      MOV      r0,sp
        0x00004ea6:    2102        .!      MOVS     r1,#2
        0x00004ea8:    f7fcfd2e    ....    BL       FMC_WriteConfig ; 0x1908
        0x00004eac:    4601        .F      MOV      r1,r0
        0x00004eae:    2000        .       MOVS     r0,#0
        0x00004eb0:    2900        .)      CMP      r1,#0
        0x00004eb2:    d402        ..      BMI      0x4eba ; SetDataFlashBase + 86
        0x00004eb4:    4903        .I      LDR      r1,[pc,#12] ; [0x4ec4] = 0x50000008
        0x00004eb6:    600c        .`      STR      r4,[r1,#0]
        0x00004eb8:    bd1c        ..      POP      {r2-r4,pc}
        0x00004eba:    43c0        .C      MVNS     r0,r0
        0x00004ebc:    bd1c        ..      POP      {r2-r4,pc}
        0x00004ebe:    46c0        .F      MOV      r8,r8
    $d.8
    __arm_cp.4_0
        0x00004ec0:    5000c000    ...P    DCD    1342226432
    __arm_cp.4_1
        0x00004ec4:    50000008    ...P    DCD    1342177288
        0x00004ec8:    6165520a    .Rea    DCD    1634030090
        0x00004ecc:    73552064    d Us    DCD    1934958692
        0x00004ed0:    43207265    er C    DCD    1126199909
        0x00004ed4:    69666e6f    onfi    DCD    1768320623
        0x00004ed8:    61662067    g fa    DCD    1634082919
        0x00004edc:    64656c69    iled    DCD    1684368489
        0x00004ee0:    00000021    !...    DCD    33
    $t.5
    Sha256Finalise
        0x00004ee4:    b5f8        ..      PUSH     {r3-r7,lr}
        0x00004ee6:    4605        .F      MOV      r5,r0
        0x00004ee8:    6a80        .j      LDR      r0,[r0,#0x28]
        0x00004eea:    283f        ?(      CMP      r0,#0x3f
        0x00004eec:    d900        ..      BLS      0x4ef0 ; Sha256Finalise + 12
        0x00004eee:    bdf8        ..      POP      {r3-r7,pc}
        0x00004ef0:    460c        .F      MOV      r4,r1
        0x00004ef2:    1c41        A.      ADDS     r1,r0,#1
        0x00004ef4:    62a9        .b      STR      r1,[r5,#0x28]
        0x00004ef6:    00c1        ..      LSLS     r1,r0,#3
        0x00004ef8:    682a        *h      LDR      r2,[r5,#0]
        0x00004efa:    2700        .'      MOVS     r7,#0
        0x00004efc:    1851        Q.      ADDS     r1,r2,r1
        0x00004efe:    6029        )`      STR      r1,[r5,#0]
        0x00004f00:    6869        ih      LDR      r1,[r5,#4]
        0x00004f02:    4179        yA      ADCS     r1,r1,r7
        0x00004f04:    6069        i`      STR      r1,[r5,#4]
        0x00004f06:    462e        .F      MOV      r6,r5
        0x00004f08:    362c        ,6      ADDS     r6,r6,#0x2c
        0x00004f0a:    2180        .!      MOVS     r1,#0x80
        0x00004f0c:    5431        1T      STRB     r1,[r6,r0]
        0x00004f0e:    6aa8        .j      LDR      r0,[r5,#0x28]
        0x00004f10:    2839        9(      CMP      r0,#0x39
        0x00004f12:    d30d        ..      BCC      0x4f30 ; Sha256Finalise + 76
        0x00004f14:    283f        ?(      CMP      r0,#0x3f
        0x00004f16:    d805        ..      BHI      0x4f24 ; Sha256Finalise + 64
        0x00004f18:    1c41        A.      ADDS     r1,r0,#1
        0x00004f1a:    62a9        .b      STR      r1,[r5,#0x28]
        0x00004f1c:    2100        .!      MOVS     r1,#0
        0x00004f1e:    5431        1T      STRB     r1,[r6,r0]
        0x00004f20:    6aa8        .j      LDR      r0,[r5,#0x28]
        0x00004f22:    e7f7        ..      B        0x4f14 ; Sha256Finalise + 48
        0x00004f24:    4628        (F      MOV      r0,r5
        0x00004f26:    4631        1F      MOV      r1,r6
        0x00004f28:    f000face    ....    BL       TransformFunction ; 0x54c8
        0x00004f2c:    2000        .       MOVS     r0,#0
        0x00004f2e:    62a8        .b      STR      r0,[r5,#0x28]
        0x00004f30:    4629        )F      MOV      r1,r5
        0x00004f32:    3164        d1      ADDS     r1,r1,#0x64
        0x00004f34:    2837        7(      CMP      r0,#0x37
        0x00004f36:    d805        ..      BHI      0x4f44 ; Sha256Finalise + 96
        0x00004f38:    1c42        B.      ADDS     r2,r0,#1
        0x00004f3a:    62aa        .b      STR      r2,[r5,#0x28]
        0x00004f3c:    2200        ."      MOVS     r2,#0
        0x00004f3e:    5432        2T      STRB     r2,[r6,r0]
        0x00004f40:    6aa8        .j      LDR      r0,[r5,#0x28]
        0x00004f42:    e7f7        ..      B        0x4f34 ; Sha256Finalise + 80
        0x00004f44:    cd05        ..      LDM      r5!,{r0,r2}
        0x00004f46:    71c8        .q      STRB     r0,[r1,#7]
        0x00004f48:    70ca        .p      STRB     r2,[r1,#3]
        0x00004f4a:    0a03        ..      LSRS     r3,r0,#8
        0x00004f4c:    718b        .q      STRB     r3,[r1,#6]
        0x00004f4e:    0c03        ..      LSRS     r3,r0,#16
        0x00004f50:    714b        Kq      STRB     r3,[r1,#5]
        0x00004f52:    0e00        ..      LSRS     r0,r0,#24
        0x00004f54:    7108        .q      STRB     r0,[r1,#4]
        0x00004f56:    0a10        ..      LSRS     r0,r2,#8
        0x00004f58:    7088        .p      STRB     r0,[r1,#2]
        0x00004f5a:    0c10        ..      LSRS     r0,r2,#16
        0x00004f5c:    7048        Hp      STRB     r0,[r1,#1]
        0x00004f5e:    0e10        ..      LSRS     r0,r2,#24
        0x00004f60:    7008        .p      STRB     r0,[r1,#0]
        0x00004f62:    3d08        .=      SUBS     r5,r5,#8
        0x00004f64:    4628        (F      MOV      r0,r5
        0x00004f66:    4631        1F      MOV      r1,r6
        0x00004f68:    f000faae    ....    BL       TransformFunction ; 0x54c8
        0x00004f6c:    3508        .5      ADDS     r5,r5,#8
        0x00004f6e:    2f20         /      CMP      r7,#0x20
        0x00004f70:    d0bd        ..      BEQ      0x4eee ; Sha256Finalise + 10
        0x00004f72:    19e8        ..      ADDS     r0,r5,r7
        0x00004f74:    78c1        .x      LDRB     r1,[r0,#3]
        0x00004f76:    55e1        .U      STRB     r1,[r4,r7]
        0x00004f78:    19e1        ..      ADDS     r1,r4,r7
        0x00004f7a:    8840        @.      LDRH     r0,[r0,#2]
        0x00004f7c:    7048        Hp      STRB     r0,[r1,#1]
        0x00004f7e:    59e8        .Y      LDR      r0,[r5,r7]
        0x00004f80:    0a00        ..      LSRS     r0,r0,#8
        0x00004f82:    7088        .p      STRB     r0,[r1,#2]
        0x00004f84:    59e8        .Y      LDR      r0,[r5,r7]
        0x00004f86:    70c8        .p      STRB     r0,[r1,#3]
        0x00004f88:    1d3f        ?.      ADDS     r7,r7,#4
        0x00004f8a:    e7f0        ..      B        0x4f6e ; Sha256Finalise + 138
    Sha256Initialise
        0x00004f8c:    b5f0        ..      PUSH     {r4-r7,lr}
        0x00004f8e:    2100        .!      MOVS     r1,#0
        0x00004f90:    4a09        .J      LDR      r2,[pc,#36] ; [0x4fb8] = 0x5be0cd19
        0x00004f92:    6242        Bb      STR      r2,[r0,#0x24]
        0x00004f94:    4a09        .J      LDR      r2,[pc,#36] ; [0x4fbc] = 0x1f83d9ab
        0x00004f96:    6202        .b      STR      r2,[r0,#0x20]
        0x00004f98:    4a09        .J      LDR      r2,[pc,#36] ; [0x4fc0] = 0x9b05688c
        0x00004f9a:    4b0a        .K      LDR      r3,[pc,#40] ; [0x4fc4] = 0x510e527f
        0x00004f9c:    4c0a        .L      LDR      r4,[pc,#40] ; [0x4fc8] = 0xa54ff53a
        0x00004f9e:    4d0b        .M      LDR      r5,[pc,#44] ; [0x4fcc] = 0x3c6ef372
        0x00004fa0:    4e0b        .N      LDR      r6,[pc,#44] ; [0x4fd0] = 0xbb67ae85
        0x00004fa2:    4f0c        .O      LDR      r7,[pc,#48] ; [0x4fd4] = 0x6a09e667
        0x00004fa4:    6001        .`      STR      r1,[r0,#0]
        0x00004fa6:    6041        A`      STR      r1,[r0,#4]
        0x00004fa8:    6087        .`      STR      r7,[r0,#8]
        0x00004faa:    60c6        .`      STR      r6,[r0,#0xc]
        0x00004fac:    6105        .a      STR      r5,[r0,#0x10]
        0x00004fae:    6144        Da      STR      r4,[r0,#0x14]
        0x00004fb0:    6183        .a      STR      r3,[r0,#0x18]
        0x00004fb2:    61c2        .a      STR      r2,[r0,#0x1c]
        0x00004fb4:    6281        .b      STR      r1,[r0,#0x28]
        0x00004fb6:    bdf0        ..      POP      {r4-r7,pc}
    $d.1
    __arm_cp.0_0
        0x00004fb8:    5be0cd19    ...[    DCD    1541459225
    __arm_cp.0_1
        0x00004fbc:    1f83d9ab    ....    DCD    528734635
    __arm_cp.0_2
        0x00004fc0:    9b05688c    .h..    DCD    2600822924
    __arm_cp.0_3
        0x00004fc4:    510e527f    .R.Q    DCD    1359893119
    __arm_cp.0_4
        0x00004fc8:    a54ff53a    :.O.    DCD    2773480762
    __arm_cp.0_5
        0x00004fcc:    3c6ef372    r.n<    DCD    1013904242
    __arm_cp.0_6
        0x00004fd0:    bb67ae85    ..g.    DCD    3144134277
    __arm_cp.0_7
        0x00004fd4:    6a09e667    g..j    DCD    1779033703
    $t.2
    Sha256Update
        0x00004fd8:    b5fe        ..      PUSH     {r1-r7,lr}
        0x00004fda:    4606        .F      MOV      r6,r0
        0x00004fdc:    6a80        .j      LDR      r0,[r0,#0x28]
        0x00004fde:    2840        @(      CMP      r0,#0x40
        0x00004fe0:    d900        ..      BLS      0x4fe4 ; Sha256Update + 12
        0x00004fe2:    bdfe        ..      POP      {r1-r7,pc}
        0x00004fe4:    4617        .F      MOV      r7,r2
        0x00004fe6:    460d        .F      MOV      r5,r1
        0x00004fe8:    2001        .       MOVS     r0,#1
        0x00004fea:    0240        @.      LSLS     r0,r0,#9
        0x00004fec:    9002        ..      STR      r0,[sp,#8]
        0x00004fee:    4630        0F      MOV      r0,r6
        0x00004ff0:    302c        ,0      ADDS     r0,r0,#0x2c
        0x00004ff2:    9001        ..      STR      r0,[sp,#4]
        0x00004ff4:    2f00        ./      CMP      r7,#0
        0x00004ff6:    d0f4        ..      BEQ      0x4fe2 ; Sha256Update + 10
        0x00004ff8:    6ab0        .j      LDR      r0,[r6,#0x28]
        0x00004ffa:    2f40        @/      CMP      r7,#0x40
        0x00004ffc:    d310        ..      BCC      0x5020 ; Sha256Update + 72
        0x00004ffe:    2800        .(      CMP      r0,#0
        0x00005000:    d10e        ..      BNE      0x5020 ; Sha256Update + 72
        0x00005002:    4630        0F      MOV      r0,r6
        0x00005004:    4629        )F      MOV      r1,r5
        0x00005006:    f000fa5f    .._.    BL       TransformFunction ; 0x54c8
        0x0000500a:    6830        0h      LDR      r0,[r6,#0]
        0x0000500c:    2100        .!      MOVS     r1,#0
        0x0000500e:    9a02        ..      LDR      r2,[sp,#8]
        0x00005010:    1880        ..      ADDS     r0,r0,r2
        0x00005012:    6030        0`      STR      r0,[r6,#0]
        0x00005014:    6870        ph      LDR      r0,[r6,#4]
        0x00005016:    4148        HA      ADCS     r0,r0,r1
        0x00005018:    6070        p`      STR      r0,[r6,#4]
        0x0000501a:    3f40        @?      SUBS     r7,r7,#0x40
        0x0000501c:    3540        @5      ADDS     r5,r5,#0x40
        0x0000501e:    e7e9        ..      B        0x4ff4 ; Sha256Update + 28
        0x00005020:    2140        @!      MOVS     r1,#0x40
        0x00005022:    1a09        ..      SUBS     r1,r1,r0
        0x00005024:    428f        .B      CMP      r7,r1
        0x00005026:    463c        <F      MOV      r4,r7
        0x00005028:    d300        ..      BCC      0x502c ; Sha256Update + 84
        0x0000502a:    460c        .F      MOV      r4,r1
        0x0000502c:    9901        ..      LDR      r1,[sp,#4]
        0x0000502e:    1808        ..      ADDS     r0,r1,r0
        0x00005030:    4629        )F      MOV      r1,r5
        0x00005032:    4622        "F      MOV      r2,r4
        0x00005034:    f7fbf874    ..t.    BL       __aeabi_memcpy ; 0x120
        0x00005038:    6ab0        .j      LDR      r0,[r6,#0x28]
        0x0000503a:    1900        ..      ADDS     r0,r0,r4
        0x0000503c:    62b0        .b      STR      r0,[r6,#0x28]
        0x0000503e:    1b3f        ?.      SUBS     r7,r7,r4
        0x00005040:    192d        -.      ADDS     r5,r5,r4
        0x00005042:    2840        @(      CMP      r0,#0x40
        0x00005044:    d1d6        ..      BNE      0x4ff4 ; Sha256Update + 28
        0x00005046:    4630        0F      MOV      r0,r6
        0x00005048:    9901        ..      LDR      r1,[sp,#4]
        0x0000504a:    f000fa3d    ..=.    BL       TransformFunction ; 0x54c8
        0x0000504e:    2000        .       MOVS     r0,#0
        0x00005050:    62b0        .b      STR      r0,[r6,#0x28]
        0x00005052:    6831        1h      LDR      r1,[r6,#0]
        0x00005054:    9a02        ..      LDR      r2,[sp,#8]
        0x00005056:    1889        ..      ADDS     r1,r1,r2
        0x00005058:    6031        1`      STR      r1,[r6,#0]
        0x0000505a:    6871        qh      LDR      r1,[r6,#4]
        0x0000505c:    4141        AA      ADCS     r1,r1,r0
        0x0000505e:    6071        q`      STR      r1,[r6,#4]
        0x00005060:    e7c8        ..      B        0x4ff4 ; Sha256Update + 28
        0x00005062:    0000        ..      MOVS     r0,r0
    SystemCoreClockUpdate
        0x00005064:    b5b0        ..      PUSH     {r4,r5,r7,lr}
        0x00005066:    4c1d        .L      LDR      r4,[pc,#116] ; [0x50dc] = 0x50000210
        0x00005068:    6921        !i      LDR      r1,[r4,#0x10]
        0x0000506a:    2005        .       MOVS     r0,#5
        0x0000506c:    0400        ..      LSLS     r0,r0,#16
        0x0000506e:    4201        .B      TST      r1,r0
        0x00005070:    d001        ..      BEQ      0x5076 ; SystemCoreClockUpdate + 18
        0x00005072:    2000        .       MOVS     r0,#0
        0x00005074:    e016        ..      B        0x50a4 ; SystemCoreClockUpdate + 64
        0x00005076:    0308        ..      LSLS     r0,r1,#12
        0x00005078:    d501        ..      BPL      0x507e ; SystemCoreClockUpdate + 26
        0x0000507a:    481a        .H      LDR      r0,[pc,#104] ; [0x50e4] = 0x1518000
        0x0000507c:    e000        ..      B        0x5080 ; SystemCoreClockUpdate + 28
        0x0000507e:    4818        .H      LDR      r0,[pc,#96] ; [0x50e0] = 0xb71b00
        0x00005080:    038a        ..      LSLS     r2,r1,#14
        0x00005082:    d40f        ..      BMI      0x50a4 ; SystemCoreClockUpdate + 64
        0x00005084:    4a18        .J      LDR      r2,[pc,#96] ; [0x50e8] = 0x1ff
        0x00005086:    400a        .@      ANDS     r2,r2,r1
        0x00005088:    1c92        ..      ADDS     r2,r2,#2
        0x0000508a:    0880        ..      LSRS     r0,r0,#2
        0x0000508c:    4350        PC      MULS     r0,r2,r0
        0x0000508e:    040a        ..      LSLS     r2,r1,#16
        0x00005090:    0f92        ..      LSRS     r2,r2,#30
        0x00005092:    a316        ..      ADR      r3,{pc}+0x5a ; 0x50ec
        0x00005094:    5c9a        .\      LDRB     r2,[r3,r2]
        0x00005096:    0489        ..      LSLS     r1,r1,#18
        0x00005098:    0ec9        ..      LSRS     r1,r1,#27
        0x0000509a:    1c89        ..      ADDS     r1,r1,#2
        0x0000509c:    4351        QC      MULS     r1,r2,r1
        0x0000509e:    f7fbfa7d    ..}.    BL       __aeabi_uidiv ; 0x59c
        0x000050a2:    0080        ..      LSLS     r0,r0,#2
        0x000050a4:    4d12        .M      LDR      r5,[pc,#72] ; [0x50f0] = 0x2000000c
        0x000050a6:    60a8        .`      STR      r0,[r5,#8]
        0x000050a8:    6821        !h      LDR      r1,[r4,#0]
        0x000050aa:    2007        .       MOVS     r0,#7
        0x000050ac:    4008        .@      ANDS     r0,r0,r1
        0x000050ae:    2802        .(      CMP      r0,#2
        0x000050b0:    d003        ..      BEQ      0x50ba ; SystemCoreClockUpdate + 86
        0x000050b2:    0080        ..      LSLS     r0,r0,#2
        0x000050b4:    1828        (.      ADDS     r0,r5,r0
        0x000050b6:    300c        .0      ADDS     r0,r0,#0xc
        0x000050b8:    e001        ..      B        0x50be ; SystemCoreClockUpdate + 90
        0x000050ba:    4628        (F      MOV      r0,r5
        0x000050bc:    3008        .0      ADDS     r0,r0,#8
        0x000050be:    6800        .h      LDR      r0,[r0,#0]
        0x000050c0:    68a1        .h      LDR      r1,[r4,#8]
        0x000050c2:    220f        ."      MOVS     r2,#0xf
        0x000050c4:    400a        .@      ANDS     r2,r2,r1
        0x000050c6:    1c51        Q.      ADDS     r1,r2,#1
        0x000050c8:    f7fbfa68    ..h.    BL       __aeabi_uidiv ; 0x59c
        0x000050cc:    6028        (`      STR      r0,[r5,#0]
        0x000050ce:    4909        .I      LDR      r1,[pc,#36] ; [0x50f4] = 0x7a120
        0x000050d0:    1840        @.      ADDS     r0,r0,r1
        0x000050d2:    4909        .I      LDR      r1,[pc,#36] ; [0x50f8] = 0xf4240
        0x000050d4:    f7fbfa62    ..b.    BL       __aeabi_uidiv ; 0x59c
        0x000050d8:    6068        h`      STR      r0,[r5,#4]
        0x000050da:    bdb0        ..      POP      {r4,r5,r7,pc}
    $d.1
    __arm_cp.0_0
        0x000050dc:    50000210    ...P    DCD    1342177808
    __arm_cp.0_1
        0x000050e0:    00b71b00    ....    DCD    12000000
    __arm_cp.0_2
        0x000050e4:    01518000    ..Q.    DCD    22118400
    __arm_cp.0_3
        0x000050e8:    000001ff    ....    DCD    511
        0x000050ec:    04020201    ....    DCD    67240449
    __arm_cp.0_5
        0x000050f0:    2000000c    ...     DCD    536870924
    __arm_cp.0_6
        0x000050f4:    0007a120     ...    DCD    500000
    __arm_cp.0_7
        0x000050f8:    000f4240    @B..    DCD    1000000
    $t.2
    SystemInit
        0x000050fc:    4770        pG      BX       lr
        0x000050fe:    0000        ..      MOVS     r0,r0
    TIMER_GetModuleClock
        0x00005100:    490e        .I      LDR      r1,[pc,#56] ; [0x513c] = 0x50000214
        0x00005102:    6809        .h      LDR      r1,[r1,#0]
        0x00005104:    4a0e        .J      LDR      r2,[pc,#56] ; [0x5140] = 0x40010000
        0x00005106:    4290        .B      CMP      r0,r2
        0x00005108:    d009        ..      BEQ      0x511e ; TIMER_GetModuleClock + 30
        0x0000510a:    4a0e        .J      LDR      r2,[pc,#56] ; [0x5144] = 0x40110000
        0x0000510c:    4290        .B      CMP      r0,r2
        0x0000510e:    d004        ..      BEQ      0x511a ; TIMER_GetModuleClock + 26
        0x00005110:    4a0d        .J      LDR      r2,[pc,#52] ; [0x5148] = 0x40010020
        0x00005112:    4290        .B      CMP      r0,r2
        0x00005114:    d105        ..      BNE      0x5122 ; TIMER_GetModuleClock + 34
        0x00005116:    200c        .       MOVS     r0,#0xc
        0x00005118:    e004        ..      B        0x5124 ; TIMER_GetModuleClock + 36
        0x0000511a:    2010        .       MOVS     r0,#0x10
        0x0000511c:    e002        ..      B        0x5124 ; TIMER_GetModuleClock + 36
        0x0000511e:    2008        .       MOVS     r0,#8
        0x00005120:    e000        ..      B        0x5124 ; TIMER_GetModuleClock + 36
        0x00005122:    2014        .       MOVS     r0,#0x14
        0x00005124:    40c1        .@      LSRS     r1,r1,r0
        0x00005126:    2007        .       MOVS     r0,#7
        0x00005128:    4008        .@      ANDS     r0,r0,r1
        0x0000512a:    2802        .(      CMP      r0,#2
        0x0000512c:    d003        ..      BEQ      0x5136 ; TIMER_GetModuleClock + 54
        0x0000512e:    0080        ..      LSLS     r0,r0,#2
        0x00005130:    a106        ..      ADR      r1,{pc}+0x1c ; 0x514c
        0x00005132:    1808        ..      ADDS     r0,r1,r0
        0x00005134:    e000        ..      B        0x5138 ; TIMER_GetModuleClock + 56
        0x00005136:    480d        .H      LDR      r0,[pc,#52] ; [0x516c] = 0x2000000c
        0x00005138:    6800        .h      LDR      r0,[r0,#0]
        0x0000513a:    4770        pG      BX       lr
    $d.2
    __arm_cp.1_0
        0x0000513c:    50000214    ...P    DCD    1342177812
    __arm_cp.1_1
        0x00005140:    40010000    ...@    DCD    1073807360
    __arm_cp.1_2
        0x00005144:    40110000    ...@    DCD    1074855936
    __arm_cp.1_3
        0x00005148:    40010020     ..@    DCD    1073807392
        0x0000514c:    00b71b00    ....    DCD    12000000
        0x00005150:    00008000    ....    DCD    32768
        0x00005154:    00000000    ....    DCD    0
        0x00005158:    00000000    ....    DCD    0
        0x0000515c:    00000000    ....    DCD    0
        0x00005160:    00002710    .'..    DCD    10000
        0x00005164:    00000000    ....    DCD    0
        0x00005168:    01518000    ..Q.    DCD    22118400
    __arm_cp.1_5
        0x0000516c:    2000000c    ...     DCD    536870924
    $t.0
    TIMER_Open
        0x00005170:    b5f8        ..      PUSH     {r3-r7,lr}
        0x00005172:    4617        .F      MOV      r7,r2
        0x00005174:    460e        .F      MOV      r6,r1
        0x00005176:    4605        .F      MOV      r5,r0
        0x00005178:    f7ffffc2    ....    BL       TIMER_GetModuleClock ; 0x5100
        0x0000517c:    4602        .F      MOV      r2,r0
        0x0000517e:    0840        @.      LSRS     r0,r0,#1
        0x00005180:    2400        .$      MOVS     r4,#0
        0x00005182:    4287        .B      CMP      r7,r0
        0x00005184:    d901        ..      BLS      0x518a ; TIMER_Open + 26
        0x00005186:    2002        .       MOVS     r0,#2
        0x00005188:    e00b        ..      B        0x51a2 ; TIMER_Open + 50
        0x0000518a:    9200        ..      STR      r2,[sp,#0]
        0x0000518c:    4610        .F      MOV      r0,r2
        0x0000518e:    4639        9F      MOV      r1,r7
        0x00005190:    f7fbfa04    ....    BL       __aeabi_uidiv ; 0x59c
        0x00005194:    0e07        ..      LSRS     r7,r0,#24
        0x00005196:    d003        ..      BEQ      0x51a0 ; TIMER_Open + 48
        0x00005198:    1c79        y.      ADDS     r1,r7,#1
        0x0000519a:    f7fbf9ff    ....    BL       __aeabi_uidiv ; 0x59c
        0x0000519e:    463c        <F      MOV      r4,r7
        0x000051a0:    9a00        ..      LDR      r2,[sp,#0]
        0x000051a2:    4326        &C      ORRS     r6,r6,r4
        0x000051a4:    602e        .`      STR      r6,[r5,#0]
        0x000051a6:    6068        h`      STR      r0,[r5,#4]
        0x000051a8:    1c61        a.      ADDS     r1,r4,#1
        0x000051aa:    4341        AC      MULS     r1,r0,r1
        0x000051ac:    4610        .F      MOV      r0,r2
        0x000051ae:    f7fbf9f5    ....    BL       __aeabi_uidiv ; 0x59c
        0x000051b2:    bdf8        ..      POP      {r3-r7,pc}
    TMR0_IRQHandler
        0x000051b4:    4805        .H      LDR      r0,[pc,#20] ; [0x51cc] = 0x40010008
        0x000051b6:    6801        .h      LDR      r1,[r0,#0]
        0x000051b8:    07c9        ..      LSLS     r1,r1,#31
        0x000051ba:    d005        ..      BEQ      0x51c8 ; TMR0_IRQHandler + 20
        0x000051bc:    2101        .!      MOVS     r1,#1
        0x000051be:    6001        .`      STR      r1,[r0,#0]
        0x000051c0:    48bf        .H      LDR      r0,[pc,#764] ; [0x54c0] = 0x20002d9c
        0x000051c2:    8801        ..      LDRH     r1,[r0,#0]
        0x000051c4:    1c49        I.      ADDS     r1,r1,#1
        0x000051c6:    8001        ..      STRH     r1,[r0,#0]
        0x000051c8:    4770        pG      BX       lr
        0x000051ca:    46c0        .F      MOV      r8,r8
    $d.1
    __arm_cp.0_0
        0x000051cc:    40010008    ...@    DCD    1073807368
    $t.36
    TMR1_IRQHandler
        0x000051d0:    b5b0        ..      PUSH     {r4,r5,r7,lr}
        0x000051d2:    4886        .H      LDR      r0,[pc,#536] ; [0x53ec] = 0x40010028
        0x000051d4:    6801        .h      LDR      r1,[r0,#0]
        0x000051d6:    07c9        ..      LSLS     r1,r1,#31
        0x000051d8:    d100        ..      BNE      0x51dc ; TMR1_IRQHandler + 12
        0x000051da:    e0f8        ..      B        0x53ce ; TMR1_IRQHandler + 510
        0x000051dc:    2101        .!      MOVS     r1,#1
        0x000051de:    6001        .`      STR      r1,[r0,#0]
        0x000051e0:    4883        .H      LDR      r0,[pc,#524] ; [0x53f0] = 0x2000036c
        0x000051e2:    7803        .x      LDRB     r3,[r0,#0]
        0x000051e4:    4a83        .J      LDR      r2,[pc,#524] ; [0x53f4] = 0x50004218
        0x000051e6:    2b01        .+      CMP      r3,#1
        0x000051e8:    d11c        ..      BNE      0x5224 ; TMR1_IRQHandler + 84
        0x000051ea:    6813        .h      LDR      r3,[r2,#0]
        0x000051ec:    2b01        .+      CMP      r3,#1
        0x000051ee:    d10a        ..      BNE      0x5206 ; TMR1_IRQHandler + 54
        0x000051f0:    6883        .h      LDR      r3,[r0,#8]
        0x000051f2:    1c5b        [.      ADDS     r3,r3,#1
        0x000051f4:    6083        .`      STR      r3,[r0,#8]
        0x000051f6:    4c80        .L      LDR      r4,[pc,#512] ; [0x53f8] = 0x20000408
        0x000051f8:    69e4        .i      LDR      r4,[r4,#0x1c]
        0x000051fa:    42a3        .B      CMP      r3,r4
        0x000051fc:    d303        ..      BCC      0x5206 ; TMR1_IRQHandler + 54
        0x000051fe:    2300        .#      MOVS     r3,#0
        0x00005200:    6083        .`      STR      r3,[r0,#8]
        0x00005202:    4b7e        ~K      LDR      r3,[pc,#504] ; [0x53fc] = 0x20000004
        0x00005204:    7019        .p      STRB     r1,[r3,#0]
        0x00005206:    6813        .h      LDR      r3,[r2,#0]
        0x00005208:    2b00        .+      CMP      r3,#0
        0x0000520a:    d10b        ..      BNE      0x5224 ; TMR1_IRQHandler + 84
        0x0000520c:    68c3        .h      LDR      r3,[r0,#0xc]
        0x0000520e:    1c5b        [.      ADDS     r3,r3,#1
        0x00005210:    60c3        .`      STR      r3,[r0,#0xc]
        0x00005212:    4c79        yL      LDR      r4,[pc,#484] ; [0x53f8] = 0x20000408
        0x00005214:    69e4        .i      LDR      r4,[r4,#0x1c]
        0x00005216:    42a3        .B      CMP      r3,r4
        0x00005218:    d304        ..      BCC      0x5224 ; TMR1_IRQHandler + 84
        0x0000521a:    2300        .#      MOVS     r3,#0
        0x0000521c:    60c3        .`      STR      r3,[r0,#0xc]
        0x0000521e:    4b77        wK      LDR      r3,[pc,#476] ; [0x53fc] = 0x20000004
        0x00005220:    2402        .$      MOVS     r4,#2
        0x00005222:    701c        .p      STRB     r4,[r3,#0]
        0x00005224:    7844        Dx      LDRB     r4,[r0,#1]
        0x00005226:    4b76        vK      LDR      r3,[pc,#472] ; [0x5400] = 0x50004298
        0x00005228:    2c01        .,      CMP      r4,#1
        0x0000522a:    d11c        ..      BNE      0x5266 ; TMR1_IRQHandler + 150
        0x0000522c:    685c        \h      LDR      r4,[r3,#4]
        0x0000522e:    2c01        .,      CMP      r4,#1
        0x00005230:    d10a        ..      BNE      0x5248 ; TMR1_IRQHandler + 120
        0x00005232:    6904        .i      LDR      r4,[r0,#0x10]
        0x00005234:    1c64        d.      ADDS     r4,r4,#1
        0x00005236:    6104        .a      STR      r4,[r0,#0x10]
        0x00005238:    4d6f        oM      LDR      r5,[pc,#444] ; [0x53f8] = 0x20000408
        0x0000523a:    69ed        .i      LDR      r5,[r5,#0x1c]
        0x0000523c:    42ac        .B      CMP      r4,r5
        0x0000523e:    d303        ..      BCC      0x5248 ; TMR1_IRQHandler + 120
        0x00005240:    2400        .$      MOVS     r4,#0
        0x00005242:    6104        .a      STR      r4,[r0,#0x10]
        0x00005244:    4c6d        mL      LDR      r4,[pc,#436] ; [0x53fc] = 0x20000004
        0x00005246:    7061        ap      STRB     r1,[r4,#1]
        0x00005248:    685c        \h      LDR      r4,[r3,#4]
        0x0000524a:    2c00        .,      CMP      r4,#0
        0x0000524c:    d10b        ..      BNE      0x5266 ; TMR1_IRQHandler + 150
        0x0000524e:    6944        Di      LDR      r4,[r0,#0x14]
        0x00005250:    1c64        d.      ADDS     r4,r4,#1
        0x00005252:    6144        Da      STR      r4,[r0,#0x14]
        0x00005254:    4d68        hM      LDR      r5,[pc,#416] ; [0x53f8] = 0x20000408
        0x00005256:    69ed        .i      LDR      r5,[r5,#0x1c]
        0x00005258:    42ac        .B      CMP      r4,r5
        0x0000525a:    d304        ..      BCC      0x5266 ; TMR1_IRQHandler + 150
        0x0000525c:    2400        .$      MOVS     r4,#0
        0x0000525e:    6144        Da      STR      r4,[r0,#0x14]
        0x00005260:    4c66        fL      LDR      r4,[pc,#408] ; [0x53fc] = 0x20000004
        0x00005262:    2502        .%      MOVS     r5,#2
        0x00005264:    7065        ep      STRB     r5,[r4,#1]
        0x00005266:    7884        .x      LDRB     r4,[r0,#2]
        0x00005268:    2c01        .,      CMP      r4,#1
        0x0000526a:    d11c        ..      BNE      0x52a6 ; TMR1_IRQHandler + 214
        0x0000526c:    681c        .h      LDR      r4,[r3,#0]
        0x0000526e:    2c01        .,      CMP      r4,#1
        0x00005270:    d10a        ..      BNE      0x5288 ; TMR1_IRQHandler + 184
        0x00005272:    6984        .i      LDR      r4,[r0,#0x18]
        0x00005274:    1c64        d.      ADDS     r4,r4,#1
        0x00005276:    6184        .a      STR      r4,[r0,#0x18]
        0x00005278:    4d5f        _M      LDR      r5,[pc,#380] ; [0x53f8] = 0x20000408
        0x0000527a:    69ed        .i      LDR      r5,[r5,#0x1c]
        0x0000527c:    42ac        .B      CMP      r4,r5
        0x0000527e:    d303        ..      BCC      0x5288 ; TMR1_IRQHandler + 184
        0x00005280:    2400        .$      MOVS     r4,#0
        0x00005282:    6184        .a      STR      r4,[r0,#0x18]
        0x00005284:    4c5d        ]L      LDR      r4,[pc,#372] ; [0x53fc] = 0x20000004
        0x00005286:    70a1        .p      STRB     r1,[r4,#2]
        0x00005288:    681b        .h      LDR      r3,[r3,#0]
        0x0000528a:    2b00        .+      CMP      r3,#0
        0x0000528c:    d10b        ..      BNE      0x52a6 ; TMR1_IRQHandler + 214
        0x0000528e:    69c3        .i      LDR      r3,[r0,#0x1c]
        0x00005290:    1c5b        [.      ADDS     r3,r3,#1
        0x00005292:    61c3        .a      STR      r3,[r0,#0x1c]
        0x00005294:    4c58        XL      LDR      r4,[pc,#352] ; [0x53f8] = 0x20000408
        0x00005296:    69e4        .i      LDR      r4,[r4,#0x1c]
        0x00005298:    42a3        .B      CMP      r3,r4
        0x0000529a:    d304        ..      BCC      0x52a6 ; TMR1_IRQHandler + 214
        0x0000529c:    2300        .#      MOVS     r3,#0
        0x0000529e:    61c3        .a      STR      r3,[r0,#0x1c]
        0x000052a0:    4b56        VK      LDR      r3,[pc,#344] ; [0x53fc] = 0x20000004
        0x000052a2:    2402        .$      MOVS     r4,#2
        0x000052a4:    709c        .p      STRB     r4,[r3,#2]
        0x000052a6:    78c3        .x      LDRB     r3,[r0,#3]
        0x000052a8:    2b01        .+      CMP      r3,#1
        0x000052aa:    d11c        ..      BNE      0x52e6 ; TMR1_IRQHandler + 278
        0x000052ac:    6e53        Sn      LDR      r3,[r2,#0x64]
        0x000052ae:    2b01        .+      CMP      r3,#1
        0x000052b0:    d10a        ..      BNE      0x52c8 ; TMR1_IRQHandler + 248
        0x000052b2:    6a03        .j      LDR      r3,[r0,#0x20]
        0x000052b4:    1c5b        [.      ADDS     r3,r3,#1
        0x000052b6:    6203        .b      STR      r3,[r0,#0x20]
        0x000052b8:    4c4f        OL      LDR      r4,[pc,#316] ; [0x53f8] = 0x20000408
        0x000052ba:    69e4        .i      LDR      r4,[r4,#0x1c]
        0x000052bc:    42a3        .B      CMP      r3,r4
        0x000052be:    d303        ..      BCC      0x52c8 ; TMR1_IRQHandler + 248
        0x000052c0:    2300        .#      MOVS     r3,#0
        0x000052c2:    6203        .b      STR      r3,[r0,#0x20]
        0x000052c4:    4b4d        MK      LDR      r3,[pc,#308] ; [0x53fc] = 0x20000004
        0x000052c6:    70d9        .p      STRB     r1,[r3,#3]
        0x000052c8:    6e53        Sn      LDR      r3,[r2,#0x64]
        0x000052ca:    2b00        .+      CMP      r3,#0
        0x000052cc:    d10b        ..      BNE      0x52e6 ; TMR1_IRQHandler + 278
        0x000052ce:    6a43        Cj      LDR      r3,[r0,#0x24]
        0x000052d0:    1c5b        [.      ADDS     r3,r3,#1
        0x000052d2:    6243        Cb      STR      r3,[r0,#0x24]
        0x000052d4:    4c48        HL      LDR      r4,[pc,#288] ; [0x53f8] = 0x20000408
        0x000052d6:    69e4        .i      LDR      r4,[r4,#0x1c]
        0x000052d8:    42a3        .B      CMP      r3,r4
        0x000052da:    d304        ..      BCC      0x52e6 ; TMR1_IRQHandler + 278
        0x000052dc:    2300        .#      MOVS     r3,#0
        0x000052de:    6243        Cb      STR      r3,[r0,#0x24]
        0x000052e0:    4b46        FK      LDR      r3,[pc,#280] ; [0x53fc] = 0x20000004
        0x000052e2:    2402        .$      MOVS     r4,#2
        0x000052e4:    70dc        .p      STRB     r4,[r3,#3]
        0x000052e6:    7903        .y      LDRB     r3,[r0,#4]
        0x000052e8:    2b01        .+      CMP      r3,#1
        0x000052ea:    d11c        ..      BNE      0x5326 ; TMR1_IRQHandler + 342
        0x000052ec:    6c93        .l      LDR      r3,[r2,#0x48]
        0x000052ee:    2b01        .+      CMP      r3,#1
        0x000052f0:    d10a        ..      BNE      0x5308 ; TMR1_IRQHandler + 312
        0x000052f2:    6a83        .j      LDR      r3,[r0,#0x28]
        0x000052f4:    1c5b        [.      ADDS     r3,r3,#1
        0x000052f6:    6283        .b      STR      r3,[r0,#0x28]
        0x000052f8:    4c3f        ?L      LDR      r4,[pc,#252] ; [0x53f8] = 0x20000408
        0x000052fa:    69e4        .i      LDR      r4,[r4,#0x1c]
        0x000052fc:    42a3        .B      CMP      r3,r4
        0x000052fe:    d303        ..      BCC      0x5308 ; TMR1_IRQHandler + 312
        0x00005300:    2300        .#      MOVS     r3,#0
        0x00005302:    6283        .b      STR      r3,[r0,#0x28]
        0x00005304:    4b3d        =K      LDR      r3,[pc,#244] ; [0x53fc] = 0x20000004
        0x00005306:    7119        .q      STRB     r1,[r3,#4]
        0x00005308:    6c93        .l      LDR      r3,[r2,#0x48]
        0x0000530a:    2b00        .+      CMP      r3,#0
        0x0000530c:    d10b        ..      BNE      0x5326 ; TMR1_IRQHandler + 342
        0x0000530e:    6ac3        .j      LDR      r3,[r0,#0x2c]
        0x00005310:    1c5b        [.      ADDS     r3,r3,#1
        0x00005312:    62c3        .b      STR      r3,[r0,#0x2c]
        0x00005314:    4c38        8L      LDR      r4,[pc,#224] ; [0x53f8] = 0x20000408
        0x00005316:    69e4        .i      LDR      r4,[r4,#0x1c]
        0x00005318:    42a3        .B      CMP      r3,r4
        0x0000531a:    d304        ..      BCC      0x5326 ; TMR1_IRQHandler + 342
        0x0000531c:    2300        .#      MOVS     r3,#0
        0x0000531e:    62c3        .b      STR      r3,[r0,#0x2c]
        0x00005320:    4b36        6K      LDR      r3,[pc,#216] ; [0x53fc] = 0x20000004
        0x00005322:    2402        .$      MOVS     r4,#2
        0x00005324:    711c        .q      STRB     r4,[r3,#4]
        0x00005326:    7943        Cy      LDRB     r3,[r0,#5]
        0x00005328:    2b01        .+      CMP      r3,#1
        0x0000532a:    d11c        ..      BNE      0x5366 ; TMR1_IRQHandler + 406
        0x0000532c:    6953        Si      LDR      r3,[r2,#0x14]
        0x0000532e:    2b01        .+      CMP      r3,#1
        0x00005330:    d10a        ..      BNE      0x5348 ; TMR1_IRQHandler + 376
        0x00005332:    6b03        .k      LDR      r3,[r0,#0x30]
        0x00005334:    1c5b        [.      ADDS     r3,r3,#1
        0x00005336:    6303        .c      STR      r3,[r0,#0x30]
        0x00005338:    4c2f        /L      LDR      r4,[pc,#188] ; [0x53f8] = 0x20000408
        0x0000533a:    69e4        .i      LDR      r4,[r4,#0x1c]
        0x0000533c:    42a3        .B      CMP      r3,r4
        0x0000533e:    d303        ..      BCC      0x5348 ; TMR1_IRQHandler + 376
        0x00005340:    2300        .#      MOVS     r3,#0
        0x00005342:    6303        .c      STR      r3,[r0,#0x30]
        0x00005344:    4b2d        -K      LDR      r3,[pc,#180] ; [0x53fc] = 0x20000004
        0x00005346:    7159        Yq      STRB     r1,[r3,#5]
        0x00005348:    6953        Si      LDR      r3,[r2,#0x14]
        0x0000534a:    2b00        .+      CMP      r3,#0
        0x0000534c:    d10b        ..      BNE      0x5366 ; TMR1_IRQHandler + 406
        0x0000534e:    6b43        Ck      LDR      r3,[r0,#0x34]
        0x00005350:    1c5b        [.      ADDS     r3,r3,#1
        0x00005352:    6343        Cc      STR      r3,[r0,#0x34]
        0x00005354:    4c28        (L      LDR      r4,[pc,#160] ; [0x53f8] = 0x20000408
        0x00005356:    69e4        .i      LDR      r4,[r4,#0x1c]
        0x00005358:    42a3        .B      CMP      r3,r4
        0x0000535a:    d304        ..      BCC      0x5366 ; TMR1_IRQHandler + 406
        0x0000535c:    2300        .#      MOVS     r3,#0
        0x0000535e:    6343        Cc      STR      r3,[r0,#0x34]
        0x00005360:    4b26        &K      LDR      r3,[pc,#152] ; [0x53fc] = 0x20000004
        0x00005362:    2402        .$      MOVS     r4,#2
        0x00005364:    715c        \q      STRB     r4,[r3,#5]
        0x00005366:    7983        .y      LDRB     r3,[r0,#6]
        0x00005368:    2b01        .+      CMP      r3,#1
        0x0000536a:    d11c        ..      BNE      0x53a6 ; TMR1_IRQHandler + 470
        0x0000536c:    6913        .i      LDR      r3,[r2,#0x10]
        0x0000536e:    2b01        .+      CMP      r3,#1
        0x00005370:    d10a        ..      BNE      0x5388 ; TMR1_IRQHandler + 440
        0x00005372:    6b83        .k      LDR      r3,[r0,#0x38]
        0x00005374:    1c5b        [.      ADDS     r3,r3,#1
        0x00005376:    6383        .c      STR      r3,[r0,#0x38]
        0x00005378:    4c1f        .L      LDR      r4,[pc,#124] ; [0x53f8] = 0x20000408
        0x0000537a:    69e4        .i      LDR      r4,[r4,#0x1c]
        0x0000537c:    42a3        .B      CMP      r3,r4
        0x0000537e:    d303        ..      BCC      0x5388 ; TMR1_IRQHandler + 440
        0x00005380:    2300        .#      MOVS     r3,#0
        0x00005382:    6383        .c      STR      r3,[r0,#0x38]
        0x00005384:    4b1d        .K      LDR      r3,[pc,#116] ; [0x53fc] = 0x20000004
        0x00005386:    7199        .q      STRB     r1,[r3,#6]
        0x00005388:    6913        .i      LDR      r3,[r2,#0x10]
        0x0000538a:    2b00        .+      CMP      r3,#0
        0x0000538c:    d10b        ..      BNE      0x53a6 ; TMR1_IRQHandler + 470
        0x0000538e:    6bc3        .k      LDR      r3,[r0,#0x3c]
        0x00005390:    1c5b        [.      ADDS     r3,r3,#1
        0x00005392:    63c3        .c      STR      r3,[r0,#0x3c]
        0x00005394:    4c18        .L      LDR      r4,[pc,#96] ; [0x53f8] = 0x20000408
        0x00005396:    69e4        .i      LDR      r4,[r4,#0x1c]
        0x00005398:    42a3        .B      CMP      r3,r4
        0x0000539a:    d304        ..      BCC      0x53a6 ; TMR1_IRQHandler + 470
        0x0000539c:    2300        .#      MOVS     r3,#0
        0x0000539e:    63c3        .c      STR      r3,[r0,#0x3c]
        0x000053a0:    4b16        .K      LDR      r3,[pc,#88] ; [0x53fc] = 0x20000004
        0x000053a2:    2402        .$      MOVS     r4,#2
        0x000053a4:    719c        .q      STRB     r4,[r3,#6]
        0x000053a6:    79c3        .y      LDRB     r3,[r0,#7]
        0x000053a8:    2b01        .+      CMP      r3,#1
        0x000053aa:    d110        ..      BNE      0x53ce ; TMR1_IRQHandler + 510
        0x000053ac:    68d3        .h      LDR      r3,[r2,#0xc]
        0x000053ae:    2b01        .+      CMP      r3,#1
        0x000053b0:    d10a        ..      BNE      0x53c8 ; TMR1_IRQHandler + 504
        0x000053b2:    6c03        .l      LDR      r3,[r0,#0x40]
        0x000053b4:    1c5b        [.      ADDS     r3,r3,#1
        0x000053b6:    6403        .d      STR      r3,[r0,#0x40]
        0x000053b8:    4c0f        .L      LDR      r4,[pc,#60] ; [0x53f8] = 0x20000408
        0x000053ba:    69e4        .i      LDR      r4,[r4,#0x1c]
        0x000053bc:    42a3        .B      CMP      r3,r4
        0x000053be:    d303        ..      BCC      0x53c8 ; TMR1_IRQHandler + 504
        0x000053c0:    2300        .#      MOVS     r3,#0
        0x000053c2:    6403        .d      STR      r3,[r0,#0x40]
        0x000053c4:    4b0d        .K      LDR      r3,[pc,#52] ; [0x53fc] = 0x20000004
        0x000053c6:    71d9        .q      STRB     r1,[r3,#7]
        0x000053c8:    68d1        .h      LDR      r1,[r2,#0xc]
        0x000053ca:    2900        .)      CMP      r1,#0
        0x000053cc:    d000        ..      BEQ      0x53d0 ; TMR1_IRQHandler + 512
        0x000053ce:    bdb0        ..      POP      {r4,r5,r7,pc}
        0x000053d0:    6c41        Al      LDR      r1,[r0,#0x44]
        0x000053d2:    1c49        I.      ADDS     r1,r1,#1
        0x000053d4:    6441        Ad      STR      r1,[r0,#0x44]
        0x000053d6:    4a08        .J      LDR      r2,[pc,#32] ; [0x53f8] = 0x20000408
        0x000053d8:    69d2        .i      LDR      r2,[r2,#0x1c]
        0x000053da:    4291        .B      CMP      r1,r2
        0x000053dc:    d3f7        ..      BCC      0x53ce ; TMR1_IRQHandler + 510
        0x000053de:    2100        .!      MOVS     r1,#0
        0x000053e0:    6441        Ad      STR      r1,[r0,#0x44]
        0x000053e2:    4806        .H      LDR      r0,[pc,#24] ; [0x53fc] = 0x20000004
        0x000053e4:    2102        .!      MOVS     r1,#2
        0x000053e6:    71c1        .q      STRB     r1,[r0,#7]
        0x000053e8:    bdb0        ..      POP      {r4,r5,r7,pc}
        0x000053ea:    46c0        .F      MOV      r8,r8
    $d.37
    __arm_cp.18_0
        0x000053ec:    40010028    (..@    DCD    1073807400
    __arm_cp.18_1
        0x000053f0:    2000036c    l..     DCD    536871788
    __arm_cp.18_2
        0x000053f4:    50004218    .B.P    DCD    1342194200
    __arm_cp.18_3
        0x000053f8:    20000408    ...     DCD    536871944
    __arm_cp.18_4
        0x000053fc:    20000004    ...     DCD    536870916
    __arm_cp.18_5
        0x00005400:    50004298    .B.P    DCD    1342194328
    $t.2
    TMR2_IRQHandler
        0x00005404:    b5b0        ..      PUSH     {r4,r5,r7,lr}
        0x00005406:    243b        ;$      MOVS     r4,#0x3b
        0x00005408:    4d97        .M      LDR      r5,[pc,#604] ; [0x5668] = 0x2000073c
        0x0000540a:    5d28        (]      LDRB     r0,[r5,r4]
        0x0000540c:    2800        .(      CMP      r0,#0
        0x0000540e:    d108        ..      BNE      0x5422 ; TMR2_IRQHandler + 30
        0x00005410:    480a        .H      LDR      r0,[pc,#40] ; [0x543c] = 0x40110008
        0x00005412:    6801        .h      LDR      r1,[r0,#0]
        0x00005414:    2201        ."      MOVS     r2,#1
        0x00005416:    430a        .C      ORRS     r2,r2,r1
        0x00005418:    6002        .`      STR      r2,[r0,#0]
        0x0000541a:    4809        .H      LDR      r0,[pc,#36] ; [0x5440] = 0x20000360
        0x0000541c:    6800        .h      LDR      r0,[r0,#0]
        0x0000541e:    4780        .G      BLX      r0
        0x00005420:    5d28        (]      LDRB     r0,[r5,r4]
        0x00005422:    2801        .(      CMP      r0,#1
        0x00005424:    d109        ..      BNE      0x543a ; TMR2_IRQHandler + 54
        0x00005426:    4805        .H      LDR      r0,[pc,#20] ; [0x543c] = 0x40110008
        0x00005428:    6801        .h      LDR      r1,[r0,#0]
        0x0000542a:    07c9        ..      LSLS     r1,r1,#31
        0x0000542c:    d005        ..      BEQ      0x543a ; TMR2_IRQHandler + 54
        0x0000542e:    2101        .!      MOVS     r1,#1
        0x00005430:    6001        .`      STR      r1,[r0,#0]
        0x00005432:    480d        .H      LDR      r0,[pc,#52] ; [0x5468] = 0x20002da0
        0x00005434:    8801        ..      LDRH     r1,[r0,#0]
        0x00005436:    1c49        I.      ADDS     r1,r1,#1
        0x00005438:    8001        ..      STRH     r1,[r0,#0]
        0x0000543a:    bdb0        ..      POP      {r4,r5,r7,pc}
    $d.3
    __arm_cp.1_1
        0x0000543c:    40110008    ...@    DCD    1074855944
    __arm_cp.1_2
        0x00005440:    20000360    `..     DCD    536871776
    $t.4
    TMR3_IRQHandler
        0x00005444:    4805        .H      LDR      r0,[pc,#20] ; [0x545c] = 0x40110028
        0x00005446:    6801        .h      LDR      r1,[r0,#0]
        0x00005448:    07c9        ..      LSLS     r1,r1,#31
        0x0000544a:    d005        ..      BEQ      0x5458 ; TMR3_IRQHandler + 20
        0x0000544c:    2101        .!      MOVS     r1,#1
        0x0000544e:    6001        .`      STR      r1,[r0,#0]
        0x00005450:    4812        .H      LDR      r0,[pc,#72] ; [0x549c] = 0x20002da2
        0x00005452:    8801        ..      LDRH     r1,[r0,#0]
        0x00005454:    1c49        I.      ADDS     r1,r1,#1
        0x00005456:    8001        ..      STRH     r1,[r0,#0]
        0x00005458:    4770        pG      BX       lr
        0x0000545a:    46c0        .F      MOV      r8,r8
    $d.5
    __arm_cp.2_0
        0x0000545c:    40110028    (..@    DCD    1074855976
    $t.20
    Timer2_GetTickMs
        0x00005460:    4801        .H      LDR      r0,[pc,#4] ; [0x5468] = 0x20002da0
        0x00005462:    8800        ..      LDRH     r0,[r0,#0]
        0x00005464:    4770        pG      BX       lr
        0x00005466:    46c0        .F      MOV      r8,r8
    $d.21
    __arm_cp.10_0
        0x00005468:    20002da0    .-.     DCD    536882592
    $t.26
    Timer3_GetTickMs
        0x0000546c:    480b        .H      LDR      r0,[pc,#44] ; [0x549c] = 0x20002da2
        0x0000546e:    8800        ..      LDRH     r0,[r0,#0]
        0x00005470:    4770        pG      BX       lr
        0x00005472:    46c0        .F      MOV      r8,r8
    Timer3_ResetTickMs
        0x00005474:    4809        .H      LDR      r0,[pc,#36] ; [0x549c] = 0x20002da2
        0x00005476:    2100        .!      MOVS     r1,#0
        0x00005478:    8001        ..      STRH     r1,[r0,#0]
        0x0000547a:    2001        .       MOVS     r0,#1
        0x0000547c:    0780        ..      LSLS     r0,r0,#30
        0x0000547e:    4908        .I      LDR      r1,[pc,#32] ; [0x54a0] = 0x40110020
        0x00005480:    680a        .h      LDR      r2,[r1,#0]
        0x00005482:    4382        .C      BICS     r2,r2,r0
        0x00005484:    600a        .`      STR      r2,[r1,#0]
        0x00005486:    4770        pG      BX       lr
    Timer3_SetTickMs
        0x00005488:    4804        .H      LDR      r0,[pc,#16] ; [0x549c] = 0x20002da2
        0x0000548a:    2100        .!      MOVS     r1,#0
        0x0000548c:    8001        ..      STRH     r1,[r0,#0]
        0x0000548e:    2001        .       MOVS     r0,#1
        0x00005490:    0780        ..      LSLS     r0,r0,#30
        0x00005492:    4903        .I      LDR      r1,[pc,#12] ; [0x54a0] = 0x40110020
        0x00005494:    680a        .h      LDR      r2,[r1,#0]
        0x00005496:    4302        .C      ORRS     r2,r2,r0
        0x00005498:    600a        .`      STR      r2,[r1,#0]
        0x0000549a:    4770        pG      BX       lr
    $d.25
    __arm_cp.12_0
        0x0000549c:    20002da2    .-.     DCD    536882594
    __arm_cp.12_1
        0x000054a0:    40110020     ..@    DCD    1074855968
    $t.10
    Timer_GetTickMs
        0x000054a4:    4806        .H      LDR      r0,[pc,#24] ; [0x54c0] = 0x20002d9c
        0x000054a6:    8800        ..      LDRH     r0,[r0,#0]
        0x000054a8:    4770        pG      BX       lr
        0x000054aa:    46c0        .F      MOV      r8,r8
    Timer_ResetTickMs
        0x000054ac:    4804        .H      LDR      r0,[pc,#16] ; [0x54c0] = 0x20002d9c
        0x000054ae:    2100        .!      MOVS     r1,#0
        0x000054b0:    8001        ..      STRH     r1,[r0,#0]
        0x000054b2:    2001        .       MOVS     r0,#1
        0x000054b4:    0780        ..      LSLS     r0,r0,#30
        0x000054b6:    4903        .I      LDR      r1,[pc,#12] ; [0x54c4] = 0x40010000
        0x000054b8:    680a        .h      LDR      r2,[r1,#0]
        0x000054ba:    4382        .C      BICS     r2,r2,r0
        0x000054bc:    600a        .`      STR      r2,[r1,#0]
        0x000054be:    4770        pG      BX       lr
    $d.13
    __arm_cp.6_0
        0x000054c0:    20002d9c    .-.     DCD    536882588
    __arm_cp.6_1
        0x000054c4:    40010000    ...@    DCD    1073807360
    $t.3
    TransformFunction
        0x000054c8:    b5f0        ..      PUSH     {r4-r7,lr}
        0x000054ca:    b0d0        ..      SUB      sp,sp,#0x140
        0x000054cc:    3008        .0      ADDS     r0,r0,#8
        0x000054ce:    2400        .$      MOVS     r4,#0
        0x000054d0:    2c20         ,      CMP      r4,#0x20
        0x000054d2:    d004        ..      BEQ      0x54de ; TransformFunction + 22
        0x000054d4:    5902        .Y      LDR      r2,[r0,r4]
        0x000054d6:    ab48        H.      ADD      r3,sp,#0x120
        0x000054d8:    511a        .Q      STR      r2,[r3,r4]
        0x000054da:    1d24        $.      ADDS     r4,r4,#4
        0x000054dc:    e7f8        ..      B        0x54d0 ; TransformFunction + 8
        0x000054de:    9000        ..      STR      r0,[sp,#0]
        0x000054e0:    2000        .       MOVS     r0,#0
        0x000054e2:    2840        @(      CMP      r0,#0x40
        0x000054e4:    d00e        ..      BEQ      0x5504 ; TransformFunction + 60
        0x000054e6:    5c0a        .\      LDRB     r2,[r1,r0]
        0x000054e8:    0612        ..      LSLS     r2,r2,#24
        0x000054ea:    180b        ..      ADDS     r3,r1,r0
        0x000054ec:    785c        \x      LDRB     r4,[r3,#1]
        0x000054ee:    0424        $.      LSLS     r4,r4,#16
        0x000054f0:    18a2        ..      ADDS     r2,r4,r2
        0x000054f2:    789c        .x      LDRB     r4,[r3,#2]
        0x000054f4:    0224        $.      LSLS     r4,r4,#8
        0x000054f6:    1912        ..      ADDS     r2,r2,r4
        0x000054f8:    78db        .x      LDRB     r3,[r3,#3]
        0x000054fa:    18d2        ..      ADDS     r2,r2,r3
        0x000054fc:    ab08        ..      ADD      r3,sp,#0x20
        0x000054fe:    501a        .P      STR      r2,[r3,r0]
        0x00005500:    1d00        ..      ADDS     r0,r0,#4
        0x00005502:    e7ee        ..      B        0x54e2 ; TransformFunction + 26
        0x00005504:    2000        .       MOVS     r0,#0
        0x00005506:    28c0        .(      CMP      r0,#0xc0
        0x00005508:    d01b        ..      BEQ      0x5542 ; TransformFunction + 122
        0x0000550a:    aa08        ..      ADD      r2,sp,#0x20
        0x0000550c:    1811        ..      ADDS     r1,r2,r0
        0x0000550e:    684b        Kh      LDR      r3,[r1,#4]
        0x00005510:    2412        .$      MOVS     r4,#0x12
        0x00005512:    461d        .F      MOV      r5,r3
        0x00005514:    41e5        .A      RORS     r5,r5,r4
        0x00005516:    2407        .$      MOVS     r4,#7
        0x00005518:    08de        ..      LSRS     r6,r3,#3
        0x0000551a:    41e3        .A      RORS     r3,r3,r4
        0x0000551c:    406b        k@      EORS     r3,r3,r5
        0x0000551e:    4073        s@      EORS     r3,r3,r6
        0x00005520:    6b8c        .k      LDR      r4,[r1,#0x38]
        0x00005522:    2513        .%      MOVS     r5,#0x13
        0x00005524:    4626        &F      MOV      r6,r4
        0x00005526:    41ee        .A      RORS     r6,r6,r5
        0x00005528:    2511        .%      MOVS     r5,#0x11
        0x0000552a:    0aa7        ..      LSRS     r7,r4,#10
        0x0000552c:    41ec        .A      RORS     r4,r4,r5
        0x0000552e:    4074        t@      EORS     r4,r4,r6
        0x00005530:    407c        |@      EORS     r4,r4,r7
        0x00005532:    6a4d        Mj      LDR      r5,[r1,#0x24]
        0x00005534:    1964        d.      ADDS     r4,r4,r5
        0x00005536:    5812        .X      LDR      r2,[r2,r0]
        0x00005538:    18a2        ..      ADDS     r2,r4,r2
        0x0000553a:    18d2        ..      ADDS     r2,r2,r3
        0x0000553c:    640a        .d      STR      r2,[r1,#0x40]
        0x0000553e:    1d00        ..      ADDS     r0,r0,#4
        0x00005540:    e7e1        ..      B        0x5506 ; TransformFunction + 62
        0x00005542:    2040        @       MOVS     r0,#0x40
        0x00005544:    9006        ..      STR      r0,[sp,#0x18]
        0x00005546:    2000        .       MOVS     r0,#0
        0x00005548:    9003        ..      STR      r0,[sp,#0xc]
        0x0000554a:    9d4b        K.      LDR      r5,[sp,#0x12c]
        0x0000554c:    9c4a        J.      LDR      r4,[sp,#0x128]
        0x0000554e:    9e49        I.      LDR      r6,[sp,#0x124]
        0x00005550:    9f48        H.      LDR      r7,[sp,#0x120]
        0x00005552:    9b4d        M.      LDR      r3,[sp,#0x134]
        0x00005554:    984e        N.      LDR      r0,[sp,#0x138]
        0x00005556:    9007        ..      STR      r0,[sp,#0x1c]
        0x00005558:    9a4c        L.      LDR      r2,[sp,#0x130]
        0x0000555a:    984f        O.      LDR      r0,[sp,#0x13c]
        0x0000555c:    9004        ..      STR      r0,[sp,#0x10]
        0x0000555e:    9907        ..      LDR      r1,[sp,#0x1c]
        0x00005560:    9307        ..      STR      r3,[sp,#0x1c]
        0x00005562:    9806        ..      LDR      r0,[sp,#0x18]
        0x00005564:    2800        .(      CMP      r0,#0
        0x00005566:    d041        A.      BEQ      0x55ec ; TransformFunction + 292
        0x00005568:    230d        .#      MOVS     r3,#0xd
        0x0000556a:    9105        ..      STR      r1,[sp,#0x14]
        0x0000556c:    4611        .F      MOV      r1,r2
        0x0000556e:    463a        :F      MOV      r2,r7
        0x00005570:    41da        .A      RORS     r2,r2,r3
        0x00005572:    2302        .#      MOVS     r3,#2
        0x00005574:    9402        ..      STR      r4,[sp,#8]
        0x00005576:    463c        <F      MOV      r4,r7
        0x00005578:    41dc        .A      RORS     r4,r4,r3
        0x0000557a:    4054        T@      EORS     r4,r4,r2
        0x0000557c:    2216        ."      MOVS     r2,#0x16
        0x0000557e:    463b        ;F      MOV      r3,r7
        0x00005580:    41d3        .A      RORS     r3,r3,r2
        0x00005582:    4063        c@      EORS     r3,r3,r4
        0x00005584:    220b        ."      MOVS     r2,#0xb
        0x00005586:    460c        .F      MOV      r4,r1
        0x00005588:    41d4        .A      RORS     r4,r4,r2
        0x0000558a:    2206        ."      MOVS     r2,#6
        0x0000558c:    4630        0F      MOV      r0,r6
        0x0000558e:    460e        .F      MOV      r6,r1
        0x00005590:    41d6        .A      RORS     r6,r6,r2
        0x00005592:    4066        f@      EORS     r6,r6,r4
        0x00005594:    2219        ."      MOVS     r2,#0x19
        0x00005596:    460c        .F      MOV      r4,r1
        0x00005598:    41d4        .A      RORS     r4,r4,r2
        0x0000559a:    4074        t@      EORS     r4,r4,r6
        0x0000559c:    9a04        ..      LDR      r2,[sp,#0x10]
        0x0000559e:    18a2        ..      ADDS     r2,r4,r2
        0x000055a0:    9504        ..      STR      r5,[sp,#0x10]
        0x000055a2:    9d03        ..      LDR      r5,[sp,#0xc]
        0x000055a4:    4c1d        .L      LDR      r4,[pc,#116] ; [0x561c] = 0x73c0
        0x000055a6:    5964        dY      LDR      r4,[r4,r5]
        0x000055a8:    1912        ..      ADDS     r2,r2,r4
        0x000055aa:    ac08        ..      ADD      r4,sp,#0x20
        0x000055ac:    5964        dY      LDR      r4,[r4,r5]
        0x000055ae:    1912        ..      ADDS     r2,r2,r4
        0x000055b0:    9c07        ..      LDR      r4,[sp,#0x1c]
        0x000055b2:    9e05        ..      LDR      r6,[sp,#0x14]
        0x000055b4:    4074        t@      EORS     r4,r4,r6
        0x000055b6:    400c        .@      ANDS     r4,r4,r1
        0x000055b8:    4074        t@      EORS     r4,r4,r6
        0x000055ba:    1912        ..      ADDS     r2,r2,r4
        0x000055bc:    18d3        ..      ADDS     r3,r2,r3
        0x000055be:    9001        ..      STR      r0,[sp,#4]
        0x000055c0:    4604        .F      MOV      r4,r0
        0x000055c2:    403c        <@      ANDS     r4,r4,r7
        0x000055c4:    4606        .F      MOV      r6,r0
        0x000055c6:    433e        >C      ORRS     r6,r6,r7
        0x000055c8:    9802        ..      LDR      r0,[sp,#8]
        0x000055ca:    4006        .@      ANDS     r6,r6,r0
        0x000055cc:    4326        &C      ORRS     r6,r6,r4
        0x000055ce:    199b        ..      ADDS     r3,r3,r6
        0x000055d0:    9c04        ..      LDR      r4,[sp,#0x10]
        0x000055d2:    18a2        ..      ADDS     r2,r4,r2
        0x000055d4:    1d2d        -.      ADDS     r5,r5,#4
        0x000055d6:    9503        ..      STR      r5,[sp,#0xc]
        0x000055d8:    9c06        ..      LDR      r4,[sp,#0x18]
        0x000055da:    1e64        d.      SUBS     r4,r4,#1
        0x000055dc:    9406        ..      STR      r4,[sp,#0x18]
        0x000055de:    4605        .F      MOV      r5,r0
        0x000055e0:    9c01        ..      LDR      r4,[sp,#4]
        0x000055e2:    463e        >F      MOV      r6,r7
        0x000055e4:    461f        .F      MOV      r7,r3
        0x000055e6:    460b        .F      MOV      r3,r1
        0x000055e8:    9805        ..      LDR      r0,[sp,#0x14]
        0x000055ea:    e7b7        ..      B        0x555c ; TransformFunction + 148
        0x000055ec:    914e        N.      STR      r1,[sp,#0x138]
        0x000055ee:    924c        L.      STR      r2,[sp,#0x130]
        0x000055f0:    9804        ..      LDR      r0,[sp,#0x10]
        0x000055f2:    904f        O.      STR      r0,[sp,#0x13c]
        0x000055f4:    9807        ..      LDR      r0,[sp,#0x1c]
        0x000055f6:    904d        M.      STR      r0,[sp,#0x134]
        0x000055f8:    954b        K.      STR      r5,[sp,#0x12c]
        0x000055fa:    944a        J.      STR      r4,[sp,#0x128]
        0x000055fc:    9649        I.      STR      r6,[sp,#0x124]
        0x000055fe:    9748        H.      STR      r7,[sp,#0x120]
        0x00005600:    2000        .       MOVS     r0,#0
        0x00005602:    9b00        ..      LDR      r3,[sp,#0]
        0x00005604:    2820         (      CMP      r0,#0x20
        0x00005606:    d006        ..      BEQ      0x5616 ; TransformFunction + 334
        0x00005608:    5819        .X      LDR      r1,[r3,r0]
        0x0000560a:    aa48        H.      ADD      r2,sp,#0x120
        0x0000560c:    5812        .X      LDR      r2,[r2,r0]
        0x0000560e:    1851        Q.      ADDS     r1,r2,r1
        0x00005610:    5019        .P      STR      r1,[r3,r0]
        0x00005612:    1d00        ..      ADDS     r0,r0,#4
        0x00005614:    e7f6        ..      B        0x5604 ; TransformFunction + 316
        0x00005616:    b050        P.      ADD      sp,sp,#0x140
        0x00005618:    bdf0        ..      POP      {r4-r7,pc}
        0x0000561a:    46c0        .F      MOV      r8,r8
    $d.4
    __arm_cp.2_0
        0x0000561c:    000073c0    .s..    DCD    29632
    $t.0
    UART1_IRQHandler
        0x00005620:    b570        p.      PUSH     {r4-r6,lr}
        0x00005622:    243b        ;$      MOVS     r4,#0x3b
        0x00005624:    4d10        .M      LDR      r5,[pc,#64] ; [0x5668] = 0x2000073c
        0x00005626:    5d28        (]      LDRB     r0,[r5,r4]
        0x00005628:    2800        .(      CMP      r0,#0
        0x0000562a:    d114        ..      BNE      0x5656 ; UART1_IRQHandler + 54
        0x0000562c:    4e0f        .N      LDR      r6,[pc,#60] ; [0x566c] = 0x4015001c
        0x0000562e:    6831        1h      LDR      r1,[r6,#0]
        0x00005630:    6830        0h      LDR      r0,[r6,#0]
        0x00005632:    05c9        ..      LSLS     r1,r1,#23
        0x00005634:    d409        ..      BMI      0x564a ; UART1_IRQHandler + 42
        0x00005636:    0580        ..      LSLS     r0,r0,#22
        0x00005638:    d50c        ..      BPL      0x5654 ; UART1_IRQHandler + 52
        0x0000563a:    480e        .H      LDR      r0,[pc,#56] ; [0x5674] = 0x2000035c
        0x0000563c:    6800        .h      LDR      r0,[r0,#0]
        0x0000563e:    4780        .G      BLX      r0
        0x00005640:    1f30        0.      SUBS     r0,r6,#4
        0x00005642:    6800        .h      LDR      r0,[r0,#0]
        0x00005644:    00c0        ..      LSLS     r0,r0,#3
        0x00005646:    d5fb        ..      BPL      0x5640 ; UART1_IRQHandler + 32
        0x00005648:    e004        ..      B        0x5654 ; UART1_IRQHandler + 52
        0x0000564a:    07c0        ..      LSLS     r0,r0,#31
        0x0000564c:    d002        ..      BEQ      0x5654 ; UART1_IRQHandler + 52
        0x0000564e:    4808        .H      LDR      r0,[pc,#32] ; [0x5670] = 0x20000358
        0x00005650:    6800        .h      LDR      r0,[r0,#0]
        0x00005652:    4780        .G      BLX      r0
        0x00005654:    5d28        (]      LDRB     r0,[r5,r4]
        0x00005656:    2801        .(      CMP      r0,#1
        0x00005658:    d105        ..      BNE      0x5666 ; UART1_IRQHandler + 70
        0x0000565a:    4804        .H      LDR      r0,[pc,#16] ; [0x566c] = 0x4015001c
        0x0000565c:    6800        .h      LDR      r0,[r0,#0]
        0x0000565e:    05c0        ..      LSLS     r0,r0,#23
        0x00005660:    d501        ..      BPL      0x5666 ; UART1_IRQHandler + 70
        0x00005662:    f7fcfe61    ..a.    BL       Modbus_Master_Rece_Handler ; 0x2328
        0x00005666:    bd70        p.      POP      {r4-r6,pc}
    $d.1
    __arm_cp.0_0
        0x00005668:    2000073c    <..     DCD    536872764
    __arm_cp.0_1
        0x0000566c:    4015001c    ...@    DCD    1075118108
    __arm_cp.0_2
        0x00005670:    20000358    X..     DCD    536871768
    __arm_cp.0_3
        0x00005674:    2000035c    \..     DCD    536871772
    $t.2
    UART_Close
        0x00005678:    2100        .!      MOVS     r1,#0
        0x0000567a:    6041        A`      STR      r1,[r0,#4]
        0x0000567c:    4770        pG      BX       lr
        0x0000567e:    0000        ..      MOVS     r0,r0
    UART_EnableInt
        0x00005680:    6842        Bh      LDR      r2,[r0,#4]
        0x00005682:    430a        .C      ORRS     r2,r2,r1
        0x00005684:    6042        B`      STR      r2,[r0,#4]
        0x00005686:    2101        .!      MOVS     r1,#1
        0x00005688:    4a04        .J      LDR      r2,[pc,#16] ; [0x569c] = 0x40150000
        0x0000568a:    4290        .B      CMP      r0,r2
        0x0000568c:    d001        ..      BEQ      0x5692 ; UART_EnableInt + 18
        0x0000568e:    0308        ..      LSLS     r0,r1,#12
        0x00005690:    e000        ..      B        0x5694 ; UART_EnableInt + 20
        0x00005692:    0348        H.      LSLS     r0,r1,#13
        0x00005694:    4902        .I      LDR      r1,[pc,#8] ; [0x56a0] = 0xe000e100
        0x00005696:    6008        .`      STR      r0,[r1,#0]
        0x00005698:    4770        pG      BX       lr
        0x0000569a:    46c0        .F      MOV      r8,r8
    $d.8
    __arm_cp.5_0
        0x0000569c:    40150000    ...@    DCD    1075118080
    __arm_cp.5_1
        0x000056a0:    e000e100    ....    DCD    3758153984
    $t.13
    UART_Read
        0x000056a4:    b5b0        ..      PUSH     {r4,r5,r7,lr}
        0x000056a6:    2300        .#      MOVS     r3,#0
        0x000056a8:    4293        .B      CMP      r3,r2
        0x000056aa:    d00c        ..      BEQ      0x56c6 ; UART_Read + 34
        0x000056ac:    2401        .$      MOVS     r4,#1
        0x000056ae:    07a4        ..      LSLS     r4,r4,#30
        0x000056b0:    6985        .i      LDR      r5,[r0,#0x18]
        0x000056b2:    046d        m.      LSLS     r5,r5,#17
        0x000056b4:    d502        ..      BPL      0x56bc ; UART_Read + 24
        0x000056b6:    1e64        d.      SUBS     r4,r4,#1
        0x000056b8:    d1fa        ..      BNE      0x56b0 ; UART_Read + 12
        0x000056ba:    e003        ..      B        0x56c4 ; UART_Read + 32
        0x000056bc:    6804        .h      LDR      r4,[r0,#0]
        0x000056be:    54cc        .T      STRB     r4,[r1,r3]
        0x000056c0:    1c5b        [.      ADDS     r3,r3,#1
        0x000056c2:    e7f1        ..      B        0x56a8 ; UART_Read + 4
        0x000056c4:    461a        .F      MOV      r2,r3
        0x000056c6:    4610        .F      MOV      r0,r2
        0x000056c8:    bdb0        ..      POP      {r4,r5,r7,pc}
    UART_Write
        0x000056ca:    b5b0        ..      PUSH     {r4,r5,r7,lr}
        0x000056cc:    2300        .#      MOVS     r3,#0
        0x000056ce:    4293        .B      CMP      r3,r2
        0x000056d0:    d00c        ..      BEQ      0x56ec ; UART_Write + 34
        0x000056d2:    2401        .$      MOVS     r4,#1
        0x000056d4:    07a4        ..      LSLS     r4,r4,#30
        0x000056d6:    6985        .i      LDR      r5,[r0,#0x18]
        0x000056d8:    022d        -.      LSLS     r5,r5,#8
        0x000056da:    d502        ..      BPL      0x56e2 ; UART_Write + 24
        0x000056dc:    1e64        d.      SUBS     r4,r4,#1
        0x000056de:    d1fa        ..      BNE      0x56d6 ; UART_Write + 12
        0x000056e0:    e003        ..      B        0x56ea ; UART_Write + 32
        0x000056e2:    5ccc        .\      LDRB     r4,[r1,r3]
        0x000056e4:    6004        .`      STR      r4,[r0,#0]
        0x000056e6:    1c5b        [.      ADDS     r3,r3,#1
        0x000056e8:    e7f1        ..      B        0x56ce ; UART_Write + 4
        0x000056ea:    461a        .F      MOV      r2,r3
        0x000056ec:    4610        .F      MOV      r0,r2
        0x000056ee:    bdb0        ..      POP      {r4,r5,r7,pc}
    USBD_CtrlIn
        0x000056f0:    b570        p.      PUSH     {r4-r6,lr}
        0x000056f2:    4ced        .L      LDR      r4,[pc,#948] ; [0x5aa8] = 0x20000218
        0x000056f4:    6a60        `j      LDR      r0,[r4,#0x24]
        0x000056f6:    4d1d        .M      LDR      r5,[pc,#116] ; [0x576c] = 0x40060008
        0x000056f8:    2800        .(      CMP      r0,#0
        0x000056fa:    d015        ..      BEQ      0x5728 ; USBD_CtrlIn + 56
        0x000056fc:    6a62        bj      LDR      r2,[r4,#0x24]
        0x000056fe:    4ed4        .N      LDR      r6,[pc,#848] ; [0x5a50] = 0x20000098
        0x00005700:    6833        3h      LDR      r3,[r6,#0]
        0x00005702:    69a8        .i      LDR      r0,[r5,#0x18]
        0x00005704:    1828        (.      ADDS     r0,r5,r0
        0x00005706:    30f8        .0      ADDS     r0,r0,#0xf8
        0x00005708:    6a21        !j      LDR      r1,[r4,#0x20]
        0x0000570a:    429a        .B      CMP      r2,r3
        0x0000570c:    d925        %.      BLS      0x575a ; USBD_CtrlIn + 106
        0x0000570e:    6832        2h      LDR      r2,[r6,#0]
        0x00005710:    f000f940    ..@.    BL       USBD_MemCopy ; 0x5994
        0x00005714:    6830        0h      LDR      r0,[r6,#0]
        0x00005716:    61e8        .a      STR      r0,[r5,#0x1c]
        0x00005718:    6a20         j      LDR      r0,[r4,#0x20]
        0x0000571a:    6831        1h      LDR      r1,[r6,#0]
        0x0000571c:    1840        @.      ADDS     r0,r0,r1
        0x0000571e:    6220         b      STR      r0,[r4,#0x20]
        0x00005720:    6830        0h      LDR      r0,[r6,#0]
        0x00005722:    6a61        aj      LDR      r1,[r4,#0x24]
        0x00005724:    1a08        ..      SUBS     r0,r1,r0
        0x00005726:    e01f        ..      B        0x5768 ; USBD_CtrlIn + 120
        0x00005728:    2040        @       MOVS     r0,#0x40
        0x0000572a:    5c20         \      LDRB     r0,[r4,r0]
        0x0000572c:    2800        .(      CMP      r0,#0
        0x0000572e:    d10d        ..      BNE      0x574c ; USBD_CtrlIn + 92
        0x00005730:    4620         F      MOV      r0,r4
        0x00005732:    3040        @0      ADDS     r0,r0,#0x40
        0x00005734:    7840        @x      LDRB     r0,[r0,#1]
        0x00005736:    2805        .(      CMP      r0,#5
        0x00005738:    d108        ..      BNE      0x574c ; USBD_CtrlIn + 92
        0x0000573a:    6828        (h      LDR      r0,[r5,#0]
        0x0000573c:    6b21        !k      LDR      r1,[r4,#0x30]
        0x0000573e:    4288        .B      CMP      r0,r1
        0x00005740:    d004        ..      BEQ      0x574c ; USBD_CtrlIn + 92
        0x00005742:    6828        (h      LDR      r0,[r5,#0]
        0x00005744:    2800        .(      CMP      r0,#0
        0x00005746:    d101        ..      BNE      0x574c ; USBD_CtrlIn + 92
        0x00005748:    6b20         k      LDR      r0,[r4,#0x30]
        0x0000574a:    6028        (`      STR      r0,[r5,#0]
        0x0000574c:    7860        `x      LDRB     r0,[r4,#1]
        0x0000574e:    2800        .(      CMP      r0,#0
        0x00005750:    d002        ..      BEQ      0x5758 ; USBD_CtrlIn + 104
        0x00005752:    2000        .       MOVS     r0,#0
        0x00005754:    61e8        .a      STR      r0,[r5,#0x1c]
        0x00005756:    7060        `p      STRB     r0,[r4,#1]
        0x00005758:    bd70        p.      POP      {r4-r6,pc}
        0x0000575a:    6a62        bj      LDR      r2,[r4,#0x24]
        0x0000575c:    f000f91a    ....    BL       USBD_MemCopy ; 0x5994
        0x00005760:    6a60        `j      LDR      r0,[r4,#0x24]
        0x00005762:    61e8        .a      STR      r0,[r5,#0x1c]
        0x00005764:    2000        .       MOVS     r0,#0
        0x00005766:    6220         b      STR      r0,[r4,#0x20]
        0x00005768:    6260        `b      STR      r0,[r4,#0x24]
        0x0000576a:    bd70        p.      POP      {r4-r6,pc}
    $d.22
    __arm_cp.9_1
        0x0000576c:    40060008    ...@    DCD    1074135048
    $t.23
    USBD_CtrlOut
        0x00005770:    b570        p.      PUSH     {r4-r6,lr}
        0x00005772:    4ecd        .N      LDR      r6,[pc,#820] ; [0x5aa8] = 0x20000218
        0x00005774:    69f1        .i      LDR      r1,[r6,#0x1c]
        0x00005776:    2007        .       MOVS     r0,#7
        0x00005778:    02c0        ..      LSLS     r0,r0,#11
        0x0000577a:    4d11        .M      LDR      r5,[pc,#68] ; [0x57c0] = 0x4006000c
        0x0000577c:    682a        *h      LDR      r2,[r5,#0]
        0x0000577e:    4002        .@      ANDS     r2,r2,r0
        0x00005780:    4291        .B      CMP      r1,r2
        0x00005782:    d103        ..      BNE      0x578c ; USBD_CtrlOut + 28
        0x00005784:    48b2        .H      LDR      r0,[pc,#712] ; [0x5a50] = 0x20000098
        0x00005786:    6800        .h      LDR      r0,[r0,#0]
        0x00005788:    62a8        .b      STR      r0,[r5,#0x28]
        0x0000578a:    bd70        p.      POP      {r4-r6,pc}
        0x0000578c:    6829        )h      LDR      r1,[r5,#0]
        0x0000578e:    4001        .@      ANDS     r1,r1,r0
        0x00005790:    61f1        .a      STR      r1,[r6,#0x1c]
        0x00005792:    6bb0        .k      LDR      r0,[r6,#0x38]
        0x00005794:    6bf1        .k      LDR      r1,[r6,#0x3c]
        0x00005796:    4288        .B      CMP      r0,r1
        0x00005798:    d211        ..      BCS      0x57be ; USBD_CtrlOut + 78
        0x0000579a:    6aac        .j      LDR      r4,[r5,#0x28]
        0x0000579c:    6a68        hj      LDR      r0,[r5,#0x24]
        0x0000579e:    1829        ).      ADDS     r1,r5,r0
        0x000057a0:    31f4        .1      ADDS     r1,r1,#0xf4
        0x000057a2:    6b70        pk      LDR      r0,[r6,#0x34]
        0x000057a4:    4622        "F      MOV      r2,r4
        0x000057a6:    f000f8f5    ....    BL       USBD_MemCopy ; 0x5994
        0x000057aa:    6bb0        .k      LDR      r0,[r6,#0x38]
        0x000057ac:    1900        ..      ADDS     r0,r0,r4
        0x000057ae:    63b0        .c      STR      r0,[r6,#0x38]
        0x000057b0:    6b70        pk      LDR      r0,[r6,#0x34]
        0x000057b2:    1900        ..      ADDS     r0,r0,r4
        0x000057b4:    6370        pc      STR      r0,[r6,#0x34]
        0x000057b6:    6bb0        .k      LDR      r0,[r6,#0x38]
        0x000057b8:    6bf1        .k      LDR      r1,[r6,#0x3c]
        0x000057ba:    4288        .B      CMP      r0,r1
        0x000057bc:    d3e2        ..      BCC      0x5784 ; USBD_CtrlOut + 20
        0x000057be:    bd70        p.      POP      {r4-r6,pc}
    $d.24
    __arm_cp.10_1
        0x000057c0:    4006000c    ...@    DCD    1074135052
    $t.15
    USBD_GetDescriptor
        0x000057c4:    b5f8        ..      PUSH     {r3-r7,lr}
        0x000057c6:    4eb8        .N      LDR      r6,[pc,#736] ; [0x5aa8] = 0x20000218
        0x000057c8:    2700        .'      MOVS     r7,#0
        0x000057ca:    7077        wp      STRB     r7,[r6,#1]
        0x000057cc:    4631        1F      MOV      r1,r6
        0x000057ce:    3140        @1      ADDS     r1,r1,#0x40
        0x000057d0:    78c8        .x      LDRB     r0,[r1,#3]
        0x000057d2:    88c9        ..      LDRH     r1,[r1,#6]
        0x000057d4:    2822        "(      CMP      r0,#0x22
        0x000057d6:    d03c        <.      BEQ      0x5852 ; USBD_GetDescriptor + 142
        0x000057d8:    2802        .(      CMP      r0,#2
        0x000057da:    d00b        ..      BEQ      0x57f4 ; USBD_GetDescriptor + 48
        0x000057dc:    2803        .(      CMP      r0,#3
        0x000057de:    d017        ..      BEQ      0x5810 ; USBD_GetDescriptor + 76
        0x000057e0:    2821        !(      CMP      r0,#0x21
        0x000057e2:    d00e        ..      BEQ      0x5802 ; USBD_GetDescriptor + 62
        0x000057e4:    2801        .(      CMP      r0,#1
        0x000057e6:    d12b        +.      BNE      0x5840 ; USBD_GetDescriptor + 124
        0x000057e8:    2912        .)      CMP      r1,#0x12
        0x000057ea:    d300        ..      BCC      0x57ee ; USBD_GetDescriptor + 42
        0x000057ec:    2112        .!      MOVS     r1,#0x12
        0x000057ee:    69b0        .i      LDR      r0,[r6,#0x18]
        0x000057f0:    6800        .h      LDR      r0,[r0,#0]
        0x000057f2:    e049        I.      B        0x5888 ; USBD_GetDescriptor + 196
        0x000057f4:    69b0        .i      LDR      r0,[r6,#0x18]
        0x000057f6:    6844        Dh      LDR      r4,[r0,#4]
        0x000057f8:    78a0        .x      LDRB     r0,[r4,#2]
        0x000057fa:    78e2        .x      LDRB     r2,[r4,#3]
        0x000057fc:    0212        ..      LSLS     r2,r2,#8
        0x000057fe:    1815        ..      ADDS     r5,r2,r0
        0x00005800:    e010        ..      B        0x5824 ; USBD_GetDescriptor + 96
        0x00005802:    2909        .)      CMP      r1,#9
        0x00005804:    d300        ..      BCC      0x5808 ; USBD_GetDescriptor + 68
        0x00005806:    2109        .!      MOVS     r1,#9
        0x00005808:    69b0        .i      LDR      r0,[r6,#0x18]
        0x0000580a:    6840        @h      LDR      r0,[r0,#4]
        0x0000580c:    3012        .0      ADDS     r0,r0,#0x12
        0x0000580e:    e03b        ;.      B        0x5888 ; USBD_GetDescriptor + 196
        0x00005810:    2042        B       MOVS     r0,#0x42
        0x00005812:    5c30        0\      LDRB     r0,[r6,r0]
        0x00005814:    4aa5        .J      LDR      r2,[pc,#660] ; [0x5aac] = 0x4006002c
        0x00005816:    2803        .(      CMP      r0,#3
        0x00005818:    d840        @.      BHI      0x589c ; USBD_GetDescriptor + 216
        0x0000581a:    0080        ..      LSLS     r0,r0,#2
        0x0000581c:    69b2        .i      LDR      r2,[r6,#0x18]
        0x0000581e:    6892        .h      LDR      r2,[r2,#8]
        0x00005820:    5814        .X      LDR      r4,[r2,r0]
        0x00005822:    7825        %x      LDRB     r5,[r4,#0]
        0x00005824:    42a9        .B      CMP      r1,r5
        0x00005826:    d909        ..      BLS      0x583c ; USBD_GetDescriptor + 120
        0x00005828:    4889        .H      LDR      r0,[pc,#548] ; [0x5a50] = 0x20000098
        0x0000582a:    6801        .h      LDR      r1,[r0,#0]
        0x0000582c:    4628        (F      MOV      r0,r5
        0x0000582e:    f7fafeb5    ....    BL       __aeabi_uidiv ; 0x59c
        0x00005832:    2900        .)      CMP      r1,#0
        0x00005834:    d101        ..      BNE      0x583a ; USBD_GetDescriptor + 118
        0x00005836:    2001        .       MOVS     r0,#1
        0x00005838:    7070        pp      STRB     r0,[r6,#1]
        0x0000583a:    4629        )F      MOV      r1,r5
        0x0000583c:    4620         F      MOV      r0,r4
        0x0000583e:    e023        #.      B        0x5888 ; USBD_GetDescriptor + 196
        0x00005840:    489a        .H      LDR      r0,[pc,#616] ; [0x5aac] = 0x4006002c
        0x00005842:    6801        .h      LDR      r1,[r0,#0]
        0x00005844:    2202        ."      MOVS     r2,#2
        0x00005846:    4311        .C      ORRS     r1,r1,r2
        0x00005848:    6001        .`      STR      r1,[r0,#0]
        0x0000584a:    6901        .i      LDR      r1,[r0,#0x10]
        0x0000584c:    4311        .C      ORRS     r1,r1,r2
        0x0000584e:    6101        .a      STR      r1,[r0,#0x10]
        0x00005850:    bdf8        ..      POP      {r3-r7,pc}
        0x00005852:    69b5        .i      LDR      r5,[r6,#0x18]
        0x00005854:    6868        hh      LDR      r0,[r5,#4]
        0x00005856:    7882        .x      LDRB     r2,[r0,#2]
        0x00005858:    78c3        .x      LDRB     r3,[r0,#3]
        0x0000585a:    021b        ..      LSLS     r3,r3,#8
        0x0000585c:    189a        ..      ADDS     r2,r3,r2
        0x0000585e:    1880        ..      ADDS     r0,r0,r2
        0x00005860:    4602        .F      MOV      r2,r0
        0x00005862:    3a09        .:      SUBS     r2,r2,#9
        0x00005864:    7812        .x      LDRB     r2,[r2,#0]
        0x00005866:    3808        .8      SUBS     r0,r0,#8
        0x00005868:    7800        .x      LDRB     r0,[r0,#0]
        0x0000586a:    0200        ..      LSLS     r0,r0,#8
        0x0000586c:    1884        ..      ADDS     r4,r0,r2
        0x0000586e:    42a1        .B      CMP      r1,r4
        0x00005870:    d909        ..      BLS      0x5886 ; USBD_GetDescriptor + 194
        0x00005872:    4877        wH      LDR      r0,[pc,#476] ; [0x5a50] = 0x20000098
        0x00005874:    6801        .h      LDR      r1,[r0,#0]
        0x00005876:    4620         F      MOV      r0,r4
        0x00005878:    f7fafe90    ....    BL       __aeabi_uidiv ; 0x59c
        0x0000587c:    2900        .)      CMP      r1,#0
        0x0000587e:    d101        ..      BNE      0x5884 ; USBD_GetDescriptor + 192
        0x00005880:    2001        .       MOVS     r0,#1
        0x00005882:    7070        pp      STRB     r0,[r6,#1]
        0x00005884:    4621        !F      MOV      r1,r4
        0x00005886:    68e8        .h      LDR      r0,[r5,#0xc]
        0x00005888:    f000f8aa    ....    BL       USBD_PrepareCtrlIn ; 0x59e0
        0x0000588c:    63b7        .c      STR      r7,[r6,#0x38]
        0x0000588e:    63f7        .c      STR      r7,[r6,#0x3c]
        0x00005890:    6377        wc      STR      r7,[r6,#0x34]
        0x00005892:    486f        oH      LDR      r0,[pc,#444] ; [0x5a50] = 0x20000098
        0x00005894:    6800        .h      LDR      r0,[r0,#0]
        0x00005896:    4985        .I      LDR      r1,[pc,#532] ; [0x5aac] = 0x4006002c
        0x00005898:    6088        .`      STR      r0,[r1,#8]
        0x0000589a:    bdf8        ..      POP      {r3-r7,pc}
        0x0000589c:    6810        .h      LDR      r0,[r2,#0]
        0x0000589e:    2102        .!      MOVS     r1,#2
        0x000058a0:    4308        .C      ORRS     r0,r0,r1
        0x000058a2:    6010        .`      STR      r0,[r2,#0]
        0x000058a4:    6910        .i      LDR      r0,[r2,#0x10]
        0x000058a6:    4308        .C      ORRS     r0,r0,r1
        0x000058a8:    6110        .a      STR      r0,[r2,#0x10]
        0x000058aa:    bdf8        ..      POP      {r3-r7,pc}
    USBD_GetSetupPacket
        0x000058ac:    b580        ..      PUSH     {r7,lr}
        0x000058ae:    497e        ~I      LDR      r1,[pc,#504] ; [0x5aa8] = 0x20000218
        0x000058b0:    3140        @1      ADDS     r1,r1,#0x40
        0x000058b2:    2208        ."      MOVS     r2,#8
        0x000058b4:    f000f86e    ..n.    BL       USBD_MemCopy ; 0x5994
        0x000058b8:    bd80        ..      POP      {r7,pc}
        0x000058ba:    46c0        .F      MOV      r8,r8
    USBD_IRQHandler
        0x000058bc:    b5f8        ..      PUSH     {r3-r7,lr}
        0x000058be:    4c33        3L      LDR      r4,[pc,#204] ; [0x598c] = 0x40060004
        0x000058c0:    6825        %h      LDR      r5,[r4,#0]
        0x000058c2:    68e6        .h      LDR      r6,[r4,#0xc]
        0x000058c4:    0768        h.      LSLS     r0,r5,#29
        0x000058c6:    d50b        ..      BPL      0x58e0 ; USBD_IRQHandler + 36
        0x000058c8:    2004        .       MOVS     r0,#4
        0x000058ca:    6020         `      STR      r0,[r4,#0]
        0x000058cc:    6921        !i      LDR      r1,[r4,#0x10]
        0x000058ce:    68e0        .h      LDR      r0,[r4,#0xc]
        0x000058d0:    07c9        ..      LSLS     r1,r1,#31
        0x000058d2:    d002        ..      BEQ      0x58da ; USBD_IRQHandler + 30
        0x000058d4:    2190        .!      MOVS     r1,#0x90
        0x000058d6:    4308        .C      ORRS     r0,r0,r1
        0x000058d8:    e001        ..      B        0x58de ; USBD_IRQHandler + 34
        0x000058da:    2180        .!      MOVS     r1,#0x80
        0x000058dc:    4388        .C      BICS     r0,r0,r1
        0x000058de:    60e0        .`      STR      r0,[r4,#0xc]
        0x000058e0:    0728        (.      LSLS     r0,r5,#28
        0x000058e2:    d501        ..      BPL      0x58e8 ; USBD_IRQHandler + 44
        0x000058e4:    2008        .       MOVS     r0,#8
        0x000058e6:    6020         `      STR      r0,[r4,#0]
        0x000058e8:    07e8        ..      LSLS     r0,r5,#31
        0x000058ea:    d01d        ..      BEQ      0x5928 ; USBD_IRQHandler + 108
        0x000058ec:    2701        .'      MOVS     r7,#1
        0x000058ee:    6027        '`      STR      r7,[r4,#0]
        0x000058f0:    07f0        ..      LSLS     r0,r6,#31
        0x000058f2:    d008        ..      BEQ      0x5906 ; USBD_IRQHandler + 74
        0x000058f4:    68e0        .h      LDR      r0,[r4,#0xc]
        0x000058f6:    2190        .!      MOVS     r1,#0x90
        0x000058f8:    4301        .C      ORRS     r1,r1,r0
        0x000058fa:    60e1        .`      STR      r1,[r4,#0xc]
        0x000058fc:    f000fa20    .. .    BL       USBD_SwReset ; 0x5d40
        0x00005900:    4823        #H      LDR      r0,[pc,#140] ; [0x5990] = 0x20002cbc
        0x00005902:    2100        .!      MOVS     r1,#0
        0x00005904:    7001        .p      STRB     r1,[r0,#0]
        0x00005906:    07b0        ..      LSLS     r0,r6,#30
        0x00005908:    d505        ..      BPL      0x5916 ; USBD_IRQHandler + 90
        0x0000590a:    4821        !H      LDR      r0,[pc,#132] ; [0x5990] = 0x20002cbc
        0x0000590c:    7007        .p      STRB     r7,[r0,#0]
        0x0000590e:    68e0        .h      LDR      r0,[r4,#0xc]
        0x00005910:    2110        .!      MOVS     r1,#0x10
        0x00005912:    4388        .C      BICS     r0,r0,r1
        0x00005914:    60e0        .`      STR      r0,[r4,#0xc]
        0x00005916:    0770        p.      LSLS     r0,r6,#29
        0x00005918:    d506        ..      BPL      0x5928 ; USBD_IRQHandler + 108
        0x0000591a:    68e0        .h      LDR      r0,[r4,#0xc]
        0x0000591c:    2190        .!      MOVS     r1,#0x90
        0x0000591e:    4301        .C      ORRS     r1,r1,r0
        0x00005920:    60e1        .`      STR      r1,[r4,#0xc]
        0x00005922:    481b        .H      LDR      r0,[pc,#108] ; [0x5990] = 0x20002cbc
        0x00005924:    2100        .!      MOVS     r1,#0
        0x00005926:    7001        .p      STRB     r1,[r0,#0]
        0x00005928:    07a8        ..      LSLS     r0,r5,#30
        0x0000592a:    d52d        -.      BPL      0x5988 ; USBD_IRQHandler + 204
        0x0000592c:    2d00        .-      CMP      r5,#0
        0x0000592e:    d50a        ..      BPL      0x5946 ; USBD_IRQHandler + 138
        0x00005930:    2001        .       MOVS     r0,#1
        0x00005932:    07c1        ..      LSLS     r1,r0,#31
        0x00005934:    6021        !`      STR      r1,[r4,#0]
        0x00005936:    6aa1        .j      LDR      r1,[r4,#0x28]
        0x00005938:    4301        .C      ORRS     r1,r1,r0
        0x0000593a:    62a1        .b      STR      r1,[r4,#0x28]
        0x0000593c:    6ba1        .k      LDR      r1,[r4,#0x38]
        0x0000593e:    4301        .C      ORRS     r1,r1,r0
        0x00005940:    63a1        .c      STR      r1,[r4,#0x38]
        0x00005942:    f000f889    ....    BL       USBD_ProcessSetupPacket ; 0x5a58
        0x00005946:    2601        .&      MOVS     r6,#1
        0x00005948:    03e8        ..      LSLS     r0,r5,#15
        0x0000594a:    d503        ..      BPL      0x5954 ; USBD_IRQHandler + 152
        0x0000594c:    0430        0.      LSLS     r0,r6,#16
        0x0000594e:    6020         `      STR      r0,[r4,#0]
        0x00005950:    f7fffece    ....    BL       USBD_CtrlIn ; 0x56f0
        0x00005954:    03a8        ..      LSLS     r0,r5,#14
        0x00005956:    d503        ..      BPL      0x5960 ; USBD_IRQHandler + 164
        0x00005958:    0470        p.      LSLS     r0,r6,#17
        0x0000595a:    6020         `      STR      r0,[r4,#0]
        0x0000595c:    f7ffff08    ....    BL       USBD_CtrlOut ; 0x5770
        0x00005960:    0368        h.      LSLS     r0,r5,#13
        0x00005962:    d503        ..      BPL      0x596c ; USBD_IRQHandler + 176
        0x00005964:    04b0        ..      LSLS     r0,r6,#18
        0x00005966:    6020         `      STR      r0,[r4,#0]
        0x00005968:    f7fcf906    ....    BL       HID_SetInReport ; 0x1b78
        0x0000596c:    0328        (.      LSLS     r0,r5,#12
        0x0000596e:    d503        ..      BPL      0x5978 ; USBD_IRQHandler + 188
        0x00005970:    04f0        ..      LSLS     r0,r6,#19
        0x00005972:    6020         `      STR      r0,[r4,#0]
        0x00005974:    f7fbff72    ..r.    BL       EP3_Handler ; 0x185c
        0x00005978:    02e8        ..      LSLS     r0,r5,#11
        0x0000597a:    d501        ..      BPL      0x5980 ; USBD_IRQHandler + 196
        0x0000597c:    0530        0.      LSLS     r0,r6,#20
        0x0000597e:    6020         `      STR      r0,[r4,#0]
        0x00005980:    02a8        ..      LSLS     r0,r5,#10
        0x00005982:    d501        ..      BPL      0x5988 ; USBD_IRQHandler + 204
        0x00005984:    0570        p.      LSLS     r0,r6,#21
        0x00005986:    6020         `      STR      r0,[r4,#0]
        0x00005988:    bdf8        ..      POP      {r3-r7,pc}
        0x0000598a:    46c0        .F      MOV      r8,r8
    $d.1
    __arm_cp.0_0
        0x0000598c:    40060004    ...@    DCD    1074135044
    __arm_cp.0_1
        0x00005990:    20002cbc    .,.     DCD    536882364
    $t.6
    USBD_MemCopy
        0x00005994:    2a00        .*      CMP      r2,#0
        0x00005996:    d005        ..      BEQ      0x59a4 ; USBD_MemCopy + 16
        0x00005998:    780b        .x      LDRB     r3,[r1,#0]
        0x0000599a:    7003        .p      STRB     r3,[r0,#0]
        0x0000599c:    1c40        @.      ADDS     r0,r0,#1
        0x0000599e:    1c49        I.      ADDS     r1,r1,#1
        0x000059a0:    1e52        R.      SUBS     r2,r2,#1
        0x000059a2:    e7f7        ..      B        USBD_MemCopy ; 0x5994
        0x000059a4:    4770        pG      BX       lr
    USBD_MemCopy
        0x000059a6:    2200        ."      MOVS     r2,#0
        0x000059a8:    2a40        @*      CMP      r2,#0x40
        0x000059aa:    d003        ..      BEQ      0x59b4 ; USBD_MemCopy + 14
        0x000059ac:    5c8b        .\      LDRB     r3,[r1,r2]
        0x000059ae:    5483        .T      STRB     r3,[r0,r2]
        0x000059b0:    1c52        R.      ADDS     r2,r2,#1
        0x000059b2:    e7f9        ..      B        0x59a8 ; USBD_MemCopy + 2
        0x000059b4:    4770        pG      BX       lr
        0x000059b6:    0000        ..      MOVS     r0,r0
    USBD_Open
        0x000059b8:    4bed        .K      LDR      r3,[pc,#948] ; [0x5d70] = 0x20000218
        0x000059ba:    6099        .`      STR      r1,[r3,#8]
        0x000059bc:    60da        .`      STR      r2,[r3,#0xc]
        0x000059be:    6198        .a      STR      r0,[r3,#0x18]
        0x000059c0:    6800        .h      LDR      r0,[r0,#0]
        0x000059c2:    79c0        .y      LDRB     r0,[r0,#7]
        0x000059c4:    49ca        .I      LDR      r1,[pc,#808] ; [0x5cf0] = 0x20000098
        0x000059c6:    6008        .`      STR      r0,[r1,#0]
        0x000059c8:    207d        }       MOVS     r0,#0x7d
        0x000059ca:    0100        ..      LSLS     r0,r0,#4
        0x000059cc:    4903        .I      LDR      r1,[pc,#12] ; [0x59dc] = 0x40060010
        0x000059ce:    6008        .`      STR      r0,[r1,#0]
        0x000059d0:    48d9        .H      LDR      r0,[pc,#868] ; [0x5d38] = 0x40060090
        0x000059d2:    6801        .h      LDR      r1,[r0,#0]
        0x000059d4:    2201        ."      MOVS     r2,#1
        0x000059d6:    430a        .C      ORRS     r2,r2,r1
        0x000059d8:    6002        .`      STR      r2,[r0,#0]
        0x000059da:    4770        pG      BX       lr
    $d.1
    __arm_cp.0_2
        0x000059dc:    40060010    ...@    DCD    1074135056
    $t.17
    USBD_PrepareCtrlIn
        0x000059e0:    b570        p.      PUSH     {r4-r6,lr}
        0x000059e2:    460c        .F      MOV      r4,r1
        0x000059e4:    4601        .F      MOV      r1,r0
        0x000059e6:    4ec2        .N      LDR      r6,[pc,#776] ; [0x5cf0] = 0x20000098
        0x000059e8:    6830        0h      LDR      r0,[r6,#0]
        0x000059ea:    4d13        .M      LDR      r5,[pc,#76] ; [0x5a38] = 0x40060020
        0x000059ec:    42a0        .B      CMP      r0,r4
        0x000059ee:    d212        ..      BCS      0x5a16 ; USBD_PrepareCtrlIn + 54
        0x000059f0:    6830        0h      LDR      r0,[r6,#0]
        0x000059f2:    6832        2h      LDR      r2,[r6,#0]
        0x000059f4:    1aa2        ..      SUBS     r2,r4,r2
        0x000059f6:    4bde        .K      LDR      r3,[pc,#888] ; [0x5d70] = 0x20000218
        0x000059f8:    625a        Zb      STR      r2,[r3,#0x24]
        0x000059fa:    68aa        .h      LDR      r2,[r5,#8]
        0x000059fc:    2480        .$      MOVS     r4,#0x80
        0x000059fe:    4314        .C      ORRS     r4,r4,r2
        0x00005a00:    60ac        .`      STR      r4,[r5,#8]
        0x00005a02:    1808        ..      ADDS     r0,r1,r0
        0x00005a04:    6218        .b      STR      r0,[r3,#0x20]
        0x00005a06:    6828        (h      LDR      r0,[r5,#0]
        0x00005a08:    1828        (.      ADDS     r0,r5,r0
        0x00005a0a:    30e0        .0      ADDS     r0,r0,#0xe0
        0x00005a0c:    6832        2h      LDR      r2,[r6,#0]
        0x00005a0e:    f7ffffc1    ....    BL       USBD_MemCopy ; 0x5994
        0x00005a12:    6834        4h      LDR      r4,[r6,#0]
        0x00005a14:    e00d        ..      B        0x5a32 ; USBD_PrepareCtrlIn + 82
        0x00005a16:    48d6        .H      LDR      r0,[pc,#856] ; [0x5d70] = 0x20000218
        0x00005a18:    2200        ."      MOVS     r2,#0
        0x00005a1a:    6242        Bb      STR      r2,[r0,#0x24]
        0x00005a1c:    68ab        .h      LDR      r3,[r5,#8]
        0x00005a1e:    2680        .&      MOVS     r6,#0x80
        0x00005a20:    431e        .C      ORRS     r6,r6,r3
        0x00005a22:    60ae        .`      STR      r6,[r5,#8]
        0x00005a24:    6202        .b      STR      r2,[r0,#0x20]
        0x00005a26:    6828        (h      LDR      r0,[r5,#0]
        0x00005a28:    1828        (.      ADDS     r0,r5,r0
        0x00005a2a:    30e0        .0      ADDS     r0,r0,#0xe0
        0x00005a2c:    4622        "F      MOV      r2,r4
        0x00005a2e:    f7ffffb1    ....    BL       USBD_MemCopy ; 0x5994
        0x00005a32:    606c        l`      STR      r4,[r5,#4]
        0x00005a34:    bd70        p.      POP      {r4-r6,pc}
        0x00005a36:    46c0        .F      MOV      r8,r8
    $d.18
    __arm_cp.7_1
        0x00005a38:    40060020     ..@    DCD    1074135072
    $t.19
    USBD_PrepareCtrlOut
        0x00005a3c:    4acc        .J      LDR      r2,[pc,#816] ; [0x5d70] = 0x20000218
        0x00005a3e:    2300        .#      MOVS     r3,#0
        0x00005a40:    6393        .c      STR      r3,[r2,#0x38]
        0x00005a42:    63d1        .c      STR      r1,[r2,#0x3c]
        0x00005a44:    6350        Pc      STR      r0,[r2,#0x34]
        0x00005a46:    48aa        .H      LDR      r0,[pc,#680] ; [0x5cf0] = 0x20000098
        0x00005a48:    6800        .h      LDR      r0,[r0,#0]
        0x00005a4a:    4902        .I      LDR      r1,[pc,#8] ; [0x5a54] = 0x40060034
        0x00005a4c:    6008        .`      STR      r0,[r1,#0]
        0x00005a4e:    4770        pG      BX       lr
    $d.20
    __arm_cp.8_1
        0x00005a50:    20000098    ...     DCD    536871064
    __arm_cp.8_2
        0x00005a54:    40060034    4..@    DCD    1074135092
    $t.7
    USBD_ProcessSetupPacket
        0x00005a58:    b5b0        ..      PUSH     {r4,r5,r7,lr}
        0x00005a5a:    4dc5        .M      LDR      r5,[pc,#788] ; [0x5d70] = 0x20000218
        0x00005a5c:    2000        .       MOVS     r0,#0
        0x00005a5e:    61e8        .a      STR      r0,[r5,#0x1c]
        0x00005a60:    4628        (F      MOV      r0,r5
        0x00005a62:    3040        @0      ADDS     r0,r0,#0x40
        0x00005a64:    4c11        .L      LDR      r4,[pc,#68] ; [0x5aac] = 0x4006002c
        0x00005a66:    4621        !F      MOV      r1,r4
        0x00005a68:    31d4        .1      ADDS     r1,r1,#0xd4
        0x00005a6a:    2208        ."      MOVS     r2,#8
        0x00005a6c:    f7ffff92    ....    BL       USBD_MemCopy ; 0x5994
        0x00005a70:    2040        @       MOVS     r0,#0x40
        0x00005a72:    5c29        )\      LDRB     r1,[r5,r0]
        0x00005a74:    2060        `       MOVS     r0,#0x60
        0x00005a76:    4008        .@      ANDS     r0,r0,r1
        0x00005a78:    2840        @(      CMP      r0,#0x40
        0x00005a7a:    d008        ..      BEQ      0x5a8e ; USBD_ProcessSetupPacket + 54
        0x00005a7c:    2820         (      CMP      r0,#0x20
        0x00005a7e:    d004        ..      BEQ      0x5a8a ; USBD_ProcessSetupPacket + 50
        0x00005a80:    2800        .(      CMP      r0,#0
        0x00005a82:    d109        ..      BNE      0x5a98 ; USBD_ProcessSetupPacket + 64
        0x00005a84:    f000f824    ..$.    BL       USBD_StandardRequest ; 0x5ad0
        0x00005a88:    bdb0        ..      POP      {r4,r5,r7,pc}
        0x00005a8a:    68a8        .h      LDR      r0,[r5,#8]
        0x00005a8c:    e000        ..      B        0x5a90 ; USBD_ProcessSetupPacket + 56
        0x00005a8e:    6868        hh      LDR      r0,[r5,#4]
        0x00005a90:    2800        .(      CMP      r0,#0
        0x00005a92:    d008        ..      BEQ      0x5aa6 ; USBD_ProcessSetupPacket + 78
        0x00005a94:    4780        .G      BLX      r0
        0x00005a96:    bdb0        ..      POP      {r4,r5,r7,pc}
        0x00005a98:    6820         h      LDR      r0,[r4,#0]
        0x00005a9a:    2102        .!      MOVS     r1,#2
        0x00005a9c:    4308        .C      ORRS     r0,r0,r1
        0x00005a9e:    6020         `      STR      r0,[r4,#0]
        0x00005aa0:    6920         i      LDR      r0,[r4,#0x10]
        0x00005aa2:    4308        .C      ORRS     r0,r0,r1
        0x00005aa4:    6120         a      STR      r0,[r4,#0x10]
        0x00005aa6:    bdb0        ..      POP      {r4,r5,r7,pc}
    $d.8
    __arm_cp.4_0
        0x00005aa8:    20000218    ...     DCD    536871448
    __arm_cp.4_1
        0x00005aac:    4006002c    ,..@    DCD    1074135084
    $t.9
    USBD_SetStall
        0x00005ab0:    b510        ..      PUSH     {r4,lr}
        0x00005ab2:    2207        ."      MOVS     r2,#7
        0x00005ab4:    498d        .I      LDR      r1,[pc,#564] ; [0x5cec] = 0x4006001c
        0x00005ab6:    1e52        R.      SUBS     r2,r2,#1
        0x00005ab8:    d009        ..      BEQ      0x5ace ; USBD_SetStall + 30
        0x00005aba:    68cb        .h      LDR      r3,[r1,#0xc]
        0x00005abc:    3110        .1      ADDS     r1,r1,#0x10
        0x00005abe:    240f        .$      MOVS     r4,#0xf
        0x00005ac0:    401c        .@      ANDS     r4,r4,r3
        0x00005ac2:    4284        .B      CMP      r4,r0
        0x00005ac4:    d1f7        ..      BNE      0x5ab6 ; USBD_SetStall + 6
        0x00005ac6:    6808        .h      LDR      r0,[r1,#0]
        0x00005ac8:    2202        ."      MOVS     r2,#2
        0x00005aca:    4302        .C      ORRS     r2,r2,r0
        0x00005acc:    600a        .`      STR      r2,[r1,#0]
        0x00005ace:    bd10        ..      POP      {r4,pc}
    USBD_StandardRequest
        0x00005ad0:    b5f8        ..      PUSH     {r3-r7,lr}
        0x00005ad2:    4ca7        .L      LDR      r4,[pc,#668] ; [0x5d70] = 0x20000218
        0x00005ad4:    2500        .%      MOVS     r5,#0
        0x00005ad6:    6265        eb      STR      r5,[r4,#0x24]
        0x00005ad8:    6225        %b      STR      r5,[r4,#0x20]
        0x00005ada:    2040        @       MOVS     r0,#0x40
        0x00005adc:    5c21        !\      LDRB     r1,[r4,r0]
        0x00005ade:    b248        H.      SXTB     r0,r1
        0x00005ae0:    4622        "F      MOV      r2,r4
        0x00005ae2:    3240        @2      ADDS     r2,r2,#0x40
        0x00005ae4:    7852        Rx      LDRB     r2,[r2,#1]
        0x00005ae6:    2800        .(      CMP      r0,#0
        0x00005ae8:    d435        5.      BMI      0x5b56 ; USBD_StandardRequest + 134
        0x00005aea:    1e50        P.      SUBS     r0,r2,#1
        0x00005aec:    4d7f        .M      LDR      r5,[pc,#508] ; [0x5cec] = 0x4006001c
        0x00005aee:    280a        .(      CMP      r0,#0xa
        0x00005af0:    d853        S.      BHI      0x5b9a ; USBD_StandardRequest + 202
        0x00005af2:    46c0        .F      MOV      r8,r8
        0x00005af4:    4478        xD      ADD      r0,r0,pc
        0x00005af6:    7900        .y      LDRB     r0,[r0,#4]
        0x00005af8:    0040        @.      LSLS     r0,r0,#1
        0x00005afa:    4487        .D      ADD      pc,pc,r0
    $d.10
        0x00005afc:    4e5a4e05    .NZN    DCD    1314541061
        0x00005b00:    4e4e4e56    VNNN    DCD    1313754710
        0x00005b04:    00774e72    rNw.    DCD    7818866
    $t.11
        0x00005b08:    2042        B       MOVS     r0,#0x42
        0x00005b0a:    5c20         \      LDRB     r0,[r4,r0]
        0x00005b0c:    2801        .(      CMP      r0,#1
        0x00005b0e:    d100        ..      BNE      0x5b12 ; USBD_StandardRequest + 66
        0x00005b10:    e0ae        ..      B        0x5c70 ; USBD_StandardRequest + 416
        0x00005b12:    2800        .(      CMP      r0,#0
        0x00005b14:    d000        ..      BEQ      0x5b18 ; USBD_StandardRequest + 72
        0x00005b16:    e0af        ..      B        0x5c78 ; USBD_StandardRequest + 424
        0x00005b18:    2044        D       MOVS     r0,#0x44
        0x00005b1a:    5c20         \      LDRB     r0,[r4,r0]
        0x00005b1c:    210f        .!      MOVS     r1,#0xf
        0x00005b1e:    4008        .@      ANDS     r0,r0,r1
        0x00005b20:    462a        *F      MOV      r2,r5
        0x00005b22:    3210        .2      ADDS     r2,r2,#0x10
        0x00005b24:    2300        .#      MOVS     r3,#0
        0x00005b26:    2b06        .+      CMP      r3,#6
        0x00005b28:    d100        ..      BNE      0x5b2c ; USBD_StandardRequest + 92
        0x00005b2a:    e0a5        ..      B        0x5c78 ; USBD_StandardRequest + 424
        0x00005b2c:    1f16        ..      SUBS     r6,r2,#4
        0x00005b2e:    6837        7h      LDR      r7,[r6,#0]
        0x00005b30:    400f        .@      ANDS     r7,r7,r1
        0x00005b32:    4287        .B      CMP      r7,r0
        0x00005b34:    d10c        ..      BNE      0x5b50 ; USBD_StandardRequest + 128
        0x00005b36:    6967        gi      LDR      r7,[r4,#0x14]
        0x00005b38:    40df        .@      LSRS     r7,r7,r3
        0x00005b3a:    07ff        ..      LSLS     r7,r7,#31
        0x00005b3c:    d108        ..      BNE      0x5b50 ; USBD_StandardRequest + 128
        0x00005b3e:    6817        .h      LDR      r7,[r2,#0]
        0x00005b40:    2502        .%      MOVS     r5,#2
        0x00005b42:    43af        .C      BICS     r7,r7,r5
        0x00005b44:    6017        .`      STR      r7,[r2,#0]
        0x00005b46:    6835        5h      LDR      r5,[r6,#0]
        0x00005b48:    2780        .'      MOVS     r7,#0x80
        0x00005b4a:    43bd        .C      BICS     r5,r5,r7
        0x00005b4c:    6035        5`      STR      r5,[r6,#0]
        0x00005b4e:    4d67        gM      LDR      r5,[pc,#412] ; [0x5cec] = 0x4006001c
        0x00005b50:    3210        .2      ADDS     r2,r2,#0x10
        0x00005b52:    1c5b        [.      ADDS     r3,r3,#1
        0x00005b54:    e7e7        ..      B        0x5b26 ; USBD_StandardRequest + 86
        0x00005b56:    2001        .       MOVS     r0,#1
        0x00005b58:    41c2        .A      RORS     r2,r2,r0
        0x00005b5a:    2a05        .*      CMP      r2,#5
        0x00005b5c:    d900        ..      BLS      0x5b60 ; USBD_StandardRequest + 144
        0x00005b5e:    e07e        ~.      B        0x5c5e ; USBD_StandardRequest + 398
        0x00005b60:    447a        zD      ADD      r2,r2,pc
        0x00005b62:    7912        .y      LDRB     r2,[r2,#4]
        0x00005b64:    0052        R.      LSLS     r2,r2,#1
        0x00005b66:    4497        .D      ADD      pc,pc,r2
    $d.12
        0x00005b68:    5e7a7a02    .zz^    DCD    1585084930
        0x00005b6c:    6849        Ih      DCW    26697
    $t.13
        0x00005b6e:    4f5f        _O      LDR      r7,[pc,#380] ; [0x5cec] = 0x4006001c
        0x00005b70:    2982        .)      CMP      r1,#0x82
        0x00005b72:    d100        ..      BNE      0x5b76 ; USBD_StandardRequest + 166
        0x00005b74:    e087        ..      B        0x5c86 ; USBD_StandardRequest + 438
        0x00005b76:    2981        .)      CMP      r1,#0x81
        0x00005b78:    d100        ..      BNE      0x5b7c ; USBD_StandardRequest + 172
        0x00005b7a:    e0a0        ..      B        0x5cbe ; USBD_StandardRequest + 494
        0x00005b7c:    2980        .)      CMP      r1,#0x80
        0x00005b7e:    d000        ..      BEQ      0x5b82 ; USBD_StandardRequest + 178
        0x00005b80:    e0a1        ..      B        0x5cc6 ; USBD_StandardRequest + 502
        0x00005b82:    69a0        .i      LDR      r0,[r4,#0x18]
        0x00005b84:    6840        @h      LDR      r0,[r0,#4]
        0x00005b86:    79c0        .y      LDRB     r0,[r0,#7]
        0x00005b88:    0641        A.      LSLS     r1,r0,#25
        0x00005b8a:    0fcd        ..      LSRS     r5,r1,#31
        0x00005b8c:    0680        ..      LSLS     r0,r0,#26
        0x00005b8e:    d400        ..      BMI      0x5b92 ; USBD_StandardRequest + 194
        0x00005b90:    e095        ..      B        0x5cbe ; USBD_StandardRequest + 494
        0x00005b92:    7820         x      LDRB     r0,[r4,#0]
        0x00005b94:    0040        @.      LSLS     r0,r0,#1
        0x00005b96:    1945        E.      ADDS     r5,r0,r5
        0x00005b98:    e091        ..      B        0x5cbe ; USBD_StandardRequest + 494
        0x00005b9a:    6928        (i      LDR      r0,[r5,#0x10]
        0x00005b9c:    2102        .!      MOVS     r1,#2
        0x00005b9e:    4308        .C      ORRS     r0,r0,r1
        0x00005ba0:    6128        (a      STR      r0,[r5,#0x10]
        0x00005ba2:    6a28        (j      LDR      r0,[r5,#0x20]
        0x00005ba4:    4308        .C      ORRS     r0,r0,r1
        0x00005ba6:    6228        (b      STR      r0,[r5,#0x20]
        0x00005ba8:    bdf8        ..      POP      {r3-r7,pc}
        0x00005baa:    2042        B       MOVS     r0,#0x42
        0x00005bac:    5c20         \      LDRB     r0,[r4,r0]
        0x00005bae:    6320         c      STR      r0,[r4,#0x30]
        0x00005bb0:    e062        b.      B        0x5c78 ; USBD_StandardRequest + 424
        0x00005bb2:    2042        B       MOVS     r0,#0x42
        0x00005bb4:    5c20         \      LDRB     r0,[r4,r0]
        0x00005bb6:    2801        .(      CMP      r0,#1
        0x00005bb8:    d05c        \.      BEQ      0x5c74 ; USBD_StandardRequest + 420
        0x00005bba:    2800        .(      CMP      r0,#0
        0x00005bbc:    d15c        \.      BNE      0x5c78 ; USBD_StandardRequest + 424
        0x00005bbe:    2044        D       MOVS     r0,#0x44
        0x00005bc0:    5c20         \      LDRB     r0,[r4,r0]
        0x00005bc2:    220f        ."      MOVS     r2,#0xf
        0x00005bc4:    4010        .@      ANDS     r0,r0,r2
        0x00005bc6:    2307        .#      MOVS     r3,#7
        0x00005bc8:    4629        )F      MOV      r1,r5
        0x00005bca:    1e5b        [.      SUBS     r3,r3,#1
        0x00005bcc:    d054        T.      BEQ      0x5c78 ; USBD_StandardRequest + 424
        0x00005bce:    68cc        .h      LDR      r4,[r1,#0xc]
        0x00005bd0:    3110        .1      ADDS     r1,r1,#0x10
        0x00005bd2:    4014        .@      ANDS     r4,r4,r2
        0x00005bd4:    4284        .B      CMP      r4,r0
        0x00005bd6:    d1f8        ..      BNE      0x5bca ; USBD_StandardRequest + 250
        0x00005bd8:    6808        .h      LDR      r0,[r1,#0]
        0x00005bda:    2202        ."      MOVS     r2,#2
        0x00005bdc:    4302        .C      ORRS     r2,r2,r0
        0x00005bde:    600a        .`      STR      r2,[r1,#0]
        0x00005be0:    e04a        J.      B        0x5c78 ; USBD_StandardRequest + 424
        0x00005be2:    2042        B       MOVS     r0,#0x42
        0x00005be4:    5c20         \      LDRB     r0,[r4,r0]
        0x00005be6:    62a0        .b      STR      r0,[r4,#0x28]
        0x00005be8:    6920         i      LDR      r0,[r4,#0x10]
        0x00005bea:    e003        ..      B        0x5bf4 ; USBD_StandardRequest + 292
        0x00005bec:    2042        B       MOVS     r0,#0x42
        0x00005bee:    5c20         \      LDRB     r0,[r4,r0]
        0x00005bf0:    62e0        .b      STR      r0,[r4,#0x2c]
        0x00005bf2:    68e0        .h      LDR      r0,[r4,#0xc]
        0x00005bf4:    2800        .(      CMP      r0,#0
        0x00005bf6:    d03f        ?.      BEQ      0x5c78 ; USBD_StandardRequest + 424
        0x00005bf8:    4780        .G      BLX      r0
        0x00005bfa:    e03d        =.      B        0x5c78 ; USBD_StandardRequest + 424
        0x00005bfc:    6aa2        .j      LDR      r2,[r4,#0x28]
        0x00005bfe:    493b        ;I      LDR      r1,[pc,#236] ; [0x5cec] = 0x4006001c
        0x00005c00:    684b        Kh      LDR      r3,[r1,#4]
        0x00005c02:    185b        [.      ADDS     r3,r3,r1
        0x00005c04:    26e4        .&      MOVS     r6,#0xe4
        0x00005c06:    559a        .U      STRB     r2,[r3,r6]
        0x00005c08:    69ca        .i      LDR      r2,[r1,#0x1c]
        0x00005c0a:    2380        .#      MOVS     r3,#0x80
        0x00005c0c:    431a        .C      ORRS     r2,r2,r3
        0x00005c0e:    61ca        .a      STR      r2,[r1,#0x1c]
        0x00005c10:    618d        .a      STR      r5,[r1,#0x18]
        0x00005c12:    68ca        .h      LDR      r2,[r1,#0xc]
        0x00005c14:    431a        .C      ORRS     r2,r2,r3
        0x00005c16:    60ca        .`      STR      r2,[r1,#0xc]
        0x00005c18:    6088        .`      STR      r0,[r1,#8]
        0x00005c1a:    63a5        .c      STR      r5,[r4,#0x38]
        0x00005c1c:    63e5        .c      STR      r5,[r4,#0x3c]
        0x00005c1e:    6365        ec      STR      r5,[r4,#0x34]
        0x00005c20:    4833        3H      LDR      r0,[pc,#204] ; [0x5cf0] = 0x20000098
        0x00005c22:    6800        .h      LDR      r0,[r0,#0]
        0x00005c24:    e007        ..      B        0x5c36 ; USBD_StandardRequest + 358
        0x00005c26:    f7fffdcd    ....    BL       USBD_GetDescriptor ; 0x57c4
        0x00005c2a:    63a5        .c      STR      r5,[r4,#0x38]
        0x00005c2c:    63e5        .c      STR      r5,[r4,#0x3c]
        0x00005c2e:    6365        ec      STR      r5,[r4,#0x34]
        0x00005c30:    482f        /H      LDR      r0,[pc,#188] ; [0x5cf0] = 0x20000098
        0x00005c32:    6800        .h      LDR      r0,[r0,#0]
        0x00005c34:    492d        -I      LDR      r1,[pc,#180] ; [0x5cec] = 0x4006001c
        0x00005c36:    6188        .a      STR      r0,[r1,#0x18]
        0x00005c38:    bdf8        ..      POP      {r3-r7,pc}
        0x00005c3a:    6ae1        .j      LDR      r1,[r4,#0x2c]
        0x00005c3c:    4a2b        +J      LDR      r2,[pc,#172] ; [0x5cec] = 0x4006001c
        0x00005c3e:    6853        Sh      LDR      r3,[r2,#4]
        0x00005c40:    189b        ..      ADDS     r3,r3,r2
        0x00005c42:    26e4        .&      MOVS     r6,#0xe4
        0x00005c44:    5599        .U      STRB     r1,[r3,r6]
        0x00005c46:    68d1        .h      LDR      r1,[r2,#0xc]
        0x00005c48:    2380        .#      MOVS     r3,#0x80
        0x00005c4a:    430b        .C      ORRS     r3,r3,r1
        0x00005c4c:    60d3        .`      STR      r3,[r2,#0xc]
        0x00005c4e:    6090        .`      STR      r0,[r2,#8]
        0x00005c50:    63a5        .c      STR      r5,[r4,#0x38]
        0x00005c52:    63e5        .c      STR      r5,[r4,#0x3c]
        0x00005c54:    6365        ec      STR      r5,[r4,#0x34]
        0x00005c56:    4826        &H      LDR      r0,[pc,#152] ; [0x5cf0] = 0x20000098
        0x00005c58:    6800        .h      LDR      r0,[r0,#0]
        0x00005c5a:    6190        .a      STR      r0,[r2,#0x18]
        0x00005c5c:    bdf8        ..      POP      {r3-r7,pc}
        0x00005c5e:    4823        #H      LDR      r0,[pc,#140] ; [0x5cec] = 0x4006001c
        0x00005c60:    6901        .i      LDR      r1,[r0,#0x10]
        0x00005c62:    2202        ."      MOVS     r2,#2
        0x00005c64:    4311        .C      ORRS     r1,r1,r2
        0x00005c66:    6101        .a      STR      r1,[r0,#0x10]
        0x00005c68:    6a01        .j      LDR      r1,[r0,#0x20]
        0x00005c6a:    4311        .C      ORRS     r1,r1,r2
        0x00005c6c:    6201        .b      STR      r1,[r0,#0x20]
        0x00005c6e:    bdf8        ..      POP      {r3-r7,pc}
        0x00005c70:    2000        .       MOVS     r0,#0
        0x00005c72:    e000        ..      B        0x5c76 ; USBD_StandardRequest + 422
        0x00005c74:    2001        .       MOVS     r0,#1
        0x00005c76:    7020         p      STRB     r0,[r4,#0]
        0x00005c78:    68e8        .h      LDR      r0,[r5,#0xc]
        0x00005c7a:    2180        .!      MOVS     r1,#0x80
        0x00005c7c:    4301        .C      ORRS     r1,r1,r0
        0x00005c7e:    60e9        .`      STR      r1,[r5,#0xc]
        0x00005c80:    2000        .       MOVS     r0,#0
        0x00005c82:    60a8        .`      STR      r0,[r5,#8]
        0x00005c84:    bdf8        ..      POP      {r3-r7,pc}
        0x00005c86:    2044        D       MOVS     r0,#0x44
        0x00005c88:    5c21        !\      LDRB     r1,[r4,r0]
        0x00005c8a:    200f        .       MOVS     r0,#0xf
        0x00005c8c:    9000        ..      STR      r0,[sp,#0]
        0x00005c8e:    4001        .@      ANDS     r1,r1,r0
        0x00005c90:    2600        .&      MOVS     r6,#0
        0x00005c92:    2307        .#      MOVS     r3,#7
        0x00005c94:    4638        8F      MOV      r0,r7
        0x00005c96:    1e5b        [.      SUBS     r3,r3,#1
        0x00005c98:    463d        =F      MOV      r5,r7
        0x00005c9a:    d00c        ..      BEQ      0x5cb6 ; USBD_StandardRequest + 486
        0x00005c9c:    1c75        u.      ADDS     r5,r6,#1
        0x00005c9e:    68c2        .h      LDR      r2,[r0,#0xc]
        0x00005ca0:    3010        .0      ADDS     r0,r0,#0x10
        0x00005ca2:    9f00        ..      LDR      r7,[sp,#0]
        0x00005ca4:    403a        :@      ANDS     r2,r2,r7
        0x00005ca6:    0136        6.      LSLS     r6,r6,#4
        0x00005ca8:    4f10        .O      LDR      r7,[pc,#64] ; [0x5cec] = 0x4006001c
        0x00005caa:    19bf        ..      ADDS     r7,r7,r6
        0x00005cac:    370c        .7      ADDS     r7,r7,#0xc
        0x00005cae:    428a        .B      CMP      r2,r1
        0x00005cb0:    462e        .F      MOV      r6,r5
        0x00005cb2:    4605        .F      MOV      r5,r0
        0x00005cb4:    d1ef        ..      BNE      0x5c96 ; USBD_StandardRequest + 454
        0x00005cb6:    6828        (h      LDR      r0,[r5,#0]
        0x00005cb8:    0780        ..      LSLS     r0,r0,#30
        0x00005cba:    0fc5        ..      LSRS     r5,r0,#31
        0x00005cbc:    4f0b        .O      LDR      r7,[pc,#44] ; [0x5cec] = 0x4006001c
        0x00005cbe:    6878        xh      LDR      r0,[r7,#4]
        0x00005cc0:    1838        8.      ADDS     r0,r7,r0
        0x00005cc2:    21e4        .!      MOVS     r1,#0xe4
        0x00005cc4:    5445        ET      STRB     r5,[r0,r1]
        0x00005cc6:    6878        xh      LDR      r0,[r7,#4]
        0x00005cc8:    1838        8.      ADDS     r0,r7,r0
        0x00005cca:    21e5        .!      MOVS     r1,#0xe5
        0x00005ccc:    2200        ."      MOVS     r2,#0
        0x00005cce:    5442        BT      STRB     r2,[r0,r1]
        0x00005cd0:    68f8        .h      LDR      r0,[r7,#0xc]
        0x00005cd2:    2180        .!      MOVS     r1,#0x80
        0x00005cd4:    4301        .C      ORRS     r1,r1,r0
        0x00005cd6:    60f9        .`      STR      r1,[r7,#0xc]
        0x00005cd8:    2002        .       MOVS     r0,#2
        0x00005cda:    60b8        .`      STR      r0,[r7,#8]
        0x00005cdc:    63a2        .c      STR      r2,[r4,#0x38]
        0x00005cde:    63e2        .c      STR      r2,[r4,#0x3c]
        0x00005ce0:    6362        bc      STR      r2,[r4,#0x34]
        0x00005ce2:    4803        .H      LDR      r0,[pc,#12] ; [0x5cf0] = 0x20000098
        0x00005ce4:    6800        .h      LDR      r0,[r0,#0]
        0x00005ce6:    61b8        .a      STR      r0,[r7,#0x18]
        0x00005ce8:    bdf8        ..      POP      {r3-r7,pc}
        0x00005cea:    46c0        .F      MOV      r8,r8
    $d.14
    __arm_cp.5_1
        0x00005cec:    4006001c    ...@    DCD    1074135068
    __arm_cp.5_2
        0x00005cf0:    20000098    ...     DCD    536871064
    $t.2
    USBD_Start
        0x00005cf4:    480d        .H      LDR      r0,[pc,#52] ; [0x5d2c] = 0x20000010
        0x00005cf6:    6800        .h      LDR      r0,[r0,#0]
        0x00005cf8:    490d        .I      LDR      r1,[pc,#52] ; [0x5d30] = 0x186a0
        0x00005cfa:    4341        AC      MULS     r1,r0,r1
        0x00005cfc:    480d        .H      LDR      r0,[pc,#52] ; [0x5d34] = 0xe000e010
        0x00005cfe:    6041        A`      STR      r1,[r0,#4]
        0x00005d00:    2100        .!      MOVS     r1,#0
        0x00005d02:    6081        .`      STR      r1,[r0,#8]
        0x00005d04:    2205        ."      MOVS     r2,#5
        0x00005d06:    6002        .`      STR      r2,[r0,#0]
        0x00005d08:    6802        .h      LDR      r2,[r0,#0]
        0x00005d0a:    03d2        ..      LSLS     r2,r2,#15
        0x00005d0c:    d5fc        ..      BPL      0x5d08 ; USBD_Start + 20
        0x00005d0e:    6001        .`      STR      r1,[r0,#0]
        0x00005d10:    4809        .H      LDR      r0,[pc,#36] ; [0x5d38] = 0x40060090
        0x00005d12:    6801        .h      LDR      r1,[r0,#0]
        0x00005d14:    2201        ."      MOVS     r2,#1
        0x00005d16:    4391        .C      BICS     r1,r1,r2
        0x00005d18:    6001        .`      STR      r1,[r0,#0]
        0x00005d1a:    20ff        .       MOVS     r0,#0xff
        0x00005d1c:    3010        .0      ADDS     r0,r0,#0x10
        0x00005d1e:    4907        .I      LDR      r1,[pc,#28] ; [0x5d3c] = 0x40060000
        0x00005d20:    6048        H`      STR      r0,[r1,#4]
        0x00005d22:    680a        .h      LDR      r2,[r1,#0]
        0x00005d24:    4302        .C      ORRS     r2,r2,r0
        0x00005d26:    600a        .`      STR      r2,[r1,#0]
        0x00005d28:    4770        pG      BX       lr
        0x00005d2a:    46c0        .F      MOV      r8,r8
    $d.3
    __arm_cp.1_0
        0x00005d2c:    20000010    ...     DCD    536870928
    __arm_cp.1_1
        0x00005d30:    000186a0    ....    DCD    100000
    __arm_cp.1_2
        0x00005d34:    e000e010    ....    DCD    3758153744
    __arm_cp.1_3
        0x00005d38:    40060090    ...@    DCD    1074135184
    __arm_cp.1_4
        0x00005d3c:    40060000    ...@    DCD    1074135040
    $t.25
    USBD_SwReset
        0x00005d40:    b5b0        ..      PUSH     {r4,r5,r7,lr}
        0x00005d42:    490b        .I      LDR      r1,[pc,#44] ; [0x5d70] = 0x20000218
        0x00005d44:    2000        .       MOVS     r0,#0
        0x00005d46:    6248        Hb      STR      r0,[r1,#0x24]
        0x00005d48:    6388        .c      STR      r0,[r1,#0x38]
        0x00005d4a:    6408        .d      STR      r0,[r1,#0x40]
        0x00005d4c:    6448        Hd      STR      r0,[r1,#0x44]
        0x00005d4e:    6208        .b      STR      r0,[r1,#0x20]
        0x00005d50:    6348        Hc      STR      r0,[r1,#0x34]
        0x00005d52:    6148        Ha      STR      r0,[r1,#0x14]
        0x00005d54:    63c8        .c      STR      r0,[r1,#0x3c]
        0x00005d56:    2208        ."      MOVS     r2,#8
        0x00005d58:    4906        .I      LDR      r1,[pc,#24] ; [0x5d74] = 0x40060008
        0x00005d5a:    2a68        h*      CMP      r2,#0x68
        0x00005d5c:    d006        ..      BEQ      0x5d6c ; USBD_SwReset + 44
        0x00005d5e:    188b        ..      ADDS     r3,r1,r2
        0x00005d60:    699c        .i      LDR      r4,[r3,#0x18]
        0x00005d62:    2580        .%      MOVS     r5,#0x80
        0x00005d64:    43ac        .C      BICS     r4,r4,r5
        0x00005d66:    619c        .a      STR      r4,[r3,#0x18]
        0x00005d68:    3210        .2      ADDS     r2,r2,#0x10
        0x00005d6a:    e7f6        ..      B        0x5d5a ; USBD_SwReset + 26
        0x00005d6c:    6008        .`      STR      r0,[r1,#0]
        0x00005d6e:    bdb0        ..      POP      {r4,r5,r7,pc}
    $d.26
    __arm_cp.11_0
        0x00005d70:    20000218    ...     DCD    536871448
    __arm_cp.11_1
        0x00005d74:    40060008    ...@    DCD    1074135048
    $t.2
    Update_DataFlash_From_Master
        0x00005d78:    b5f8        ..      PUSH     {r3-r7,lr}
        0x00005d7a:    4dc7        .M      LDR      r5,[pc,#796] ; [0x6098] = 0x20000408
        0x00005d7c:    7e68        h~      LDRB     r0,[r5,#0x19]
        0x00005d7e:    2430        0$      MOVS     r4,#0x30
        0x00005d80:    4621        !F      MOV      r1,r4
        0x00005d82:    4341        AC      MULS     r1,r0,r1
        0x00005d84:    4e14        .N      LDR      r6,[pc,#80] ; [0x5dd8] = 0x2000073c
        0x00005d86:    1871        q.      ADDS     r1,r6,r1
        0x00005d88:    784a        Jx      LDRB     r2,[r1,#1]
        0x00005d8a:    7e2f        /~      LDRB     r7,[r5,#0x18]
        0x00005d8c:    073b        ;.      LSLS     r3,r7,#28
        0x00005d8e:    0f9b        ..      LSRS     r3,r3,#30
        0x00005d90:    429a        .B      CMP      r2,r3
        0x00005d92:    d105        ..      BNE      0x5da0 ; Update_DataFlash_From_Master + 40
        0x00005d94:    2303        .#      MOVS     r3,#3
        0x00005d96:    401f        .@      ANDS     r7,r7,r3
        0x00005d98:    788b        .x      LDRB     r3,[r1,#2]
        0x00005d9a:    429f        .B      CMP      r7,r3
        0x00005d9c:    d101        ..      BNE      0x5da2 ; Update_DataFlash_From_Master + 42
        0x00005d9e:    e00b        ..      B        0x5db8 ; Update_DataFlash_From_Master + 64
        0x00005da0:    788b        .x      LDRB     r3,[r1,#2]
        0x00005da2:    0090        ..      LSLS     r0,r2,#2
        0x00005da4:    7809        .x      LDRB     r1,[r1,#0]
        0x00005da6:    010f        ..      LSLS     r7,r1,#4
        0x00005da8:    4307        .C      ORRS     r7,r7,r0
        0x00005daa:    431f        .C      ORRS     r7,r7,r3
        0x00005dac:    b2f9        ..      UXTB     r1,r7
        0x00005dae:    2000        .       MOVS     r0,#0
        0x00005db0:    f7fdf8ac    ....    BL       SIM_EEPROM_WRITE ; 0x2f0c
        0x00005db4:    762f        /v      STRB     r7,[r5,#0x18]
        0x00005db6:    7e68        h~      LDRB     r0,[r5,#0x19]
        0x00005db8:    4344        DC      MULS     r4,r0,r4
        0x00005dba:    1930        0.      ADDS     r0,r6,r4
        0x00005dbc:    7941        Ay      LDRB     r1,[r0,#5]
        0x00005dbe:    7ee8        .~      LDRB     r0,[r5,#0x1b]
        0x00005dc0:    4288        .B      CMP      r0,r1
        0x00005dc2:    d007        ..      BEQ      0x5dd4 ; Update_DataFlash_From_Master + 92
        0x00005dc4:    2403        .$      MOVS     r4,#3
        0x00005dc6:    4620         F      MOV      r0,r4
        0x00005dc8:    f7fdf8a0    ....    BL       SIM_EEPROM_WRITE ; 0x2f0c
        0x00005dcc:    4620         F      MOV      r0,r4
        0x00005dce:    f7fdf88d    ....    BL       SIM_EEPROM_READ ; 0x2eec
        0x00005dd2:    76e8        .v      STRB     r0,[r5,#0x1b]
        0x00005dd4:    bdf8        ..      POP      {r3-r7,pc}
        0x00005dd6:    46c0        .F      MOV      r8,r8
    $d.3
    __arm_cp.1_1
        0x00005dd8:    2000073c    <..     DCD    536872764
    $t.6
    Update_DataFlash_ID_From_PC
        0x00005ddc:    b5f8        ..      PUSH     {r3-r7,lr}
        0x00005dde:    460c        .F      MOV      r4,r1
        0x00005de0:    4605        .F      MOV      r5,r0
        0x00005de2:    4fad        .O      LDR      r7,[pc,#692] ; [0x6098] = 0x20000408
        0x00005de4:    7e38        8~      LDRB     r0,[r7,#0x18]
        0x00005de6:    42a8        .B      CMP      r0,r5
        0x00005de8:    d101        ..      BNE      0x5dee ; Update_DataFlash_ID_From_PC + 18
        0x00005dea:    2500        .%      MOVS     r5,#0
        0x00005dec:    e00b        ..      B        0x5e06 ; Update_DataFlash_ID_From_PC + 42
        0x00005dee:    2600        .&      MOVS     r6,#0
        0x00005df0:    4630        0F      MOV      r0,r6
        0x00005df2:    4629        )F      MOV      r1,r5
        0x00005df4:    f7fdf88a    ....    BL       SIM_EEPROM_WRITE ; 0x2f0c
        0x00005df8:    4630        0F      MOV      r0,r6
        0x00005dfa:    f7fdf877    ..w.    BL       SIM_EEPROM_READ ; 0x2eec
        0x00005dfe:    7638        8v      STRB     r0,[r7,#0x18]
        0x00005e00:    1b45        E.      SUBS     r5,r0,r5
        0x00005e02:    1e68        h.      SUBS     r0,r5,#1
        0x00005e04:    4185        .A      SBCS     r5,r5,r0
        0x00005e06:    7e78        x~      LDRB     r0,[r7,#0x19]
        0x00005e08:    42a0        .B      CMP      r0,r4
        0x00005e0a:    d00b        ..      BEQ      0x5e24 ; Update_DataFlash_ID_From_PC + 72
        0x00005e0c:    2601        .&      MOVS     r6,#1
        0x00005e0e:    4630        0F      MOV      r0,r6
        0x00005e10:    4621        !F      MOV      r1,r4
        0x00005e12:    f7fdf87b    ..{.    BL       SIM_EEPROM_WRITE ; 0x2f0c
        0x00005e16:    4630        0F      MOV      r0,r6
        0x00005e18:    f7fdf868    ..h.    BL       SIM_EEPROM_READ ; 0x2eec
        0x00005e1c:    7678        xv      STRB     r0,[r7,#0x19]
        0x00005e1e:    42a0        .B      CMP      r0,r4
        0x00005e20:    d000        ..      BEQ      0x5e24 ; Update_DataFlash_ID_From_PC + 72
        0x00005e22:    2502        .%      MOVS     r5,#2
        0x00005e24:    4628        (F      MOV      r0,r5
        0x00005e26:    bdf8        ..      POP      {r3-r7,pc}
    Update_DataFlash_InputType_From_PC
        0x00005e28:    b5fe        ..      PUSH     {r1-r7,lr}
        0x00005e2a:    460c        .F      MOV      r4,r1
        0x00005e2c:    4605        .F      MOV      r5,r0
        0x00005e2e:    4f9a        .O      LDR      r7,[pc,#616] ; [0x6098] = 0x20000408
        0x00005e30:    7eb8        .~      LDRB     r0,[r7,#0x1a]
        0x00005e32:    42a8        .B      CMP      r0,r5
        0x00005e34:    d101        ..      BNE      0x5e3a ; Update_DataFlash_InputType_From_PC + 18
        0x00005e36:    2500        .%      MOVS     r5,#0
        0x00005e38:    e00b        ..      B        0x5e52 ; Update_DataFlash_InputType_From_PC + 42
        0x00005e3a:    2602        .&      MOVS     r6,#2
        0x00005e3c:    4630        0F      MOV      r0,r6
        0x00005e3e:    4629        )F      MOV      r1,r5
        0x00005e40:    f7fdf864    ..d.    BL       SIM_EEPROM_WRITE ; 0x2f0c
        0x00005e44:    4630        0F      MOV      r0,r6
        0x00005e46:    f7fdf851    ..Q.    BL       SIM_EEPROM_READ ; 0x2eec
        0x00005e4a:    76b8        .v      STRB     r0,[r7,#0x1a]
        0x00005e4c:    1b45        E.      SUBS     r5,r0,r5
        0x00005e4e:    1e68        h.      SUBS     r0,r5,#1
        0x00005e50:    4185        .A      SBCS     r5,r5,r0
        0x00005e52:    69f8        .i      LDR      r0,[r7,#0x1c]
        0x00005e54:    42a0        .B      CMP      r0,r4
        0x00005e56:    d029        ).      BEQ      0x5eac ; Update_DataFlash_InputType_From_PC + 132
        0x00005e58:    0e21        !.      LSRS     r1,r4,#24
        0x00005e5a:    2004        .       MOVS     r0,#4
        0x00005e5c:    9002        ..      STR      r0,[sp,#8]
        0x00005e5e:    4e14        .N      LDR      r6,[pc,#80] ; [0x5eb0] = 0x2f0d
        0x00005e60:    47b0        .G      BLX      r6
        0x00005e62:    0c20         .      LSRS     r0,r4,#16
        0x00005e64:    b2c1        ..      UXTB     r1,r0
        0x00005e66:    2705        .'      MOVS     r7,#5
        0x00005e68:    4638        8F      MOV      r0,r7
        0x00005e6a:    47b0        .G      BLX      r6
        0x00005e6c:    0a20         .      LSRS     r0,r4,#8
        0x00005e6e:    b2c1        ..      UXTB     r1,r0
        0x00005e70:    2006        .       MOVS     r0,#6
        0x00005e72:    9001        ..      STR      r0,[sp,#4]
        0x00005e74:    47b0        .G      BLX      r6
        0x00005e76:    b2e1        ..      UXTB     r1,r4
        0x00005e78:    2007        .       MOVS     r0,#7
        0x00005e7a:    9000        ..      STR      r0,[sp,#0]
        0x00005e7c:    47b0        .G      BLX      r6
        0x00005e7e:    490d        .I      LDR      r1,[pc,#52] ; [0x5eb4] = 0x2eed
        0x00005e80:    9802        ..      LDR      r0,[sp,#8]
        0x00005e82:    4788        .G      BLX      r1
        0x00005e84:    4606        .F      MOV      r6,r0
        0x00005e86:    4638        8F      MOV      r0,r7
        0x00005e88:    490a        .I      LDR      r1,[pc,#40] ; [0x5eb4] = 0x2eed
        0x00005e8a:    4788        .G      BLX      r1
        0x00005e8c:    0631        1.      LSLS     r1,r6,#24
        0x00005e8e:    0400        ..      LSLS     r0,r0,#16
        0x00005e90:    1846        F.      ADDS     r6,r0,r1
        0x00005e92:    9801        ..      LDR      r0,[sp,#4]
        0x00005e94:    4f07        .O      LDR      r7,[pc,#28] ; [0x5eb4] = 0x2eed
        0x00005e96:    47b8        .G      BLX      r7
        0x00005e98:    0200        ..      LSLS     r0,r0,#8
        0x00005e9a:    1836        6.      ADDS     r6,r6,r0
        0x00005e9c:    9800        ..      LDR      r0,[sp,#0]
        0x00005e9e:    47b8        .G      BLX      r7
        0x00005ea0:    1830        0.      ADDS     r0,r6,r0
        0x00005ea2:    497d        }I      LDR      r1,[pc,#500] ; [0x6098] = 0x20000408
        0x00005ea4:    61c8        .a      STR      r0,[r1,#0x1c]
        0x00005ea6:    42a0        .B      CMP      r0,r4
        0x00005ea8:    d000        ..      BEQ      0x5eac ; Update_DataFlash_InputType_From_PC + 132
        0x00005eaa:    2502        .%      MOVS     r5,#2
        0x00005eac:    4628        (F      MOV      r0,r5
        0x00005eae:    bdfe        ..      POP      {r1-r7,pc}
    $d.5
    __arm_cp.2_1
        0x00005eb0:    00002f0d    ./..    DCD    12045
    __arm_cp.2_2
        0x00005eb4:    00002eed    ....    DCD    12013
    $t.10
    Update_DataFlash_ModbusConfig_From_PC
        0x00005eb8:    b5fe        ..      PUSH     {r1-r7,lr}
        0x00005eba:    461f        .F      MOV      r7,r3
        0x00005ebc:    9201        ..      STR      r2,[sp,#4]
        0x00005ebe:    460d        .F      MOV      r5,r1
        0x00005ec0:    4602        .F      MOV      r2,r0
        0x00005ec2:    2620         &      MOVS     r6,#0x20
        0x00005ec4:    4974        tI      LDR      r1,[pc,#464] ; [0x6098] = 0x20000408
        0x00005ec6:    5d88        .]      LDRB     r0,[r1,r6]
        0x00005ec8:    42a8        .B      CMP      r0,r5
        0x00005eca:    9202        ..      STR      r2,[sp,#8]
        0x00005ecc:    d101        ..      BNE      0x5ed2 ; Update_DataFlash_ModbusConfig_From_PC + 26
        0x00005ece:    2500        .%      MOVS     r5,#0
        0x00005ed0:    e00d        ..      B        0x5eee ; Update_DataFlash_ModbusConfig_From_PC + 54
        0x00005ed2:    2408        .$      MOVS     r4,#8
        0x00005ed4:    4620         F      MOV      r0,r4
        0x00005ed6:    4629        )F      MOV      r1,r5
        0x00005ed8:    f7fdf818    ....    BL       SIM_EEPROM_WRITE ; 0x2f0c
        0x00005edc:    4620         F      MOV      r0,r4
        0x00005ede:    f7fdf805    ....    BL       SIM_EEPROM_READ ; 0x2eec
        0x00005ee2:    9a02        ..      LDR      r2,[sp,#8]
        0x00005ee4:    496c        lI      LDR      r1,[pc,#432] ; [0x6098] = 0x20000408
        0x00005ee6:    5588        .U      STRB     r0,[r1,r6]
        0x00005ee8:    1b45        E.      SUBS     r5,r0,r5
        0x00005eea:    1e68        h.      SUBS     r0,r5,#1
        0x00005eec:    4185        .A      SBCS     r5,r5,r0
        0x00005eee:    2623        #&      MOVS     r6,#0x23
        0x00005ef0:    5d88        .]      LDRB     r0,[r1,r6]
        0x00005ef2:    42b8        .B      CMP      r0,r7
        0x00005ef4:    d00d        ..      BEQ      0x5f12 ; Update_DataFlash_ModbusConfig_From_PC + 90
        0x00005ef6:    240b        .$      MOVS     r4,#0xb
        0x00005ef8:    4620         F      MOV      r0,r4
        0x00005efa:    4639        9F      MOV      r1,r7
        0x00005efc:    f7fdf806    ....    BL       SIM_EEPROM_WRITE ; 0x2f0c
        0x00005f00:    4620         F      MOV      r0,r4
        0x00005f02:    f7fcfff3    ....    BL       SIM_EEPROM_READ ; 0x2eec
        0x00005f06:    4964        dI      LDR      r1,[pc,#400] ; [0x6098] = 0x20000408
        0x00005f08:    5588        .U      STRB     r0,[r1,r6]
        0x00005f0a:    42b8        .B      CMP      r0,r7
        0x00005f0c:    d000        ..      BEQ      0x5f10 ; Update_DataFlash_ModbusConfig_From_PC + 88
        0x00005f0e:    2502        .%      MOVS     r5,#2
        0x00005f10:    9a02        ..      LDR      r2,[sp,#8]
        0x00005f12:    9f08        ..      LDR      r7,[sp,#0x20]
        0x00005f14:    2622        "&      MOVS     r6,#0x22
        0x00005f16:    5d88        .]      LDRB     r0,[r1,r6]
        0x00005f18:    4290        .B      CMP      r0,r2
        0x00005f1a:    d00d        ..      BEQ      0x5f38 ; Update_DataFlash_ModbusConfig_From_PC + 128
        0x00005f1c:    240a        .$      MOVS     r4,#0xa
        0x00005f1e:    4620         F      MOV      r0,r4
        0x00005f20:    4611        .F      MOV      r1,r2
        0x00005f22:    f7fcfff3    ....    BL       SIM_EEPROM_WRITE ; 0x2f0c
        0x00005f26:    4620         F      MOV      r0,r4
        0x00005f28:    f7fcffe0    ....    BL       SIM_EEPROM_READ ; 0x2eec
        0x00005f2c:    495a        ZI      LDR      r1,[pc,#360] ; [0x6098] = 0x20000408
        0x00005f2e:    5588        .U      STRB     r0,[r1,r6]
        0x00005f30:    9a02        ..      LDR      r2,[sp,#8]
        0x00005f32:    4290        .B      CMP      r0,r2
        0x00005f34:    d000        ..      BEQ      0x5f38 ; Update_DataFlash_ModbusConfig_From_PC + 128
        0x00005f36:    2503        .%      MOVS     r5,#3
        0x00005f38:    8c88        ..      LDRH     r0,[r1,#0x24]
        0x00005f3a:    42b8        .B      CMP      r0,r7
        0x00005f3c:    d014        ..      BEQ      0x5f68 ; Update_DataFlash_ModbusConfig_From_PC + 176
        0x00005f3e:    0a39        9.      LSRS     r1,r7,#8
        0x00005f40:    240c        .$      MOVS     r4,#0xc
        0x00005f42:    4620         F      MOV      r0,r4
        0x00005f44:    f7fcffe2    ....    BL       SIM_EEPROM_WRITE ; 0x2f0c
        0x00005f48:    b2f9        ..      UXTB     r1,r7
        0x00005f4a:    260d        .&      MOVS     r6,#0xd
        0x00005f4c:    4630        0F      MOV      r0,r6
        0x00005f4e:    f7fcffdd    ....    BL       SIM_EEPROM_WRITE ; 0x2f0c
        0x00005f52:    4620         F      MOV      r0,r4
        0x00005f54:    f7fcffca    ....    BL       SIM_EEPROM_READ ; 0x2eec
        0x00005f58:    4604        .F      MOV      r4,r0
        0x00005f5a:    4630        0F      MOV      r0,r6
        0x00005f5c:    f7fcffc6    ....    BL       SIM_EEPROM_READ ; 0x2eec
        0x00005f60:    0221        !.      LSLS     r1,r4,#8
        0x00005f62:    1808        ..      ADDS     r0,r1,r0
        0x00005f64:    494c        LI      LDR      r1,[pc,#304] ; [0x6098] = 0x20000408
        0x00005f66:    8488        ..      STRH     r0,[r1,#0x24]
        0x00005f68:    2621        !&      MOVS     r6,#0x21
        0x00005f6a:    5d88        .]      LDRB     r0,[r1,r6]
        0x00005f6c:    9f01        ..      LDR      r7,[sp,#4]
        0x00005f6e:    42b8        .B      CMP      r0,r7
        0x00005f70:    d00e        ..      BEQ      0x5f90 ; Update_DataFlash_ModbusConfig_From_PC + 216
        0x00005f72:    2409        .$      MOVS     r4,#9
        0x00005f74:    4620         F      MOV      r0,r4
        0x00005f76:    9502        ..      STR      r5,[sp,#8]
        0x00005f78:    460d        .F      MOV      r5,r1
        0x00005f7a:    4639        9F      MOV      r1,r7
        0x00005f7c:    f7fcffc6    ....    BL       SIM_EEPROM_WRITE ; 0x2f0c
        0x00005f80:    4620         F      MOV      r0,r4
        0x00005f82:    f7fcffb3    ....    BL       SIM_EEPROM_READ ; 0x2eec
        0x00005f86:    55a8        .U      STRB     r0,[r5,r6]
        0x00005f88:    9d02        ..      LDR      r5,[sp,#8]
        0x00005f8a:    42b8        .B      CMP      r0,r7
        0x00005f8c:    d000        ..      BEQ      0x5f90 ; Update_DataFlash_ModbusConfig_From_PC + 216
        0x00005f8e:    2505        .%      MOVS     r5,#5
        0x00005f90:    4628        (F      MOV      r0,r5
        0x00005f92:    bdfe        ..      POP      {r1-r7,pc}
    Update_DataFlash_RFConfig_From_PC
        0x00005f94:    b5fe        ..      PUSH     {r1-r7,lr}
        0x00005f96:    9301        ..      STR      r3,[sp,#4]
        0x00005f98:    9200        ..      STR      r2,[sp,#0]
        0x00005f9a:    460f        .F      MOV      r7,r1
        0x00005f9c:    4604        .F      MOV      r4,r0
        0x00005f9e:    2626        &&      MOVS     r6,#0x26
        0x00005fa0:    493d        =I      LDR      r1,[pc,#244] ; [0x6098] = 0x20000408
        0x00005fa2:    5d88        .]      LDRB     r0,[r1,r6]
        0x00005fa4:    42a0        .B      CMP      r0,r4
        0x00005fa6:    d102        ..      BNE      0x5fae ; Update_DataFlash_RFConfig_From_PC + 26
        0x00005fa8:    2000        .       MOVS     r0,#0
        0x00005faa:    9002        ..      STR      r0,[sp,#8]
        0x00005fac:    e00d        ..      B        0x5fca ; Update_DataFlash_RFConfig_From_PC + 54
        0x00005fae:    250e        .%      MOVS     r5,#0xe
        0x00005fb0:    4628        (F      MOV      r0,r5
        0x00005fb2:    4621        !F      MOV      r1,r4
        0x00005fb4:    f7fcffaa    ....    BL       SIM_EEPROM_WRITE ; 0x2f0c
        0x00005fb8:    4628        (F      MOV      r0,r5
        0x00005fba:    f7fcff97    ....    BL       SIM_EEPROM_READ ; 0x2eec
        0x00005fbe:    4936        6I      LDR      r1,[pc,#216] ; [0x6098] = 0x20000408
        0x00005fc0:    5588        .U      STRB     r0,[r1,r6]
        0x00005fc2:    1b02        ..      SUBS     r2,r0,r4
        0x00005fc4:    1e50        P.      SUBS     r0,r2,#1
        0x00005fc6:    4182        .A      SBCS     r2,r2,r0
        0x00005fc8:    9202        ..      STR      r2,[sp,#8]
        0x00005fca:    2627        '&      MOVS     r6,#0x27
        0x00005fcc:    5d88        .]      LDRB     r0,[r1,r6]
        0x00005fce:    42b8        .B      CMP      r0,r7
        0x00005fd0:    9c01        ..      LDR      r4,[sp,#4]
        0x00005fd2:    d00d        ..      BEQ      0x5ff0 ; Update_DataFlash_RFConfig_From_PC + 92
        0x00005fd4:    250f        .%      MOVS     r5,#0xf
        0x00005fd6:    4628        (F      MOV      r0,r5
        0x00005fd8:    4639        9F      MOV      r1,r7
        0x00005fda:    f7fcff97    ....    BL       SIM_EEPROM_WRITE ; 0x2f0c
        0x00005fde:    4628        (F      MOV      r0,r5
        0x00005fe0:    f7fcff84    ....    BL       SIM_EEPROM_READ ; 0x2eec
        0x00005fe4:    492c        ,I      LDR      r1,[pc,#176] ; [0x6098] = 0x20000408
        0x00005fe6:    5588        .U      STRB     r0,[r1,r6]
        0x00005fe8:    42b8        .B      CMP      r0,r7
        0x00005fea:    d001        ..      BEQ      0x5ff0 ; Update_DataFlash_RFConfig_From_PC + 92
        0x00005fec:    2002        .       MOVS     r0,#2
        0x00005fee:    9002        ..      STR      r0,[sp,#8]
        0x00005ff0:    9f00        ..      LDR      r7,[sp,#0]
        0x00005ff2:    2628        (&      MOVS     r6,#0x28
        0x00005ff4:    5d88        .]      LDRB     r0,[r1,r6]
        0x00005ff6:    42b8        .B      CMP      r0,r7
        0x00005ff8:    d00d        ..      BEQ      0x6016 ; Update_DataFlash_RFConfig_From_PC + 130
        0x00005ffa:    2510        .%      MOVS     r5,#0x10
        0x00005ffc:    4628        (F      MOV      r0,r5
        0x00005ffe:    4639        9F      MOV      r1,r7
        0x00006000:    f7fcff84    ....    BL       SIM_EEPROM_WRITE ; 0x2f0c
        0x00006004:    4628        (F      MOV      r0,r5
        0x00006006:    f7fcff71    ..q.    BL       SIM_EEPROM_READ ; 0x2eec
        0x0000600a:    4923        #I      LDR      r1,[pc,#140] ; [0x6098] = 0x20000408
        0x0000600c:    5588        .U      STRB     r0,[r1,r6]
        0x0000600e:    42b8        .B      CMP      r0,r7
        0x00006010:    d001        ..      BEQ      0x6016 ; Update_DataFlash_RFConfig_From_PC + 130
        0x00006012:    2003        .       MOVS     r0,#3
        0x00006014:    9002        ..      STR      r0,[sp,#8]
        0x00006016:    9e08        ..      LDR      r6,[sp,#0x20]
        0x00006018:    2729        )'      MOVS     r7,#0x29
        0x0000601a:    5dc8        .]      LDRB     r0,[r1,r7]
        0x0000601c:    42a0        .B      CMP      r0,r4
        0x0000601e:    d00d        ..      BEQ      0x603c ; Update_DataFlash_RFConfig_From_PC + 168
        0x00006020:    2511        .%      MOVS     r5,#0x11
        0x00006022:    4628        (F      MOV      r0,r5
        0x00006024:    4621        !F      MOV      r1,r4
        0x00006026:    f7fcff71    ..q.    BL       SIM_EEPROM_WRITE ; 0x2f0c
        0x0000602a:    4628        (F      MOV      r0,r5
        0x0000602c:    f7fcff5e    ..^.    BL       SIM_EEPROM_READ ; 0x2eec
        0x00006030:    4919        .I      LDR      r1,[pc,#100] ; [0x6098] = 0x20000408
        0x00006032:    55c8        .U      STRB     r0,[r1,r7]
        0x00006034:    42a0        .B      CMP      r0,r4
        0x00006036:    d001        ..      BEQ      0x603c ; Update_DataFlash_RFConfig_From_PC + 168
        0x00006038:    2004        .       MOVS     r0,#4
        0x0000603a:    9002        ..      STR      r0,[sp,#8]
        0x0000603c:    9f09        ..      LDR      r7,[sp,#0x24]
        0x0000603e:    242a        *$      MOVS     r4,#0x2a
        0x00006040:    5d08        .]      LDRB     r0,[r1,r4]
        0x00006042:    42b0        .B      CMP      r0,r6
        0x00006044:    d00d        ..      BEQ      0x6062 ; Update_DataFlash_RFConfig_From_PC + 206
        0x00006046:    2512        .%      MOVS     r5,#0x12
        0x00006048:    4628        (F      MOV      r0,r5
        0x0000604a:    4631        1F      MOV      r1,r6
        0x0000604c:    f7fcff5e    ..^.    BL       SIM_EEPROM_WRITE ; 0x2f0c
        0x00006050:    4628        (F      MOV      r0,r5
        0x00006052:    f7fcff4b    ..K.    BL       SIM_EEPROM_READ ; 0x2eec
        0x00006056:    4910        .I      LDR      r1,[pc,#64] ; [0x6098] = 0x20000408
        0x00006058:    5508        .U      STRB     r0,[r1,r4]
        0x0000605a:    42b0        .B      CMP      r0,r6
        0x0000605c:    d001        ..      BEQ      0x6062 ; Update_DataFlash_RFConfig_From_PC + 206
        0x0000605e:    2005        .       MOVS     r0,#5
        0x00006060:    9002        ..      STR      r0,[sp,#8]
        0x00006062:    8d88        ..      LDRH     r0,[r1,#0x2c]
        0x00006064:    42b8        .B      CMP      r0,r7
        0x00006066:    d014        ..      BEQ      0x6092 ; Update_DataFlash_RFConfig_From_PC + 254
        0x00006068:    460c        .F      MOV      r4,r1
        0x0000606a:    0a39        9.      LSRS     r1,r7,#8
        0x0000606c:    2513        .%      MOVS     r5,#0x13
        0x0000606e:    4628        (F      MOV      r0,r5
        0x00006070:    f7fcff4c    ..L.    BL       SIM_EEPROM_WRITE ; 0x2f0c
        0x00006074:    b2f9        ..      UXTB     r1,r7
        0x00006076:    2614        .&      MOVS     r6,#0x14
        0x00006078:    4630        0F      MOV      r0,r6
        0x0000607a:    f7fcff47    ..G.    BL       SIM_EEPROM_WRITE ; 0x2f0c
        0x0000607e:    4628        (F      MOV      r0,r5
        0x00006080:    f7fcff34    ..4.    BL       SIM_EEPROM_READ ; 0x2eec
        0x00006084:    4605        .F      MOV      r5,r0
        0x00006086:    4630        0F      MOV      r0,r6
        0x00006088:    f7fcff30    ..0.    BL       SIM_EEPROM_READ ; 0x2eec
        0x0000608c:    0229        ).      LSLS     r1,r5,#8
        0x0000608e:    1808        ..      ADDS     r0,r1,r0
        0x00006090:    85a0        ..      STRH     r0,[r4,#0x2c]
        0x00006092:    9802        ..      LDR      r0,[sp,#8]
        0x00006094:    bdfe        ..      POP      {r1-r7,pc}
        0x00006096:    46c0        .F      MOV      r8,r8
    $d.9
    __arm_cp.4_0
        0x00006098:    20000408    ...     DCD    536871944
    $t.0
    UseModbus
        0x0000609c:    b5e0        ..      PUSH     {r5-r7,lr}
        0x0000609e:    2000        .       MOVS     r0,#0
        0x000060a0:    9000        ..      STR      r0,[sp,#0]
        0x000060a2:    21e1        .!      MOVS     r1,#0xe1
        0x000060a4:    024b        K.      LSLS     r3,r1,#9
        0x000060a6:    2101        .!      MOVS     r1,#1
        0x000060a8:    4602        .F      MOV      r2,r0
        0x000060aa:    f000fa4f    ..O.    BL       eMBInit ; 0x654c
        0x000060ae:    2800        .(      CMP      r0,#0
        0x000060b0:    d000        ..      BEQ      0x60b4 ; UseModbus + 24
        0x000060b2:    bd8c        ..      POP      {r2,r3,r7,pc}
        0x000060b4:    2001        .       MOVS     r0,#1
        0x000060b6:    4a05        .J      LDR      r2,[pc,#20] ; [0x60cc] = 0x791a
        0x000060b8:    2303        .#      MOVS     r3,#3
        0x000060ba:    4601        .F      MOV      r1,r0
        0x000060bc:    f000fc04    ....    BL       eMBSetSlaveID ; 0x68c8
        0x000060c0:    2800        .(      CMP      r0,#0
        0x000060c2:    d1f6        ..      BNE      0x60b2 ; UseModbus + 22
        0x000060c4:    f000f87c    ..|.    BL       eMBEnable ; 0x61c0
        0x000060c8:    bd8c        ..      POP      {r2,r3,r7,pc}
        0x000060ca:    46c0        .F      MOV      r8,r8
    $d.1
    __arm_cp.0_0
        0x000060cc:    0000791a    .y..    DCD    31002
    $t.0
    WDT_IRQHandler
        0x000060d0:    b510        ..      PUSH     {r4,lr}
        0x000060d2:    4c13        .L      LDR      r4,[pc,#76] ; [0x6120] = 0x200001a8
        0x000060d4:    6821        !h      LDR      r1,[r4,#0]
        0x000060d6:    4813        .H      LDR      r0,[pc,#76] ; [0x6124] = 0x40004000
        0x000060d8:    2900        .)      CMP      r1,#0
        0x000060da:    d105        ..      BNE      0x60e8 ; WDT_IRQHandler + 24
        0x000060dc:    6801        .h      LDR      r1,[r0,#0]
        0x000060de:    2201        ."      MOVS     r2,#1
        0x000060e0:    430a        .C      ORRS     r2,r2,r1
        0x000060e2:    212c        ,!      MOVS     r1,#0x2c
        0x000060e4:    438a        .C      BICS     r2,r2,r1
        0x000060e6:    6002        .`      STR      r2,[r0,#0]
        0x000060e8:    6801        .h      LDR      r1,[r0,#0]
        0x000060ea:    0709        ..      LSLS     r1,r1,#28
        0x000060ec:    d508        ..      BPL      0x6100 ; WDT_IRQHandler + 48
        0x000060ee:    6801        .h      LDR      r1,[r0,#0]
        0x000060f0:    2208        ."      MOVS     r2,#8
        0x000060f2:    430a        .C      ORRS     r2,r2,r1
        0x000060f4:    2124        $!      MOVS     r1,#0x24
        0x000060f6:    438a        .C      BICS     r2,r2,r1
        0x000060f8:    6002        .`      STR      r2,[r0,#0]
        0x000060fa:    6821        !h      LDR      r1,[r4,#0]
        0x000060fc:    1c49        I.      ADDS     r1,r1,#1
        0x000060fe:    6021        !`      STR      r1,[r4,#0]
        0x00006100:    6801        .h      LDR      r1,[r0,#0]
        0x00006102:    0689        ..      LSLS     r1,r1,#26
        0x00006104:    d50a        ..      BPL      0x611c ; WDT_IRQHandler + 76
        0x00006106:    6801        .h      LDR      r1,[r0,#0]
        0x00006108:    2220         "      MOVS     r2,#0x20
        0x0000610a:    430a        .C      ORRS     r2,r2,r1
        0x0000610c:    210c        .!      MOVS     r1,#0xc
        0x0000610e:    438a        .C      BICS     r2,r2,r1
        0x00006110:    6002        .`      STR      r2,[r0,#0]
        0x00006112:    a005        ..      ADR      r0,{pc}+0x16 ; 0x6128
        0x00006114:    f001f890    ....    BL       puts ; 0x7238
        0x00006118:    2001        .       MOVS     r0,#1
        0x0000611a:    6060        ``      STR      r0,[r4,#4]
        0x0000611c:    bd10        ..      POP      {r4,pc}
        0x0000611e:    46c0        .F      MOV      r8,r8
    $d.1
    __arm_cp.0_0
        0x00006120:    200001a8    ...     DCD    536871336
    __arm_cp.0_1
        0x00006124:    40004000    .@.@    DCD    1073758208
        0x00006128:    54445720     WDT    DCD    1413764896
        0x0000612c:    6b615720     Wak    DCD    1801541408
        0x00006130:    70552065    e Up    DCD    1884627045
        0x00006134:    21212121    !!!!    DCD    555819297
        0x00006138:    00000020     ...    DCD    32
    $t.0
    WDT_Open
        0x0000613c:    b510        ..      PUSH     {r4,lr}
        0x0000613e:    4c05        .L      LDR      r4,[pc,#20] ; [0x6154] = 0x40004000
        0x00006140:    6061        a`      STR      r1,[r4,#4]
        0x00006142:    0051        Q.      LSLS     r1,r2,#1
        0x00006144:    4301        .C      ORRS     r1,r1,r0
        0x00006146:    0118        ..      LSLS     r0,r3,#4
        0x00006148:    4308        .C      ORRS     r0,r0,r1
        0x0000614a:    2180        .!      MOVS     r1,#0x80
        0x0000614c:    4301        .C      ORRS     r1,r1,r0
        0x0000614e:    6021        !`      STR      r1,[r4,#0]
        0x00006150:    bd10        ..      POP      {r4,pc}
        0x00006152:    46c0        .F      MOV      r8,r8
    $d.1
    __arm_cp.0_0
        0x00006154:    40004000    .@.@    DCD    1073758208
    $t.12
    XorWithIv
        0x00006158:    b510        ..      PUSH     {r4,lr}
        0x0000615a:    2200        ."      MOVS     r2,#0
        0x0000615c:    2a10        .*      CMP      r2,#0x10
        0x0000615e:    d005        ..      BEQ      0x616c ; XorWithIv + 20
        0x00006160:    5c8b        .\      LDRB     r3,[r1,r2]
        0x00006162:    5c84        .\      LDRB     r4,[r0,r2]
        0x00006164:    405c        \@      EORS     r4,r4,r3
        0x00006166:    5484        .T      STRB     r4,[r0,r2]
        0x00006168:    1c52        R.      ADDS     r2,r2,#1
        0x0000616a:    e7f7        ..      B        0x615c ; XorWithIv + 4
        0x0000616c:    bd10        ..      POP      {r4,pc}
        0x0000616e:    0000        ..      MOVS     r0,r0
    crc16
        0x00006170:    b5b0        ..      PUSH     {r4,r5,r7,lr}
        0x00006172:    4b0a        .K      LDR      r3,[pc,#40] ; [0x619c] = 0xffff
        0x00006174:    4a11        .J      LDR      r2,[pc,#68] ; [0x61bc] = 0xa001
        0x00006176:    2900        .)      CMP      r1,#0
        0x00006178:    d00e        ..      BEQ      0x6198 ; crc16 + 40
        0x0000617a:    1e49        I.      SUBS     r1,r1,#1
        0x0000617c:    7804        .x      LDRB     r4,[r0,#0]
        0x0000617e:    4063        c@      EORS     r3,r3,r4
        0x00006180:    2408        .$      MOVS     r4,#8
        0x00006182:    2c00        .,      CMP      r4,#0
        0x00006184:    d006        ..      BEQ      0x6194 ; crc16 + 36
        0x00006186:    085d        ].      LSRS     r5,r3,#1
        0x00006188:    07db        ..      LSLS     r3,r3,#31
        0x0000618a:    d000        ..      BEQ      0x618e ; crc16 + 30
        0x0000618c:    4055        U@      EORS     r5,r5,r2
        0x0000618e:    462b        +F      MOV      r3,r5
        0x00006190:    1e64        d.      SUBS     r4,r4,#1
        0x00006192:    e7f6        ..      B        0x6182 ; crc16 + 18
        0x00006194:    1c40        @.      ADDS     r0,r0,#1
        0x00006196:    e7ee        ..      B        0x6176 ; crc16 + 6
        0x00006198:    b298        ..      UXTH     r0,r3
        0x0000619a:    bdb0        ..      POP      {r4,r5,r7,pc}
    $d.5
    __arm_cp.2_0
        0x0000619c:    0000ffff    ....    DCD    65535
    $t.28
    crc16_update
        0x000061a0:    4048        H@      EORS     r0,r0,r1
        0x000061a2:    2108        .!      MOVS     r1,#8
        0x000061a4:    4a05        .J      LDR      r2,[pc,#20] ; [0x61bc] = 0xa001
        0x000061a6:    2900        .)      CMP      r1,#0
        0x000061a8:    d006        ..      BEQ      0x61b8 ; crc16_update + 24
        0x000061aa:    0843        C.      LSRS     r3,r0,#1
        0x000061ac:    07c0        ..      LSLS     r0,r0,#31
        0x000061ae:    d000        ..      BEQ      0x61b2 ; crc16_update + 18
        0x000061b0:    4053        S@      EORS     r3,r3,r2
        0x000061b2:    4618        .F      MOV      r0,r3
        0x000061b4:    1e49        I.      SUBS     r1,r1,#1
        0x000061b6:    e7f6        ..      B        0x61a6 ; crc16_update + 6
        0x000061b8:    b280        ..      UXTH     r0,r0
        0x000061ba:    4770        pG      BX       lr
    $d.29
    __arm_cp.14_0
        0x000061bc:    0000a001    ....    DCD    40961
    $t.6
    eMBEnable
        0x000061c0:    b510        ..      PUSH     {r4,lr}
        0x000061c2:    4cf9        .L      LDR      r4,[pc,#996] ; [0x65a8] = 0x20000094
        0x000061c4:    7820         x      LDRB     r0,[r4,#0]
        0x000061c6:    2801        .(      CMP      r0,#1
        0x000061c8:    d104        ..      BNE      0x61d4 ; eMBEnable + 20
        0x000061ca:    f000fab5    ....    BL       eMBRTUStart ; 0x6738
        0x000061ce:    2000        .       MOVS     r0,#0
        0x000061d0:    7020         p      STRB     r0,[r4,#0]
        0x000061d2:    bd10        ..      POP      {r4,pc}
        0x000061d4:    2006        .       MOVS     r0,#6
        0x000061d6:    bd10        ..      POP      {r4,pc}
    eMBFuncReadCoils
        0x000061d8:    b5f8        ..      PUSH     {r3-r7,lr}
        0x000061da:    460d        .F      MOV      r5,r1
        0x000061dc:    8809        ..      LDRH     r1,[r1,#0]
        0x000061de:    2403        .$      MOVS     r4,#3
        0x000061e0:    2905        .)      CMP      r1,#5
        0x000061e2:    d12d        -.      BNE      0x6240 ; eMBFuncReadCoils + 104
        0x000061e4:    7902        .y      LDRB     r2,[r0,#4]
        0x000061e6:    78c1        .x      LDRB     r1,[r0,#3]
        0x000061e8:    0209        ..      LSLS     r1,r1,#8
        0x000061ea:    188e        ..      ADDS     r6,r1,r2
        0x000061ec:    1e71        q.      SUBS     r1,r6,#1
        0x000061ee:    b289        ..      UXTH     r1,r1
        0x000061f0:    4b2f        /K      LDR      r3,[pc,#188] ; [0x62b0] = 0x7ce
        0x000061f2:    4299        .B      CMP      r1,r3
        0x000061f4:    d824        $.      BHI      0x6240 ; eMBFuncReadCoils + 104
        0x000061f6:    7881        .x      LDRB     r1,[r0,#2]
        0x000061f8:    7843        Cx      LDRB     r3,[r0,#1]
        0x000061fa:    2400        .$      MOVS     r4,#0
        0x000061fc:    802c        ,.      STRH     r4,[r5,#0]
        0x000061fe:    2701        .'      MOVS     r7,#1
        0x00006200:    7007        .p      STRB     r7,[r0,#0]
        0x00006202:    882f        /.      LDRH     r7,[r5,#0]
        0x00006204:    1c7f        ..      ADDS     r7,r7,#1
        0x00006206:    802f        /.      STRH     r7,[r5,#0]
        0x00006208:    0757        W.      LSLS     r7,r2,#29
        0x0000620a:    b2b2        ..      UXTH     r2,r6
        0x0000620c:    08d6        ..      LSRS     r6,r2,#3
        0x0000620e:    2f00        ./      CMP      r7,#0
        0x00006210:    d000        ..      BEQ      0x6214 ; eMBFuncReadCoils + 60
        0x00006212:    1c76        v.      ADDS     r6,r6,#1
        0x00006214:    7046        Fp      STRB     r6,[r0,#1]
        0x00006216:    882f        /.      LDRH     r7,[r5,#0]
        0x00006218:    1c7f        ..      ADDS     r7,r7,#1
        0x0000621a:    802f        /.      STRH     r7,[r5,#0]
        0x0000621c:    021b        ..      LSLS     r3,r3,#8
        0x0000621e:    1859        Y.      ADDS     r1,r3,r1
        0x00006220:    1c49        I.      ADDS     r1,r1,#1
        0x00006222:    b289        ..      UXTH     r1,r1
        0x00006224:    1c80        ..      ADDS     r0,r0,#2
        0x00006226:    4623        #F      MOV      r3,r4
        0x00006228:    f000fa94    ....    BL       eMBRegCoilsCB ; 0x6754
        0x0000622c:    2800        .(      CMP      r0,#0
        0x0000622e:    d003        ..      BEQ      0x6238 ; eMBFuncReadCoils + 96
        0x00006230:    f000fb9e    ....    BL       prveMBError2Exception ; 0x6970
        0x00006234:    4604        .F      MOV      r4,r0
        0x00006236:    e003        ..      B        0x6240 ; eMBFuncReadCoils + 104
        0x00006238:    b2f0        ..      UXTB     r0,r6
        0x0000623a:    8829        ).      LDRH     r1,[r5,#0]
        0x0000623c:    1808        ..      ADDS     r0,r1,r0
        0x0000623e:    8028        (.      STRH     r0,[r5,#0]
        0x00006240:    4620         F      MOV      r0,r4
        0x00006242:    bdf8        ..      POP      {r3-r7,pc}
    eMBFuncReadDiscreteInputs
        0x00006244:    b5f8        ..      PUSH     {r3-r7,lr}
        0x00006246:    460d        .F      MOV      r5,r1
        0x00006248:    8809        ..      LDRH     r1,[r1,#0]
        0x0000624a:    2403        .$      MOVS     r4,#3
        0x0000624c:    2905        .)      CMP      r1,#5
        0x0000624e:    d12c        ,.      BNE      0x62aa ; eMBFuncReadDiscreteInputs + 102
        0x00006250:    7902        .y      LDRB     r2,[r0,#4]
        0x00006252:    78c1        .x      LDRB     r1,[r0,#3]
        0x00006254:    0209        ..      LSLS     r1,r1,#8
        0x00006256:    188e        ..      ADDS     r6,r1,r2
        0x00006258:    1e71        q.      SUBS     r1,r6,#1
        0x0000625a:    b289        ..      UXTH     r1,r1
        0x0000625c:    4b14        .K      LDR      r3,[pc,#80] ; [0x62b0] = 0x7ce
        0x0000625e:    4299        .B      CMP      r1,r3
        0x00006260:    d823        #.      BHI      0x62aa ; eMBFuncReadDiscreteInputs + 102
        0x00006262:    7881        .x      LDRB     r1,[r0,#2]
        0x00006264:    7843        Cx      LDRB     r3,[r0,#1]
        0x00006266:    2400        .$      MOVS     r4,#0
        0x00006268:    802c        ,.      STRH     r4,[r5,#0]
        0x0000626a:    2702        .'      MOVS     r7,#2
        0x0000626c:    7007        .p      STRB     r7,[r0,#0]
        0x0000626e:    882f        /.      LDRH     r7,[r5,#0]
        0x00006270:    1c7f        ..      ADDS     r7,r7,#1
        0x00006272:    802f        /.      STRH     r7,[r5,#0]
        0x00006274:    0757        W.      LSLS     r7,r2,#29
        0x00006276:    b2b2        ..      UXTH     r2,r6
        0x00006278:    08d6        ..      LSRS     r6,r2,#3
        0x0000627a:    2f00        ./      CMP      r7,#0
        0x0000627c:    d000        ..      BEQ      0x6280 ; eMBFuncReadDiscreteInputs + 60
        0x0000627e:    1c76        v.      ADDS     r6,r6,#1
        0x00006280:    7046        Fp      STRB     r6,[r0,#1]
        0x00006282:    882f        /.      LDRH     r7,[r5,#0]
        0x00006284:    1c7f        ..      ADDS     r7,r7,#1
        0x00006286:    802f        /.      STRH     r7,[r5,#0]
        0x00006288:    021b        ..      LSLS     r3,r3,#8
        0x0000628a:    1859        Y.      ADDS     r1,r3,r1
        0x0000628c:    1c49        I.      ADDS     r1,r1,#1
        0x0000628e:    b289        ..      UXTH     r1,r1
        0x00006290:    1c80        ..      ADDS     r0,r0,#2
        0x00006292:    f000fa9d    ....    BL       eMBRegDiscreteCB ; 0x67d0
        0x00006296:    2800        .(      CMP      r0,#0
        0x00006298:    d003        ..      BEQ      0x62a2 ; eMBFuncReadDiscreteInputs + 94
        0x0000629a:    f000fb69    ..i.    BL       prveMBError2Exception ; 0x6970
        0x0000629e:    4604        .F      MOV      r4,r0
        0x000062a0:    e003        ..      B        0x62aa ; eMBFuncReadDiscreteInputs + 102
        0x000062a2:    b2f0        ..      UXTB     r0,r6
        0x000062a4:    8829        ).      LDRH     r1,[r5,#0]
        0x000062a6:    1808        ..      ADDS     r0,r1,r0
        0x000062a8:    8028        (.      STRH     r0,[r5,#0]
        0x000062aa:    4620         F      MOV      r0,r4
        0x000062ac:    bdf8        ..      POP      {r3-r7,pc}
        0x000062ae:    46c0        .F      MOV      r8,r8
    $d.1
    __arm_cp.0_0
        0x000062b0:    000007ce    ....    DCD    1998
    $t.2
    eMBFuncReadHoldingRegister
        0x000062b4:    b5f8        ..      PUSH     {r3-r7,lr}
        0x000062b6:    460d        .F      MOV      r5,r1
        0x000062b8:    8809        ..      LDRH     r1,[r1,#0]
        0x000062ba:    2403        .$      MOVS     r4,#3
        0x000062bc:    2905        .)      CMP      r1,#5
        0x000062be:    d123        #.      BNE      0x6308 ; eMBFuncReadHoldingRegister + 84
        0x000062c0:    7902        .y      LDRB     r2,[r0,#4]
        0x000062c2:    1e51        Q.      SUBS     r1,r2,#1
        0x000062c4:    297c        |)      CMP      r1,#0x7c
        0x000062c6:    d81f        ..      BHI      0x6308 ; eMBFuncReadHoldingRegister + 84
        0x000062c8:    7881        .x      LDRB     r1,[r0,#2]
        0x000062ca:    7843        Cx      LDRB     r3,[r0,#1]
        0x000062cc:    2400        .$      MOVS     r4,#0
        0x000062ce:    802c        ,.      STRH     r4,[r5,#0]
        0x000062d0:    2603        .&      MOVS     r6,#3
        0x000062d2:    7006        .p      STRB     r6,[r0,#0]
        0x000062d4:    882e        ..      LDRH     r6,[r5,#0]
        0x000062d6:    1c76        v.      ADDS     r6,r6,#1
        0x000062d8:    802e        ..      STRH     r6,[r5,#0]
        0x000062da:    0056        V.      LSLS     r6,r2,#1
        0x000062dc:    7046        Fp      STRB     r6,[r0,#1]
        0x000062de:    882f        /.      LDRH     r7,[r5,#0]
        0x000062e0:    1c7f        ..      ADDS     r7,r7,#1
        0x000062e2:    802f        /.      STRH     r7,[r5,#0]
        0x000062e4:    021b        ..      LSLS     r3,r3,#8
        0x000062e6:    1859        Y.      ADDS     r1,r3,r1
        0x000062e8:    1c49        I.      ADDS     r1,r1,#1
        0x000062ea:    b289        ..      UXTH     r1,r1
        0x000062ec:    1c80        ..      ADDS     r0,r0,#2
        0x000062ee:    4623        #F      MOV      r3,r4
        0x000062f0:    f000fa96    ....    BL       eMBRegHoldingCB ; 0x6820
        0x000062f4:    2800        .(      CMP      r0,#0
        0x000062f6:    d003        ..      BEQ      0x6300 ; eMBFuncReadHoldingRegister + 76
        0x000062f8:    f000fb3a    ..:.    BL       prveMBError2Exception ; 0x6970
        0x000062fc:    4604        .F      MOV      r4,r0
        0x000062fe:    e003        ..      B        0x6308 ; eMBFuncReadHoldingRegister + 84
        0x00006300:    b2f0        ..      UXTB     r0,r6
        0x00006302:    8829        ).      LDRH     r1,[r5,#0]
        0x00006304:    1808        ..      ADDS     r0,r1,r0
        0x00006306:    8028        (.      STRH     r0,[r5,#0]
        0x00006308:    4620         F      MOV      r0,r4
        0x0000630a:    bdf8        ..      POP      {r3-r7,pc}
    eMBFuncReadInputRegister
        0x0000630c:    b5f8        ..      PUSH     {r3-r7,lr}
        0x0000630e:    460d        .F      MOV      r5,r1
        0x00006310:    8809        ..      LDRH     r1,[r1,#0]
        0x00006312:    2403        .$      MOVS     r4,#3
        0x00006314:    2905        .)      CMP      r1,#5
        0x00006316:    d126        &.      BNE      0x6366 ; eMBFuncReadInputRegister + 90
        0x00006318:    7901        .y      LDRB     r1,[r0,#4]
        0x0000631a:    78c2        .x      LDRB     r2,[r0,#3]
        0x0000631c:    0212        ..      LSLS     r2,r2,#8
        0x0000631e:    1852        R.      ADDS     r2,r2,r1
        0x00006320:    1e51        Q.      SUBS     r1,r2,#1
        0x00006322:    b289        ..      UXTH     r1,r1
        0x00006324:    297b        {)      CMP      r1,#0x7b
        0x00006326:    d81e        ..      BHI      0x6366 ; eMBFuncReadInputRegister + 90
        0x00006328:    7881        .x      LDRB     r1,[r0,#2]
        0x0000632a:    7843        Cx      LDRB     r3,[r0,#1]
        0x0000632c:    2400        .$      MOVS     r4,#0
        0x0000632e:    802c        ,.      STRH     r4,[r5,#0]
        0x00006330:    2604        .&      MOVS     r6,#4
        0x00006332:    7006        .p      STRB     r6,[r0,#0]
        0x00006334:    882e        ..      LDRH     r6,[r5,#0]
        0x00006336:    1c76        v.      ADDS     r6,r6,#1
        0x00006338:    802e        ..      STRH     r6,[r5,#0]
        0x0000633a:    0056        V.      LSLS     r6,r2,#1
        0x0000633c:    7046        Fp      STRB     r6,[r0,#1]
        0x0000633e:    882f        /.      LDRH     r7,[r5,#0]
        0x00006340:    1c7f        ..      ADDS     r7,r7,#1
        0x00006342:    802f        /.      STRH     r7,[r5,#0]
        0x00006344:    021b        ..      LSLS     r3,r3,#8
        0x00006346:    1859        Y.      ADDS     r1,r3,r1
        0x00006348:    1c49        I.      ADDS     r1,r1,#1
        0x0000634a:    b289        ..      UXTH     r1,r1
        0x0000634c:    1c80        ..      ADDS     r0,r0,#2
        0x0000634e:    b292        ..      UXTH     r2,r2
        0x00006350:    f000fa9a    ....    BL       eMBRegInputCB ; 0x6888
        0x00006354:    2800        .(      CMP      r0,#0
        0x00006356:    d003        ..      BEQ      0x6360 ; eMBFuncReadInputRegister + 84
        0x00006358:    f000fb0a    ....    BL       prveMBError2Exception ; 0x6970
        0x0000635c:    4604        .F      MOV      r4,r0
        0x0000635e:    e002        ..      B        0x6366 ; eMBFuncReadInputRegister + 90
        0x00006360:    8828        (.      LDRH     r0,[r5,#0]
        0x00006362:    1980        ..      ADDS     r0,r0,r6
        0x00006364:    8028        (.      STRH     r0,[r5,#0]
        0x00006366:    4620         F      MOV      r0,r4
        0x00006368:    bdf8        ..      POP      {r3-r7,pc}
    eMBFuncReadWriteMultipleHoldingRegister
        0x0000636a:    b5f8        ..      PUSH     {r3-r7,lr}
        0x0000636c:    4605        .F      MOV      r5,r0
        0x0000636e:    8808        ..      LDRH     r0,[r1,#0]
        0x00006370:    280a        .(      CMP      r0,#0xa
        0x00006372:    d342        B.      BCC      0x63fa ; eMBFuncReadWriteMultipleHoldingRegister + 144
        0x00006374:    460c        .F      MOV      r4,r1
        0x00006376:    7928        (y      LDRB     r0,[r5,#4]
        0x00006378:    78e9        .x      LDRB     r1,[r5,#3]
        0x0000637a:    0209        ..      LSLS     r1,r1,#8
        0x0000637c:    180f        ..      ADDS     r7,r1,r0
        0x0000637e:    1e78        x.      SUBS     r0,r7,#1
        0x00006380:    b280        ..      UXTH     r0,r0
        0x00006382:    2603        .&      MOVS     r6,#3
        0x00006384:    287c        |(      CMP      r0,#0x7c
        0x00006386:    d839        9.      BHI      0x63fc ; eMBFuncReadWriteMultipleHoldingRegister + 146
        0x00006388:    7a28        (z      LDRB     r0,[r5,#8]
        0x0000638a:    79e9        .y      LDRB     r1,[r5,#7]
        0x0000638c:    0209        ..      LSLS     r1,r1,#8
        0x0000638e:    1808        ..      ADDS     r0,r1,r0
        0x00006390:    0401        ..      LSLS     r1,r0,#16
        0x00006392:    d033        3.      BEQ      0x63fc ; eMBFuncReadWriteMultipleHoldingRegister + 146
        0x00006394:    b282        ..      UXTH     r2,r0
        0x00006396:    2a79        y*      CMP      r2,#0x79
        0x00006398:    d830        0.      BHI      0x63fc ; eMBFuncReadWriteMultipleHoldingRegister + 146
        0x0000639a:    7a68        hz      LDRB     r0,[r5,#9]
        0x0000639c:    0051        Q.      LSLS     r1,r2,#1
        0x0000639e:    4288        .B      CMP      r0,r1
        0x000063a0:    d12c        ,.      BNE      0x63fc ; eMBFuncReadWriteMultipleHoldingRegister + 146
        0x000063a2:    79a8        .y      LDRB     r0,[r5,#6]
        0x000063a4:    7969        iy      LDRB     r1,[r5,#5]
        0x000063a6:    0209        ..      LSLS     r1,r1,#8
        0x000063a8:    1808        ..      ADDS     r0,r1,r0
        0x000063aa:    1c41        A.      ADDS     r1,r0,#1
        0x000063ac:    78a8        .x      LDRB     r0,[r5,#2]
        0x000063ae:    9000        ..      STR      r0,[sp,#0]
        0x000063b0:    786e        nx      LDRB     r6,[r5,#1]
        0x000063b2:    4628        (F      MOV      r0,r5
        0x000063b4:    300a        .0      ADDS     r0,r0,#0xa
        0x000063b6:    b289        ..      UXTH     r1,r1
        0x000063b8:    2301        .#      MOVS     r3,#1
        0x000063ba:    f000fa31    ..1.    BL       eMBRegHoldingCB ; 0x6820
        0x000063be:    2800        .(      CMP      r0,#0
        0x000063c0:    d117        ..      BNE      0x63f2 ; eMBFuncReadWriteMultipleHoldingRegister + 136
        0x000063c2:    b2ba        ..      UXTH     r2,r7
        0x000063c4:    0230        0.      LSLS     r0,r6,#8
        0x000063c6:    9900        ..      LDR      r1,[sp,#0]
        0x000063c8:    1840        @.      ADDS     r0,r0,r1
        0x000063ca:    1c41        A.      ADDS     r1,r0,#1
        0x000063cc:    1ca8        ..      ADDS     r0,r5,#2
        0x000063ce:    2600        .&      MOVS     r6,#0
        0x000063d0:    8026        &.      STRH     r6,[r4,#0]
        0x000063d2:    2317        .#      MOVS     r3,#0x17
        0x000063d4:    702b        +p      STRB     r3,[r5,#0]
        0x000063d6:    8823        #.      LDRH     r3,[r4,#0]
        0x000063d8:    1c5b        [.      ADDS     r3,r3,#1
        0x000063da:    8023        #.      STRH     r3,[r4,#0]
        0x000063dc:    0057        W.      LSLS     r7,r2,#1
        0x000063de:    706f        op      STRB     r7,[r5,#1]
        0x000063e0:    8823        #.      LDRH     r3,[r4,#0]
        0x000063e2:    1c5b        [.      ADDS     r3,r3,#1
        0x000063e4:    8023        #.      STRH     r3,[r4,#0]
        0x000063e6:    b289        ..      UXTH     r1,r1
        0x000063e8:    4633        3F      MOV      r3,r6
        0x000063ea:    f000fa19    ....    BL       eMBRegHoldingCB ; 0x6820
        0x000063ee:    2800        .(      CMP      r0,#0
        0x000063f0:    d006        ..      BEQ      0x6400 ; eMBFuncReadWriteMultipleHoldingRegister + 150
        0x000063f2:    f000fabd    ....    BL       prveMBError2Exception ; 0x6970
        0x000063f6:    4606        .F      MOV      r6,r0
        0x000063f8:    e000        ..      B        0x63fc ; eMBFuncReadWriteMultipleHoldingRegister + 146
        0x000063fa:    2600        .&      MOVS     r6,#0
        0x000063fc:    4630        0F      MOV      r0,r6
        0x000063fe:    bdf8        ..      POP      {r3-r7,pc}
        0x00006400:    8820         .      LDRH     r0,[r4,#0]
        0x00006402:    19c0        ..      ADDS     r0,r0,r7
        0x00006404:    8020         .      STRH     r0,[r4,#0]
        0x00006406:    e7f9        ..      B        0x63fc ; eMBFuncReadWriteMultipleHoldingRegister + 146
    eMBFuncReportSlaveID
        0x00006408:    b5b0        ..      PUSH     {r4,r5,r7,lr}
        0x0000640a:    460c        .F      MOV      r4,r1
        0x0000640c:    4905        .I      LDR      r1,[pc,#20] ; [0x6424] = 0x20000320
        0x0000640e:    880d        ..      LDRH     r5,[r1,#0]
        0x00006410:    1c40        @.      ADDS     r0,r0,#1
        0x00006412:    1c89        ..      ADDS     r1,r1,#2
        0x00006414:    462a        *F      MOV      r2,r5
        0x00006416:    f7f9fe83    ....    BL       __aeabi_memcpy ; 0x120
        0x0000641a:    1c68        h.      ADDS     r0,r5,#1
        0x0000641c:    8020         .      STRH     r0,[r4,#0]
        0x0000641e:    2000        .       MOVS     r0,#0
        0x00006420:    bdb0        ..      POP      {r4,r5,r7,pc}
        0x00006422:    46c0        .F      MOV      r8,r8
    $d.3
    __arm_cp.1_0
        0x00006424:    20000320     ..     DCD    536871712
    $t.2
    eMBFuncWriteCoil
        0x00006428:    b51c        ..      PUSH     {r2-r4,lr}
        0x0000642a:    8809        ..      LDRH     r1,[r1,#0]
        0x0000642c:    2403        .$      MOVS     r4,#3
        0x0000642e:    2905        .)      CMP      r1,#5
        0x00006430:    d102        ..      BNE      0x6438 ; eMBFuncWriteCoil + 16
        0x00006432:    7901        .y      LDRB     r1,[r0,#4]
        0x00006434:    2900        .)      CMP      r1,#0
        0x00006436:    d001        ..      BEQ      0x643c ; eMBFuncWriteCoil + 20
        0x00006438:    4620         F      MOV      r0,r4
        0x0000643a:    bd1c        ..      POP      {r2-r4,pc}
        0x0000643c:    7882        .x      LDRB     r2,[r0,#2]
        0x0000643e:    7843        Cx      LDRB     r3,[r0,#1]
        0x00006440:    78c1        .x      LDRB     r1,[r0,#3]
        0x00006442:    29ff        .)      CMP      r1,#0xff
        0x00006444:    d001        ..      BEQ      0x644a ; eMBFuncWriteCoil + 34
        0x00006446:    2900        .)      CMP      r1,#0
        0x00006448:    d1f6        ..      BNE      0x6438 ; eMBFuncWriteCoil + 16
        0x0000644a:    0218        ..      LSLS     r0,r3,#8
        0x0000644c:    1880        ..      ADDS     r0,r0,r2
        0x0000644e:    1c42        B.      ADDS     r2,r0,#1
        0x00006450:    a801        ..      ADD      r0,sp,#4
        0x00006452:    2400        .$      MOVS     r4,#0
        0x00006454:    7044        Dp      STRB     r4,[r0,#1]
        0x00006456:    39ff        .9      SUBS     r1,r1,#0xff
        0x00006458:    424b        KB      RSBS     r3,r1,#0
        0x0000645a:    414b        KA      ADCS     r3,r3,r1
        0x0000645c:    7003        .p      STRB     r3,[r0,#0]
        0x0000645e:    b291        ..      UXTH     r1,r2
        0x00006460:    2201        ."      MOVS     r2,#1
        0x00006462:    4613        .F      MOV      r3,r2
        0x00006464:    f000f976    ..v.    BL       eMBRegCoilsCB ; 0x6754
        0x00006468:    2800        .(      CMP      r0,#0
        0x0000646a:    d0e5        ..      BEQ      0x6438 ; eMBFuncWriteCoil + 16
        0x0000646c:    f000fa80    ....    BL       prveMBError2Exception ; 0x6970
        0x00006470:    4604        .F      MOV      r4,r0
        0x00006472:    e7e1        ..      B        0x6438 ; eMBFuncWriteCoil + 16
    eMBFuncWriteHoldingRegister
        0x00006474:    b580        ..      PUSH     {r7,lr}
        0x00006476:    8809        ..      LDRH     r1,[r1,#0]
        0x00006478:    2905        .)      CMP      r1,#5
        0x0000647a:    d10f        ..      BNE      0x649c ; eMBFuncWriteHoldingRegister + 40
        0x0000647c:    7881        .x      LDRB     r1,[r0,#2]
        0x0000647e:    7842        Bx      LDRB     r2,[r0,#1]
        0x00006480:    0212        ..      LSLS     r2,r2,#8
        0x00006482:    1851        Q.      ADDS     r1,r2,r1
        0x00006484:    1c49        I.      ADDS     r1,r1,#1
        0x00006486:    b289        ..      UXTH     r1,r1
        0x00006488:    1cc0        ..      ADDS     r0,r0,#3
        0x0000648a:    2201        ."      MOVS     r2,#1
        0x0000648c:    4613        .F      MOV      r3,r2
        0x0000648e:    f000f9c7    ....    BL       eMBRegHoldingCB ; 0x6820
        0x00006492:    2800        .(      CMP      r0,#0
        0x00006494:    d004        ..      BEQ      0x64a0 ; eMBFuncWriteHoldingRegister + 44
        0x00006496:    f000fa6b    ..k.    BL       prveMBError2Exception ; 0x6970
        0x0000649a:    bd80        ..      POP      {r7,pc}
        0x0000649c:    2003        .       MOVS     r0,#3
        0x0000649e:    bd80        ..      POP      {r7,pc}
        0x000064a0:    2000        .       MOVS     r0,#0
        0x000064a2:    bd80        ..      POP      {r7,pc}
    eMBFuncWriteMultipleCoils
        0x000064a4:    b570        p.      PUSH     {r4-r6,lr}
        0x000064a6:    460c        .F      MOV      r4,r1
        0x000064a8:    4603        .F      MOV      r3,r0
        0x000064aa:    8809        ..      LDRH     r1,[r1,#0]
        0x000064ac:    2003        .       MOVS     r0,#3
        0x000064ae:    2906        .)      CMP      r1,#6
        0x000064b0:    d323        #.      BCC      0x64fa ; eMBFuncWriteMultipleCoils + 86
        0x000064b2:    791e        .y      LDRB     r6,[r3,#4]
        0x000064b4:    78d9        .x      LDRB     r1,[r3,#3]
        0x000064b6:    0209        ..      LSLS     r1,r1,#8
        0x000064b8:    198d        ..      ADDS     r5,r1,r6
        0x000064ba:    b2aa        ..      UXTH     r2,r5
        0x000064bc:    08d1        ..      LSRS     r1,r2,#3
        0x000064be:    0776        v.      LSLS     r6,r6,#29
        0x000064c0:    d000        ..      BEQ      0x64c4 ; eMBFuncWriteMultipleCoils + 32
        0x000064c2:    1c49        I.      ADDS     r1,r1,#1
        0x000064c4:    1e6d        m.      SUBS     r5,r5,#1
        0x000064c6:    b2ad        ..      UXTH     r5,r5
        0x000064c8:    092d        -.      LSRS     r5,r5,#4
        0x000064ca:    2d7a        z-      CMP      r5,#0x7a
        0x000064cc:    d815        ..      BHI      0x64fa ; eMBFuncWriteMultipleCoils + 86
        0x000064ce:    795d        ]y      LDRB     r5,[r3,#5]
        0x000064d0:    b2c9        ..      UXTB     r1,r1
        0x000064d2:    428d        .B      CMP      r5,r1
        0x000064d4:    d111        ..      BNE      0x64fa ; eMBFuncWriteMultipleCoils + 86
        0x000064d6:    7898        .x      LDRB     r0,[r3,#2]
        0x000064d8:    7859        Yx      LDRB     r1,[r3,#1]
        0x000064da:    0209        ..      LSLS     r1,r1,#8
        0x000064dc:    1808        ..      ADDS     r0,r1,r0
        0x000064de:    1c40        @.      ADDS     r0,r0,#1
        0x000064e0:    b281        ..      UXTH     r1,r0
        0x000064e2:    1d98        ..      ADDS     r0,r3,#6
        0x000064e4:    2301        .#      MOVS     r3,#1
        0x000064e6:    f000f935    ..5.    BL       eMBRegCoilsCB ; 0x6754
        0x000064ea:    2800        .(      CMP      r0,#0
        0x000064ec:    d002        ..      BEQ      0x64f4 ; eMBFuncWriteMultipleCoils + 80
        0x000064ee:    f000fa3f    ..?.    BL       prveMBError2Exception ; 0x6970
        0x000064f2:    bd70        p.      POP      {r4-r6,pc}
        0x000064f4:    2005        .       MOVS     r0,#5
        0x000064f6:    8020         .      STRH     r0,[r4,#0]
        0x000064f8:    2000        .       MOVS     r0,#0
        0x000064fa:    bd70        p.      POP      {r4-r6,pc}
    eMBFuncWriteMultipleHoldingRegister
        0x000064fc:    b5b0        ..      PUSH     {r4,r5,r7,lr}
        0x000064fe:    460c        .F      MOV      r4,r1
        0x00006500:    4601        .F      MOV      r1,r0
        0x00006502:    8822        ".      LDRH     r2,[r4,#0]
        0x00006504:    2003        .       MOVS     r0,#3
        0x00006506:    2a06        .*      CMP      r2,#6
        0x00006508:    d31f        ..      BCC      0x654a ; eMBFuncWriteMultipleHoldingRegister + 78
        0x0000650a:    790b        .y      LDRB     r3,[r1,#4]
        0x0000650c:    78ca        .x      LDRB     r2,[r1,#3]
        0x0000650e:    0212        ..      LSLS     r2,r2,#8
        0x00006510:    18d2        ..      ADDS     r2,r2,r3
        0x00006512:    1e55        U.      SUBS     r5,r2,#1
        0x00006514:    b2ad        ..      UXTH     r5,r5
        0x00006516:    2d77        w-      CMP      r5,#0x77
        0x00006518:    d817        ..      BHI      0x654a ; eMBFuncWriteMultipleHoldingRegister + 78
        0x0000651a:    794d        My      LDRB     r5,[r1,#5]
        0x0000651c:    065b        [.      LSLS     r3,r3,#25
        0x0000651e:    0e1b        ..      LSRS     r3,r3,#24
        0x00006520:    429d        .B      CMP      r5,r3
        0x00006522:    d112        ..      BNE      0x654a ; eMBFuncWriteMultipleHoldingRegister + 78
        0x00006524:    7888        .x      LDRB     r0,[r1,#2]
        0x00006526:    784b        Kx      LDRB     r3,[r1,#1]
        0x00006528:    021b        ..      LSLS     r3,r3,#8
        0x0000652a:    1818        ..      ADDS     r0,r3,r0
        0x0000652c:    1c43        C.      ADDS     r3,r0,#1
        0x0000652e:    1d88        ..      ADDS     r0,r1,#6
        0x00006530:    b299        ..      UXTH     r1,r3
        0x00006532:    b292        ..      UXTH     r2,r2
        0x00006534:    2301        .#      MOVS     r3,#1
        0x00006536:    f000f973    ..s.    BL       eMBRegHoldingCB ; 0x6820
        0x0000653a:    2800        .(      CMP      r0,#0
        0x0000653c:    d002        ..      BEQ      0x6544 ; eMBFuncWriteMultipleHoldingRegister + 72
        0x0000653e:    f000fa17    ....    BL       prveMBError2Exception ; 0x6970
        0x00006542:    bdb0        ..      POP      {r4,r5,r7,pc}
        0x00006544:    2005        .       MOVS     r0,#5
        0x00006546:    8020         .      STRH     r0,[r4,#0]
        0x00006548:    2000        .       MOVS     r0,#0
        0x0000654a:    bdb0        ..      POP      {r4,r5,r7,pc}
    eMBInit
        0x0000654c:    b5f8        ..      PUSH     {r3-r7,lr}
        0x0000654e:    4604        .F      MOV      r4,r0
        0x00006550:    2002        .       MOVS     r0,#2
        0x00006552:    2900        .)      CMP      r1,#0
        0x00006554:    d006        ..      BEQ      0x6564 ; eMBInit + 24
        0x00006556:    08cd        ..      LSRS     r5,r1,#3
        0x00006558:    2d1e        .-      CMP      r5,#0x1e
        0x0000655a:    d803        ..      BHI      0x6564 ; eMBInit + 24
        0x0000655c:    4d40        @M      LDR      r5,[pc,#256] ; [0x6660] = 0x20000350
        0x0000655e:    7029        )p      STRB     r1,[r5,#0]
        0x00006560:    2c00        .,      CMP      r4,#0
        0x00006562:    d000        ..      BEQ      0x6566 ; eMBInit + 26
        0x00006564:    bdf8        ..      POP      {r3-r7,pc}
        0x00006566:    9c06        ..      LDR      r4,[sp,#0x18]
        0x00006568:    480c        .H      LDR      r0,[pc,#48] ; [0x659c] = 0x6bd9
        0x0000656a:    4e0d        .N      LDR      r6,[pc,#52] ; [0x65a0] = 0x6c01
        0x0000656c:    4f0d        .O      LDR      r7,[pc,#52] ; [0x65a4] = 0x6b85
        0x0000656e:    60af        .`      STR      r7,[r5,#8]
        0x00006570:    60ee        .`      STR      r6,[r5,#0xc]
        0x00006572:    6128        (a      STR      r0,[r5,#0x10]
        0x00006574:    4608        .F      MOV      r0,r1
        0x00006576:    4611        .F      MOV      r1,r2
        0x00006578:    461a        .F      MOV      r2,r3
        0x0000657a:    4623        #F      MOV      r3,r4
        0x0000657c:    f000f874    ..t.    BL       eMBRTUInit ; 0x6668
        0x00006580:    2800        .(      CMP      r0,#0
        0x00006582:    d1ef        ..      BNE      0x6564 ; eMBInit + 24
        0x00006584:    f000fa8a    ....    BL       xMBPortEventInit ; 0x6a9c
        0x00006588:    2800        .(      CMP      r0,#0
        0x0000658a:    d004        ..      BEQ      0x6596 ; eMBInit + 74
        0x0000658c:    4833        3H      LDR      r0,[pc,#204] ; [0x665c] = 0x20000094
        0x0000658e:    2101        .!      MOVS     r1,#1
        0x00006590:    7001        .p      STRB     r1,[r0,#0]
        0x00006592:    2000        .       MOVS     r0,#0
        0x00006594:    bdf8        ..      POP      {r3-r7,pc}
        0x00006596:    2003        .       MOVS     r0,#3
        0x00006598:    bdf8        ..      POP      {r3-r7,pc}
        0x0000659a:    46c0        .F      MOV      r8,r8
    $d.1
    __arm_cp.0_1
        0x0000659c:    00006bd9    .k..    DCD    27609
    __arm_cp.0_2
        0x000065a0:    00006c01    .l..    DCD    27649
    __arm_cp.0_3
        0x000065a4:    00006b85    .k..    DCD    27525
    __arm_cp.0_4
        0x000065a8:    20000094    ...     DCD    536871060
    $t.10
    eMBPoll
        0x000065ac:    b5fe        ..      PUSH     {r1-r7,lr}
        0x000065ae:    482b        +H      LDR      r0,[pc,#172] ; [0x665c] = 0x20000094
        0x000065b0:    7800        .x      LDRB     r0,[r0,#0]
        0x000065b2:    2800        .(      CMP      r0,#0
        0x000065b4:    d001        ..      BEQ      0x65ba ; eMBPoll + 14
        0x000065b6:    2406        .$      MOVS     r4,#6
        0x000065b8:    e04e        N.      B        0x6658 ; eMBPoll + 172
        0x000065ba:    a802        ..      ADD      r0,sp,#8
        0x000065bc:    f000fa62    ..b.    BL       xMBPortEventGet ; 0x6a84
        0x000065c0:    2400        .$      MOVS     r4,#0
        0x000065c2:    2801        .(      CMP      r0,#1
        0x000065c4:    d148        H.      BNE      0x6658 ; eMBPoll + 172
        0x000065c6:    a802        ..      ADD      r0,sp,#8
        0x000065c8:    7800        .x      LDRB     r0,[r0,#0]
        0x000065ca:    2802        .(      CMP      r0,#2
        0x000065cc:    d014        ..      BEQ      0x65f8 ; eMBPoll + 76
        0x000065ce:    2801        .(      CMP      r0,#1
        0x000065d0:    d142        B.      BNE      0x6658 ; eMBPoll + 172
        0x000065d2:    4d23        #M      LDR      r5,[pc,#140] ; [0x6660] = 0x20000350
        0x000065d4:    1c68        h.      ADDS     r0,r5,#1
        0x000065d6:    4629        )F      MOV      r1,r5
        0x000065d8:    3114        .1      ADDS     r1,r1,#0x14
        0x000065da:    1d2a        *.      ADDS     r2,r5,#4
        0x000065dc:    f000f864    ..d.    BL       eMBRTUReceive ; 0x66a8
        0x000065e0:    2800        .(      CMP      r0,#0
        0x000065e2:    d139        9.      BNE      0x6658 ; eMBPoll + 172
        0x000065e4:    7868        hx      LDRB     r0,[r5,#1]
        0x000065e6:    7829        )x      LDRB     r1,[r5,#0]
        0x000065e8:    4288        .B      CMP      r0,r1
        0x000065ea:    d001        ..      BEQ      0x65f0 ; eMBPoll + 68
        0x000065ec:    2800        .(      CMP      r0,#0
        0x000065ee:    d133        3.      BNE      0x6658 ; eMBPoll + 172
        0x000065f0:    2002        .       MOVS     r0,#2
        0x000065f2:    f000fa59    ..Y.    BL       xMBPortEventPost ; 0x6aa8
        0x000065f6:    e02f        /.      B        0x6658 ; eMBPoll + 172
        0x000065f8:    4d19        .M      LDR      r5,[pc,#100] ; [0x6660] = 0x20000350
        0x000065fa:    6968        hi      LDR      r0,[r5,#0x14]
        0x000065fc:    9001        ..      STR      r0,[sp,#4]
        0x000065fe:    7801        .x      LDRB     r1,[r0,#0]
        0x00006600:    70a9        .p      STRB     r1,[r5,#2]
        0x00006602:    2087        .       MOVS     r0,#0x87
        0x00006604:    43c7        .C      MVNS     r7,r0
        0x00006606:    4b17        .K      LDR      r3,[pc,#92] ; [0x6664] = 0x20000124
        0x00006608:    463e        >F      MOV      r6,r7
        0x0000660a:    2001        .       MOVS     r0,#1
        0x0000660c:    3608        .6      ADDS     r6,r6,#8
        0x0000660e:    d00d        ..      BEQ      0x662c ; eMBPoll + 128
        0x00006610:    19df        ..      ADDS     r7,r3,r7
        0x00006612:    2288        ."      MOVS     r2,#0x88
        0x00006614:    5cbf        .\      LDRB     r7,[r7,r2]
        0x00006616:    2f00        ./      CMP      r7,#0
        0x00006618:    d008        ..      BEQ      0x662c ; eMBPoll + 128
        0x0000661a:    428f        .B      CMP      r7,r1
        0x0000661c:    4637        7F      MOV      r7,r6
        0x0000661e:    d1f4        ..      BNE      0x660a ; eMBPoll + 94
        0x00006620:    1998        ..      ADDS     r0,r3,r6
        0x00006622:    2184        .!      MOVS     r1,#0x84
        0x00006624:    5842        BX      LDR      r2,[r0,r1]
        0x00006626:    1d29        ).      ADDS     r1,r5,#4
        0x00006628:    9801        ..      LDR      r0,[sp,#4]
        0x0000662a:    4790        .G      BLX      r2
        0x0000662c:    7869        ix      LDRB     r1,[r5,#1]
        0x0000662e:    2900        .)      CMP      r1,#0
        0x00006630:    d012        ..      BEQ      0x6658 ; eMBPoll + 172
        0x00006632:    6969        ii      LDR      r1,[r5,#0x14]
        0x00006634:    2800        .(      CMP      r0,#0
        0x00006636:    d00b        ..      BEQ      0x6650 ; eMBPoll + 164
        0x00006638:    2201        ."      MOVS     r2,#1
        0x0000663a:    80aa        ..      STRH     r2,[r5,#4]
        0x0000663c:    78aa        .x      LDRB     r2,[r5,#2]
        0x0000663e:    2380        .#      MOVS     r3,#0x80
        0x00006640:    4313        .C      ORRS     r3,r3,r2
        0x00006642:    700b        .p      STRB     r3,[r1,#0]
        0x00006644:    88a9        ..      LDRH     r1,[r5,#4]
        0x00006646:    1c4a        J.      ADDS     r2,r1,#1
        0x00006648:    80aa        ..      STRH     r2,[r5,#4]
        0x0000664a:    696a        ji      LDR      r2,[r5,#0x14]
        0x0000664c:    5450        PT      STRB     r0,[r2,r1]
        0x0000664e:    6969        ii      LDR      r1,[r5,#0x14]
        0x00006650:    88aa        ..      LDRH     r2,[r5,#4]
        0x00006652:    7828        (x      LDRB     r0,[r5,#0]
        0x00006654:    f000f846    ..F.    BL       eMBRTUSend ; 0x66e4
        0x00006658:    4620         F      MOV      r0,r4
        0x0000665a:    bdfe        ..      POP      {r1-r7,pc}
    $d.11
    __arm_cp.5_0
        0x0000665c:    20000094    ...     DCD    536871060
    __arm_cp.5_1
        0x00006660:    20000350    P..     DCD    536871760
    __arm_cp.5_2
        0x00006664:    20000124    $..     DCD    536871204
    $t.0
    eMBRTUInit
        0x00006668:    b510        ..      PUSH     {r4,lr}
        0x0000666a:    4614        .F      MOV      r4,r2
        0x0000666c:    4608        .F      MOV      r0,r1
        0x0000666e:    b672        r.      CPSID    i
        0x00006670:    2208        ."      MOVS     r2,#8
        0x00006672:    4621        !F      MOV      r1,r4
        0x00006674:    f000fa28    ..(.    BL       xMBPortSerialInit ; 0x6ac8
        0x00006678:    2801        .(      CMP      r0,#1
        0x0000667a:    d10e        ..      BNE      0x669a ; eMBRTUInit + 50
        0x0000667c:    204b        K       MOVS     r0,#0x4b
        0x0000667e:    0200        ..      LSLS     r0,r0,#8
        0x00006680:    4284        .B      CMP      r4,r0
        0x00006682:    d901        ..      BLS      0x6688 ; eMBRTUInit + 32
        0x00006684:    2023        #       MOVS     r0,#0x23
        0x00006686:    e003        ..      B        0x6690 ; eMBRTUInit + 40
        0x00006688:    0061        a.      LSLS     r1,r4,#1
        0x0000668a:    4806        .H      LDR      r0,[pc,#24] ; [0x66a4] = 0x177fa0
        0x0000668c:    f7f9ff86    ....    BL       __aeabi_uidiv ; 0x59c
        0x00006690:    b280        ..      UXTH     r0,r0
        0x00006692:    f000fa45    ..E.    BL       xMBPortTimersInit ; 0x6b20
        0x00006696:    2801        .(      CMP      r0,#1
        0x00006698:    d001        ..      BEQ      0x669e ; eMBRTUInit + 54
        0x0000669a:    2003        .       MOVS     r0,#3
        0x0000669c:    e000        ..      B        0x66a0 ; eMBRTUInit + 56
        0x0000669e:    2000        .       MOVS     r0,#0
        0x000066a0:    b662        b.      CPSIE    i
        0x000066a2:    bd10        ..      POP      {r4,pc}
    $d.1
    __arm_cp.0_0
        0x000066a4:    00177fa0    ....    DCD    1540000
    $t.5
    eMBRTUReceive
        0x000066a8:    b5f8        ..      PUSH     {r3-r7,lr}
        0x000066aa:    4607        .F      MOV      r7,r0
        0x000066ac:    b672        r.      CPSID    i
        0x000066ae:    4c28        (L      LDR      r4,[pc,#160] ; [0x6750] = 0x20000344
        0x000066b0:    8860        `.      LDRH     r0,[r4,#2]
        0x000066b2:    2605        .&      MOVS     r6,#5
        0x000066b4:    2804        .(      CMP      r0,#4
        0x000066b6:    d311        ..      BCC      0x66dc ; eMBRTUReceive + 52
        0x000066b8:    460d        .F      MOV      r5,r1
        0x000066ba:    9200        ..      STR      r2,[sp,#0]
        0x000066bc:    8861        a.      LDRH     r1,[r4,#2]
        0x000066be:    481d        .H      LDR      r0,[pc,#116] ; [0x6734] = 0x20002da4
        0x000066c0:    f7fafbc2    ....    BL       CRC16 ; 0xe48
        0x000066c4:    2800        .(      CMP      r0,#0
        0x000066c6:    d109        ..      BNE      0x66dc ; eMBRTUReceive + 52
        0x000066c8:    491a        .I      LDR      r1,[pc,#104] ; [0x6734] = 0x20002da4
        0x000066ca:    7808        .x      LDRB     r0,[r1,#0]
        0x000066cc:    7038        8p      STRB     r0,[r7,#0]
        0x000066ce:    1c48        H.      ADDS     r0,r1,#1
        0x000066d0:    6028        (`      STR      r0,[r5,#0]
        0x000066d2:    8860        `.      LDRH     r0,[r4,#2]
        0x000066d4:    1ec0        ..      SUBS     r0,r0,#3
        0x000066d6:    9900        ..      LDR      r1,[sp,#0]
        0x000066d8:    8008        ..      STRH     r0,[r1,#0]
        0x000066da:    2600        .&      MOVS     r6,#0
        0x000066dc:    b662        b.      CPSIE    i
        0x000066de:    4630        0F      MOV      r0,r6
        0x000066e0:    bdf8        ..      POP      {r3-r7,pc}
        0x000066e2:    46c0        .F      MOV      r8,r8
    eMBRTUSend
        0x000066e4:    b5b0        ..      PUSH     {r4,r5,r7,lr}
        0x000066e6:    b672        r.      CPSID    i
        0x000066e8:    4d19        .M      LDR      r5,[pc,#100] ; [0x6750] = 0x20000344
        0x000066ea:    782b        +x      LDRB     r3,[r5,#0]
        0x000066ec:    2b01        .+      CMP      r3,#1
        0x000066ee:    d11c        ..      BNE      0x672a ; eMBRTUSend + 70
        0x000066f0:    2401        .$      MOVS     r4,#1
        0x000066f2:    80ac        ..      STRH     r4,[r5,#4]
        0x000066f4:    1e4b        K.      SUBS     r3,r1,#1
        0x000066f6:    60ab        .`      STR      r3,[r5,#8]
        0x000066f8:    7018        .p      STRB     r0,[r3,#0]
        0x000066fa:    88a8        ..      LDRH     r0,[r5,#4]
        0x000066fc:    1880        ..      ADDS     r0,r0,r2
        0x000066fe:    80a8        ..      STRH     r0,[r5,#4]
        0x00006700:    88a9        ..      LDRH     r1,[r5,#4]
        0x00006702:    4618        .F      MOV      r0,r3
        0x00006704:    f7fafba0    ....    BL       CRC16 ; 0xe48
        0x00006708:    88a9        ..      LDRH     r1,[r5,#4]
        0x0000670a:    1c4a        J.      ADDS     r2,r1,#1
        0x0000670c:    80aa        ..      STRH     r2,[r5,#4]
        0x0000670e:    4a09        .J      LDR      r2,[pc,#36] ; [0x6734] = 0x20002da4
        0x00006710:    5450        PT      STRB     r0,[r2,r1]
        0x00006712:    88a9        ..      LDRH     r1,[r5,#4]
        0x00006714:    1c4b        K.      ADDS     r3,r1,#1
        0x00006716:    80ab        ..      STRH     r3,[r5,#4]
        0x00006718:    0a00        ..      LSRS     r0,r0,#8
        0x0000671a:    5450        PT      STRB     r0,[r2,r1]
        0x0000671c:    706c        lp      STRB     r4,[r5,#1]
        0x0000671e:    2500        .%      MOVS     r5,#0
        0x00006720:    4628        (F      MOV      r0,r5
        0x00006722:    4621        !F      MOV      r1,r4
        0x00006724:    f000f968    ..h.    BL       vMBPortSerialEnable ; 0x69f8
        0x00006728:    e000        ..      B        0x672c ; eMBRTUSend + 72
        0x0000672a:    2505        .%      MOVS     r5,#5
        0x0000672c:    b662        b.      CPSIE    i
        0x0000672e:    4628        (F      MOV      r0,r5
        0x00006730:    bdb0        ..      POP      {r4,r5,r7,pc}
        0x00006732:    46c0        .F      MOV      r8,r8
    $d.8
    __arm_cp.4_1
        0x00006734:    20002da4    .-.     DCD    536882596
    $t.2
    eMBRTUStart
        0x00006738:    b580        ..      PUSH     {r7,lr}
        0x0000673a:    b672        r.      CPSID    i
        0x0000673c:    4804        .H      LDR      r0,[pc,#16] ; [0x6750] = 0x20000344
        0x0000673e:    2100        .!      MOVS     r1,#0
        0x00006740:    7001        .p      STRB     r1,[r0,#0]
        0x00006742:    2001        .       MOVS     r0,#1
        0x00006744:    f000f958    ..X.    BL       vMBPortSerialEnable ; 0x69f8
        0x00006748:    f000f990    ....    BL       vMBPortTimersEnable ; 0x6a6c
        0x0000674c:    b662        b.      CPSIE    i
        0x0000674e:    bd80        ..      POP      {r7,pc}
    $d.3
    __arm_cp.1_0
        0x00006750:    20000344    D..     DCD    536871748
    $t.6
    eMBRegCoilsCB
        0x00006754:    b5fe        ..      PUSH     {r1-r7,lr}
        0x00006756:    9002        ..      STR      r0,[sp,#8]
        0x00006758:    2001        .       MOVS     r0,#1
        0x0000675a:    2900        .)      CMP      r1,#0
        0x0000675c:    d033        3.      BEQ      0x67c6 ; eMBRegCoilsCB + 114
        0x0000675e:    4615        .F      MOV      r5,r2
        0x00006760:    460e        .F      MOV      r6,r1
        0x00006762:    1851        Q.      ADDS     r1,r2,r1
        0x00006764:    2911        .)      CMP      r1,#0x11
        0x00006766:    d82e        ..      BHI      0x67c6 ; eMBRegCoilsCB + 114
        0x00006768:    4817        .H      LDR      r0,[pc,#92] ; [0x67c8] = 0x2000011a
        0x0000676a:    8800        ..      LDRH     r0,[r0,#0]
        0x0000676c:    1a37        7.      SUBS     r7,r6,r0
        0x0000676e:    2000        .       MOVS     r0,#0
        0x00006770:    9001        ..      STR      r0,[sp,#4]
        0x00006772:    2b00        .+      CMP      r3,#0
        0x00006774:    d024        $.      BEQ      0x67c0 ; eMBRegCoilsCB + 108
        0x00006776:    2b01        .+      CMP      r3,#1
        0x00006778:    d124        $.      BNE      0x67c4 ; eMBRegCoilsCB + 112
        0x0000677a:    0428        (.      LSLS     r0,r5,#16
        0x0000677c:    d022        ".      BEQ      0x67c4 ; eMBRegCoilsCB + 112
        0x0000677e:    1bb8        ..      SUBS     r0,r7,r6
        0x00006780:    1c40        @.      ADDS     r0,r0,#1
        0x00006782:    b281        ..      UXTH     r1,r0
        0x00006784:    2401        .$      MOVS     r4,#1
        0x00006786:    9802        ..      LDR      r0,[sp,#8]
        0x00006788:    4622        "F      MOV      r2,r4
        0x0000678a:    f000fa63    ..c.    BL       xMBUtilGetBits ; 0x6c54
        0x0000678e:    4603        .F      MOV      r3,r0
        0x00006790:    b2b9        ..      UXTH     r1,r7
        0x00006792:    480e        .H      LDR      r0,[pc,#56] ; [0x67cc] = 0x20002ea4
        0x00006794:    4622        "F      MOV      r2,r4
        0x00006796:    f000fa6e    ..n.    BL       xMBUtilSetBits ; 0x6c76
        0x0000679a:    1e6d        m.      SUBS     r5,r5,#1
        0x0000679c:    1c7f        ..      ADDS     r7,r7,#1
        0x0000679e:    e7ec        ..      B        0x677a ; eMBRegCoilsCB + 38
        0x000067a0:    b2b9        ..      UXTH     r1,r7
        0x000067a2:    2401        .$      MOVS     r4,#1
        0x000067a4:    4809        .H      LDR      r0,[pc,#36] ; [0x67cc] = 0x20002ea4
        0x000067a6:    4622        "F      MOV      r2,r4
        0x000067a8:    f000fa54    ..T.    BL       xMBUtilGetBits ; 0x6c54
        0x000067ac:    4603        .F      MOV      r3,r0
        0x000067ae:    1bb8        ..      SUBS     r0,r7,r6
        0x000067b0:    1c40        @.      ADDS     r0,r0,#1
        0x000067b2:    b281        ..      UXTH     r1,r0
        0x000067b4:    9802        ..      LDR      r0,[sp,#8]
        0x000067b6:    4622        "F      MOV      r2,r4
        0x000067b8:    f000fa5d    ..].    BL       xMBUtilSetBits ; 0x6c76
        0x000067bc:    1e6d        m.      SUBS     r5,r5,#1
        0x000067be:    1c7f        ..      ADDS     r7,r7,#1
        0x000067c0:    0428        (.      LSLS     r0,r5,#16
        0x000067c2:    d1ed        ..      BNE      0x67a0 ; eMBRegCoilsCB + 76
        0x000067c4:    9801        ..      LDR      r0,[sp,#4]
        0x000067c6:    bdfe        ..      POP      {r1-r7,pc}
    $d.7
    __arm_cp.3_0
        0x000067c8:    2000011a    ...     DCD    536871194
    __arm_cp.3_1
        0x000067cc:    20002ea4    ...     DCD    536882852
    $t.8
    eMBRegDiscreteCB
        0x000067d0:    b5f8        ..      PUSH     {r3-r7,lr}
        0x000067d2:    9000        ..      STR      r0,[sp,#0]
        0x000067d4:    2001        .       MOVS     r0,#1
        0x000067d6:    2900        .)      CMP      r1,#0
        0x000067d8:    d01d        ..      BEQ      0x6816 ; eMBRegDiscreteCB + 70
        0x000067da:    4614        .F      MOV      r4,r2
        0x000067dc:    460d        .F      MOV      r5,r1
        0x000067de:    1851        Q.      ADDS     r1,r2,r1
        0x000067e0:    2911        .)      CMP      r1,#0x11
        0x000067e2:    d818        ..      BHI      0x6816 ; eMBRegDiscreteCB + 70
        0x000067e4:    480c        .H      LDR      r0,[pc,#48] ; [0x6818] = 0x2000011c
        0x000067e6:    8800        ..      LDRH     r0,[r0,#0]
        0x000067e8:    1a2e        ..      SUBS     r6,r5,r0
        0x000067ea:    0420         .      LSLS     r0,r4,#16
        0x000067ec:    d012        ..      BEQ      0x6814 ; eMBRegDiscreteCB + 68
        0x000067ee:    b2b1        ..      UXTH     r1,r6
        0x000067f0:    2701        .'      MOVS     r7,#1
        0x000067f2:    480a        .H      LDR      r0,[pc,#40] ; [0x681c] = 0x20002ea7
        0x000067f4:    463a        :F      MOV      r2,r7
        0x000067f6:    f000fa2d    ..-.    BL       xMBUtilGetBits ; 0x6c54
        0x000067fa:    4603        .F      MOV      r3,r0
        0x000067fc:    1b70        p.      SUBS     r0,r6,r5
        0x000067fe:    4906        .I      LDR      r1,[pc,#24] ; [0x6818] = 0x2000011c
        0x00006800:    8809        ..      LDRH     r1,[r1,#0]
        0x00006802:    1840        @.      ADDS     r0,r0,r1
        0x00006804:    b281        ..      UXTH     r1,r0
        0x00006806:    9800        ..      LDR      r0,[sp,#0]
        0x00006808:    463a        :F      MOV      r2,r7
        0x0000680a:    f000fa34    ..4.    BL       xMBUtilSetBits ; 0x6c76
        0x0000680e:    1e64        d.      SUBS     r4,r4,#1
        0x00006810:    1c76        v.      ADDS     r6,r6,#1
        0x00006812:    e7ea        ..      B        0x67ea ; eMBRegDiscreteCB + 26
        0x00006814:    2000        .       MOVS     r0,#0
        0x00006816:    bdf8        ..      POP      {r3-r7,pc}
    $d.9
    __arm_cp.4_0
        0x00006818:    2000011c    ...     DCD    536871196
    __arm_cp.4_1
        0x0000681c:    20002ea7    ...     DCD    536882855
    $t.4
    eMBRegHoldingCB
        0x00006820:    b5f0        ..      PUSH     {r4-r7,lr}
        0x00006822:    4604        .F      MOV      r4,r0
        0x00006824:    2001        .       MOVS     r0,#1
        0x00006826:    2900        .)      CMP      r1,#0
        0x00006828:    d02b        +.      BEQ      0x6882 ; eMBRegHoldingCB + 98
        0x0000682a:    1855        U.      ADDS     r5,r2,r1
        0x0000682c:    2d11        .-      CMP      r5,#0x11
        0x0000682e:    d828        (.      BHI      0x6882 ; eMBRegHoldingCB + 98
        0x00006830:    4814        .H      LDR      r0,[pc,#80] ; [0x6884] = 0x2000011e
        0x00006832:    8800        ..      LDRH     r0,[r0,#0]
        0x00006834:    1a09        ..      SUBS     r1,r1,r0
        0x00006836:    2000        .       MOVS     r0,#0
        0x00006838:    2b00        .+      CMP      r3,#0
        0x0000683a:    d011        ..      BEQ      0x6860 ; eMBRegHoldingCB + 64
        0x0000683c:    2b01        .+      CMP      r3,#1
        0x0000683e:    d120         .      BNE      0x6882 ; eMBRegHoldingCB + 98
        0x00006840:    4b20         K      LDR      r3,[pc,#128] ; [0x68c4] = 0x200002e0
        0x00006842:    0415        ..      LSLS     r5,r2,#16
        0x00006844:    d01d        ..      BEQ      0x6882 ; eMBRegHoldingCB + 98
        0x00006846:    b28d        ..      UXTH     r5,r1
        0x00006848:    006d        m.      LSLS     r5,r5,#1
        0x0000684a:    195d        ].      ADDS     r5,r3,r5
        0x0000684c:    7826        &x      LDRB     r6,[r4,#0]
        0x0000684e:    0236        6.      LSLS     r6,r6,#8
        0x00006850:    842e        ..      STRH     r6,[r5,#0x20]
        0x00006852:    7867        gx      LDRB     r7,[r4,#1]
        0x00006854:    19f6        ..      ADDS     r6,r6,r7
        0x00006856:    842e        ..      STRH     r6,[r5,#0x20]
        0x00006858:    1ca4        ..      ADDS     r4,r4,#2
        0x0000685a:    1e52        R.      SUBS     r2,r2,#1
        0x0000685c:    1c49        I.      ADDS     r1,r1,#1
        0x0000685e:    e7f0        ..      B        0x6842 ; eMBRegHoldingCB + 34
        0x00006860:    4b18        .K      LDR      r3,[pc,#96] ; [0x68c4] = 0x200002e0
        0x00006862:    0415        ..      LSLS     r5,r2,#16
        0x00006864:    d00d        ..      BEQ      0x6882 ; eMBRegHoldingCB + 98
        0x00006866:    b28d        ..      UXTH     r5,r1
        0x00006868:    006d        m.      LSLS     r5,r5,#1
        0x0000686a:    195d        ].      ADDS     r5,r3,r5
        0x0000686c:    462e        .F      MOV      r6,r5
        0x0000686e:    3620         6      ADDS     r6,r6,#0x20
        0x00006870:    7876        vx      LDRB     r6,[r6,#1]
        0x00006872:    7026        &p      STRB     r6,[r4,#0]
        0x00006874:    2620         &      MOVS     r6,#0x20
        0x00006876:    5dad        .]      LDRB     r5,[r5,r6]
        0x00006878:    7065        ep      STRB     r5,[r4,#1]
        0x0000687a:    1e52        R.      SUBS     r2,r2,#1
        0x0000687c:    1c49        I.      ADDS     r1,r1,#1
        0x0000687e:    1ca4        ..      ADDS     r4,r4,#2
        0x00006880:    e7ef        ..      B        0x6862 ; eMBRegHoldingCB + 66
        0x00006882:    bdf0        ..      POP      {r4-r7,pc}
    $d.5
    __arm_cp.2_0
        0x00006884:    2000011e    ...     DCD    536871198
    $t.2
    eMBRegInputCB
        0x00006888:    b5b0        ..      PUSH     {r4,r5,r7,lr}
        0x0000688a:    2301        .#      MOVS     r3,#1
        0x0000688c:    2900        .)      CMP      r1,#0
        0x0000688e:    d014        ..      BEQ      0x68ba ; eMBRegInputCB + 50
        0x00006890:    1854        T.      ADDS     r4,r2,r1
        0x00006892:    2c11        .,      CMP      r4,#0x11
        0x00006894:    d811        ..      BHI      0x68ba ; eMBRegInputCB + 50
        0x00006896:    4b0a        .K      LDR      r3,[pc,#40] ; [0x68c0] = 0x20000120
        0x00006898:    881b        ..      LDRH     r3,[r3,#0]
        0x0000689a:    1ac9        ..      SUBS     r1,r1,r3
        0x0000689c:    4b09        .K      LDR      r3,[pc,#36] ; [0x68c4] = 0x200002e0
        0x0000689e:    0414        ..      LSLS     r4,r2,#16
        0x000068a0:    d00a        ..      BEQ      0x68b8 ; eMBRegInputCB + 48
        0x000068a2:    b28c        ..      UXTH     r4,r1
        0x000068a4:    0064        d.      LSLS     r4,r4,#1
        0x000068a6:    191d        ..      ADDS     r5,r3,r4
        0x000068a8:    786d        mx      LDRB     r5,[r5,#1]
        0x000068aa:    7005        .p      STRB     r5,[r0,#0]
        0x000068ac:    5d1c        .]      LDRB     r4,[r3,r4]
        0x000068ae:    7044        Dp      STRB     r4,[r0,#1]
        0x000068b0:    1e52        R.      SUBS     r2,r2,#1
        0x000068b2:    1c49        I.      ADDS     r1,r1,#1
        0x000068b4:    1c80        ..      ADDS     r0,r0,#2
        0x000068b6:    e7f2        ..      B        0x689e ; eMBRegInputCB + 22
        0x000068b8:    2300        .#      MOVS     r3,#0
        0x000068ba:    4618        .F      MOV      r0,r3
        0x000068bc:    bdb0        ..      POP      {r4,r5,r7,pc}
        0x000068be:    46c0        .F      MOV      r8,r8
    $d.3
    __arm_cp.1_0
        0x000068c0:    20000120     ..     DCD    536871200
    __arm_cp.1_1
        0x000068c4:    200002e0    ...     DCD    536871648
    $t.0
    eMBSetSlaveID
        0x000068c8:    b570        p.      PUSH     {r4-r6,lr}
        0x000068ca:    2b1d        .+      CMP      r3,#0x1d
        0x000068cc:    d813        ..      BHI      0x68f6 ; eMBSetSlaveID + 46
        0x000068ce:    461c        .F      MOV      r4,r3
        0x000068d0:    4e0a        .N      LDR      r6,[pc,#40] ; [0x68fc] = 0x20000320
        0x000068d2:    2302        .#      MOVS     r3,#2
        0x000068d4:    8033        3.      STRH     r3,[r6,#0]
        0x000068d6:    70b0        .p      STRB     r0,[r6,#2]
        0x000068d8:    2500        .%      MOVS     r5,#0
        0x000068da:    2900        .)      CMP      r1,#0
        0x000068dc:    d000        ..      BEQ      0x68e0 ; eMBSetSlaveID + 24
        0x000068de:    43e9        .C      MVNS     r1,r5
        0x000068e0:    70f1        .p      STRB     r1,[r6,#3]
        0x000068e2:    2c00        .,      CMP      r4,#0
        0x000068e4:    d008        ..      BEQ      0x68f8 ; eMBSetSlaveID + 48
        0x000068e6:    1d30        0.      ADDS     r0,r6,#4
        0x000068e8:    4611        .F      MOV      r1,r2
        0x000068ea:    4622        "F      MOV      r2,r4
        0x000068ec:    f7f9fc18    ....    BL       __aeabi_memcpy ; 0x120
        0x000068f0:    1ca0        ..      ADDS     r0,r4,#2
        0x000068f2:    8030        0.      STRH     r0,[r6,#0]
        0x000068f4:    e000        ..      B        0x68f8 ; eMBSetSlaveID + 48
        0x000068f6:    2504        .%      MOVS     r5,#4
        0x000068f8:    4628        (F      MOV      r0,r5
        0x000068fa:    bd70        p.      POP      {r4-r6,pc}
    $d.1
    __arm_cp.0_0
        0x000068fc:    20000320     ..     DCD    536871712
    $t.14
    fputc
        0x00006900:    b510        ..      PUSH     {r4,lr}
        0x00006902:    4604        .F      MOV      r4,r0
        0x00006904:    f7fefa9c    ....    BL       SendChar_ToUART ; 0x4e40
        0x00006908:    4620         F      MOV      r0,r4
        0x0000690a:    bd10        ..      POP      {r4,pc}
    main
        0x0000690c:    f7fcf8e0    ....    BL       SB_SYS_Init ; 0x2ad0
        0x00006910:    20e1        .       MOVS     r0,#0xe1
        0x00006912:    0241        A.      LSLS     r1,r0,#9
        0x00006914:    4881        .H      LDR      r0,[pc,#516] ; [0x6b1c] = 0x40150000
        0x00006916:    2208        ."      MOVS     r2,#8
        0x00006918:    2400        .$      MOVS     r4,#0
        0x0000691a:    4623        #F      MOV      r3,r4
        0x0000691c:    f7fcf9f4    ....    BL       SB_Uart_Driver_Init ; 0x2d08
        0x00006920:    f7fcf8b8    ....    BL       SB_SPI_Driver_Init ; 0x2a94
        0x00006924:    f7fcfa9a    ....    BL       SB_WDT_Driver_Init ; 0x2e5c
        0x00006928:    f7fcf9e6    ....    BL       SB_Timer_Driver_Init ; 0x2cf8
        0x0000692c:    f7fcfa76    ..v.    BL       SB_Usb_Driver_Init ; 0x2e1c
        0x00006930:    f7fbfff2    ....    BL       SB_Client_GPIO_Init ; 0x2918
        0x00006934:    2201        ."      MOVS     r2,#1
        0x00006936:    0211        ..      LSLS     r1,r2,#8
        0x00006938:    4873        sH      LDR      r0,[pc,#460] ; [0x6b08] = 0x50004000
        0x0000693a:    f7fbf893    ....    BL       GPIO_SetMode ; 0x1a64
        0x0000693e:    f7fafd79    ..y.    BL       DataFlash_Client_Init ; 0x1434
        0x00006942:    f7fbfc97    ....    BL       Modbus_Init ; 0x2274
        0x00006946:    f7fbfebf    ....    BL       Radio_Start ; 0x26c8
        0x0000694a:    4d07        .M      LDR      r5,[pc,#28] ; [0x6968] = 0x200001a8
        0x0000694c:    4e07        .N      LDR      r6,[pc,#28] ; [0x696c] = 0x2000073c
        0x0000694e:    602c        ,`      STR      r4,[r5,#0]
        0x00006950:    203a        :       MOVS     r0,#0x3a
        0x00006952:    5c30        0\      LDRB     r0,[r6,r0]
        0x00006954:    2800        .(      CMP      r0,#0
        0x00006956:    d002        ..      BEQ      0x695e ; main + 82
        0x00006958:    f7fbfd3e    ..>.    BL       Modbus_Test_PC ; 0x23d8
        0x0000695c:    e7f7        ..      B        0x694e ; main + 66
        0x0000695e:    f7fbfd73    ..s.    BL       OnClient ; 0x2448
        0x00006962:    f7fbfd05    ....    BL       Modbus_Start ; 0x2370
        0x00006966:    e7f2        ..      B        0x694e ; main + 66
    $d.1
    __arm_cp.0_2
        0x00006968:    200001a8    ...     DCD    536871336
    __arm_cp.0_3
        0x0000696c:    2000073c    <..     DCD    536872764
    $t.2
    prveMBError2Exception
        0x00006970:    2800        .(      CMP      r0,#0
        0x00006972:    d008        ..      BEQ      0x6986 ; prveMBError2Exception + 22
        0x00006974:    2807        .(      CMP      r0,#7
        0x00006976:    d003        ..      BEQ      0x6980 ; prveMBError2Exception + 16
        0x00006978:    2801        .(      CMP      r0,#1
        0x0000697a:    d103        ..      BNE      0x6984 ; prveMBError2Exception + 20
        0x0000697c:    2002        .       MOVS     r0,#2
        0x0000697e:    4770        pG      BX       lr
        0x00006980:    2006        .       MOVS     r0,#6
        0x00006982:    4770        pG      BX       lr
        0x00006984:    2004        .       MOVS     r0,#4
        0x00006986:    4770        pG      BX       lr
    rbClear
        0x00006988:    2100        .!      MOVS     r1,#0
        0x0000698a:    7481        .t      STRB     r1,[r0,#0x12]
        0x0000698c:    6801        .h      LDR      r1,[r0,#0]
        0x0000698e:    6081        .`      STR      r1,[r0,#8]
        0x00006990:    60c1        .`      STR      r1,[r0,#0xc]
        0x00006992:    4770        pG      BX       lr
    rbInitialize
        0x00006994:    2300        .#      MOVS     r3,#0
        0x00006996:    7483        .t      STRB     r3,[r0,#0x12]
        0x00006998:    8202        ..      STRH     r2,[r0,#0x10]
        0x0000699a:    188a        ..      ADDS     r2,r1,r2
        0x0000699c:    c006        ..      STM      r0!,{r1,r2}
        0x0000699e:    6001        .`      STR      r1,[r0,#0]
        0x000069a0:    6041        A`      STR      r1,[r0,#4]
        0x000069a2:    4770        pG      BX       lr
    rbIsEmpty
        0x000069a4:    6881        .h      LDR      r1,[r0,#8]
        0x000069a6:    68c0        .h      LDR      r0,[r0,#0xc]
        0x000069a8:    1a09        ..      SUBS     r1,r1,r0
        0x000069aa:    4248        HB      RSBS     r0,r1,#0
        0x000069ac:    4148        HA      ADCS     r0,r0,r1
        0x000069ae:    4770        pG      BX       lr
    rbPop
        0x000069b0:    4601        .F      MOV      r1,r0
        0x000069b2:    6882        .h      LDR      r2,[r0,#8]
        0x000069b4:    68c0        .h      LDR      r0,[r0,#0xc]
        0x000069b6:    4290        .B      CMP      r0,r2
        0x000069b8:    d006        ..      BEQ      0x69c8 ; rbPop + 24
        0x000069ba:    1c42        B.      ADDS     r2,r0,#1
        0x000069bc:    60ca        .`      STR      r2,[r1,#0xc]
        0x000069be:    7800        .x      LDRB     r0,[r0,#0]
        0x000069c0:    684b        Kh      LDR      r3,[r1,#4]
        0x000069c2:    429a        .B      CMP      r2,r3
        0x000069c4:    d002        ..      BEQ      0x69cc ; rbPop + 28
        0x000069c6:    4770        pG      BX       lr
        0x000069c8:    2000        .       MOVS     r0,#0
        0x000069ca:    4770        pG      BX       lr
        0x000069cc:    8a0b        ..      LDRH     r3,[r1,#0x10]
        0x000069ce:    1ad2        ..      SUBS     r2,r2,r3
        0x000069d0:    60ca        .`      STR      r2,[r1,#0xc]
        0x000069d2:    4770        pG      BX       lr
    rbPush
        0x000069d4:    b510        ..      PUSH     {r4,lr}
        0x000069d6:    6844        Dh      LDR      r4,[r0,#4]
        0x000069d8:    6882        .h      LDR      r2,[r0,#8]
        0x000069da:    1c53        S.      ADDS     r3,r2,#1
        0x000069dc:    42a3        .B      CMP      r3,r4
        0x000069de:    d101        ..      BNE      0x69e4 ; rbPush + 16
        0x000069e0:    8a04        ..      LDRH     r4,[r0,#0x10]
        0x000069e2:    1b1b        ..      SUBS     r3,r3,r4
        0x000069e4:    68c4        .h      LDR      r4,[r0,#0xc]
        0x000069e6:    42a3        .B      CMP      r3,r4
        0x000069e8:    d002        ..      BEQ      0x69f0 ; rbPush + 28
        0x000069ea:    7011        .p      STRB     r1,[r2,#0]
        0x000069ec:    6083        .`      STR      r3,[r0,#8]
        0x000069ee:    bd10        ..      POP      {r4,pc}
        0x000069f0:    2101        .!      MOVS     r1,#1
        0x000069f2:    7481        .t      STRB     r1,[r0,#0x12]
        0x000069f4:    bd10        ..      POP      {r4,pc}
        0x000069f6:    0000        ..      MOVS     r0,r0
    vMBPortSerialEnable
        0x000069f8:    b510        ..      PUSH     {r4,lr}
        0x000069fa:    b672        r.      CPSID    i
        0x000069fc:    4a12        .J      LDR      r2,[pc,#72] ; [0x6a48] = 0x40150004
        0x000069fe:    4b13        .K      LDR      r3,[pc,#76] ; [0x6a4c] = 0x50004220
        0x00006a00:    2800        .(      CMP      r0,#0
        0x00006a02:    d006        ..      BEQ      0x6a12 ; vMBPortSerialEnable + 26
        0x00006a04:    6810        .h      LDR      r0,[r2,#0]
        0x00006a06:    2401        .$      MOVS     r4,#1
        0x00006a08:    4304        .C      ORRS     r4,r4,r0
        0x00006a0a:    6014        .`      STR      r4,[r2,#0]
        0x00006a0c:    2000        .       MOVS     r0,#0
        0x00006a0e:    6018        .`      STR      r0,[r3,#0]
        0x00006a10:    e004        ..      B        0x6a1c ; vMBPortSerialEnable + 36
        0x00006a12:    2001        .       MOVS     r0,#1
        0x00006a14:    6018        .`      STR      r0,[r3,#0]
        0x00006a16:    6813        .h      LDR      r3,[r2,#0]
        0x00006a18:    4383        .C      BICS     r3,r3,r0
        0x00006a1a:    6013        .`      STR      r3,[r2,#0]
        0x00006a1c:    1e48        H.      SUBS     r0,r1,#1
        0x00006a1e:    4181        .A      SBCS     r1,r1,r0
        0x00006a20:    0048        H.      LSLS     r0,r1,#1
        0x00006a22:    6811        .h      LDR      r1,[r2,#0]
        0x00006a24:    2302        .#      MOVS     r3,#2
        0x00006a26:    4399        .C      BICS     r1,r1,r3
        0x00006a28:    1808        ..      ADDS     r0,r1,r0
        0x00006a2a:    6010        .`      STR      r0,[r2,#0]
        0x00006a2c:    2001        .       MOVS     r0,#1
        0x00006a2e:    0341        A.      LSLS     r1,r0,#13
        0x00006a30:    4a53        SJ      LDR      r2,[pc,#332] ; [0x6b80] = 0xe000e100
        0x00006a32:    6011        .`      STR      r1,[r2,#0]
        0x00006a34:    21ff        .!      MOVS     r1,#0xff
        0x00006a36:    0209        ..      LSLS     r1,r1,#8
        0x00006a38:    4a05        .J      LDR      r2,[pc,#20] ; [0x6a50] = 0xe000e40c
        0x00006a3a:    6813        .h      LDR      r3,[r2,#0]
        0x00006a3c:    438b        .C      BICS     r3,r3,r1
        0x00006a3e:    03c0        ..      LSLS     r0,r0,#15
        0x00006a40:    1818        ..      ADDS     r0,r3,r0
        0x00006a42:    6010        .`      STR      r0,[r2,#0]
        0x00006a44:    b662        b.      CPSIE    i
        0x00006a46:    bd10        ..      POP      {r4,pc}
    $d.1
    __arm_cp.0_0
        0x00006a48:    40150004    ...@    DCD    1075118084
    __arm_cp.0_1
        0x00006a4c:    50004220     B.P    DCD    1342194208
    __arm_cp.0_3
        0x00006a50:    e000e40c    ....    DCD    3758154764
    $t.4
    vMBPortTimersDisable
        0x00006a54:    2001        .       MOVS     r0,#1
        0x00006a56:    0781        ..      LSLS     r1,r0,#30
        0x00006a58:    4a48        HJ      LDR      r2,[pc,#288] ; [0x6b7c] = 0x40110000
        0x00006a5a:    6813        .h      LDR      r3,[r2,#0]
        0x00006a5c:    438b        .C      BICS     r3,r3,r1
        0x00006a5e:    6013        .`      STR      r3,[r2,#0]
        0x00006a60:    0680        ..      LSLS     r0,r0,#26
        0x00006a62:    6811        .h      LDR      r1,[r2,#0]
        0x00006a64:    4301        .C      ORRS     r1,r1,r0
        0x00006a66:    6011        .`      STR      r1,[r2,#0]
        0x00006a68:    4770        pG      BX       lr
        0x00006a6a:    46c0        .F      MOV      r8,r8
    vMBPortTimersEnable
        0x00006a6c:    2001        .       MOVS     r0,#1
        0x00006a6e:    0681        ..      LSLS     r1,r0,#26
        0x00006a70:    4a42        BJ      LDR      r2,[pc,#264] ; [0x6b7c] = 0x40110000
        0x00006a72:    6813        .h      LDR      r3,[r2,#0]
        0x00006a74:    430b        .C      ORRS     r3,r3,r1
        0x00006a76:    6013        .`      STR      r3,[r2,#0]
        0x00006a78:    0780        ..      LSLS     r0,r0,#30
        0x00006a7a:    6811        .h      LDR      r1,[r2,#0]
        0x00006a7c:    4301        .C      ORRS     r1,r1,r0
        0x00006a7e:    6011        .`      STR      r1,[r2,#0]
        0x00006a80:    4770        pG      BX       lr
        0x00006a82:    46c0        .F      MOV      r8,r8
    xMBPortEventGet
        0x00006a84:    490b        .I      LDR      r1,[pc,#44] ; [0x6ab4] = 0x20000368
        0x00006a86:    780a        .x      LDRB     r2,[r1,#0]
        0x00006a88:    2a01        .*      CMP      r2,#1
        0x00006a8a:    d105        ..      BNE      0x6a98 ; xMBPortEventGet + 20
        0x00006a8c:    784a        Jx      LDRB     r2,[r1,#1]
        0x00006a8e:    7002        .p      STRB     r2,[r0,#0]
        0x00006a90:    2000        .       MOVS     r0,#0
        0x00006a92:    7008        .p      STRB     r0,[r1,#0]
        0x00006a94:    2001        .       MOVS     r0,#1
        0x00006a96:    4770        pG      BX       lr
        0x00006a98:    2000        .       MOVS     r0,#0
        0x00006a9a:    4770        pG      BX       lr
    xMBPortEventInit
        0x00006a9c:    4805        .H      LDR      r0,[pc,#20] ; [0x6ab4] = 0x20000368
        0x00006a9e:    2100        .!      MOVS     r1,#0
        0x00006aa0:    7001        .p      STRB     r1,[r0,#0]
        0x00006aa2:    2001        .       MOVS     r0,#1
        0x00006aa4:    4770        pG      BX       lr
        0x00006aa6:    46c0        .F      MOV      r8,r8
    xMBPortEventPost
        0x00006aa8:    4902        .I      LDR      r1,[pc,#8] ; [0x6ab4] = 0x20000368
        0x00006aaa:    7048        Hp      STRB     r0,[r1,#1]
        0x00006aac:    2001        .       MOVS     r0,#1
        0x00006aae:    7008        .p      STRB     r0,[r1,#0]
        0x00006ab0:    4770        pG      BX       lr
        0x00006ab2:    46c0        .F      MOV      r8,r8
    $d.3
    __arm_cp.1_0
        0x00006ab4:    20000368    h..     DCD    536871784
    $t.8
    xMBPortSerialGetByte
        0x00006ab8:    4918        .I      LDR      r1,[pc,#96] ; [0x6b1c] = 0x40150000
        0x00006aba:    698a        .i      LDR      r2,[r1,#0x18]
        0x00006abc:    0412        ..      LSLS     r2,r2,#16
        0x00006abe:    d4fc        ..      BMI      0x6aba ; xMBPortSerialGetByte + 2
        0x00006ac0:    6809        .h      LDR      r1,[r1,#0]
        0x00006ac2:    7001        .p      STRB     r1,[r0,#0]
        0x00006ac4:    2001        .       MOVS     r0,#1
        0x00006ac6:    4770        pG      BX       lr
    xMBPortSerialInit
        0x00006ac8:    b5f8        ..      PUSH     {r3-r7,lr}
        0x00006aca:    9300        ..      STR      r3,[sp,#0]
        0x00006acc:    4616        .F      MOV      r6,r2
        0x00006ace:    460f        .F      MOV      r7,r1
        0x00006ad0:    4605        .F      MOV      r5,r0
        0x00006ad2:    2401        .$      MOVS     r4,#1
        0x00006ad4:    0221        !.      LSLS     r1,r4,#8
        0x00006ad6:    480c        .H      LDR      r0,[pc,#48] ; [0x6b08] = 0x50004000
        0x00006ad8:    4622        "F      MOV      r2,r4
        0x00006ada:    f7faffc3    ....    BL       GPIO_SetMode ; 0x1a64
        0x00006ade:    2d00        .-      CMP      r5,#0
        0x00006ae0:    d001        ..      BEQ      0x6ae6 ; xMBPortSerialInit + 30
        0x00006ae2:    2400        .$      MOVS     r4,#0
        0x00006ae4:    e00d        ..      B        0x6b02 ; xMBPortSerialInit + 58
        0x00006ae6:    9b00        ..      LDR      r3,[sp,#0]
        0x00006ae8:    2b02        .+      CMP      r3,#2
        0x00006aea:    d80a        ..      BHI      0x6b02 ; xMBPortSerialInit + 58
        0x00006aec:    2081        .       MOVS     r0,#0x81
        0x00006aee:    0240        @.      LSLS     r0,r0,#9
        0x00006af0:    06db        ..      LSLS     r3,r3,#27
        0x00006af2:    0e1b        ..      LSRS     r3,r3,#24
        0x00006af4:    40d8        .@      LSRS     r0,r0,r3
        0x00006af6:    b2c3        ..      UXTB     r3,r0
        0x00006af8:    4808        .H      LDR      r0,[pc,#32] ; [0x6b1c] = 0x40150000
        0x00006afa:    4639        9F      MOV      r1,r7
        0x00006afc:    4632        2F      MOV      r2,r6
        0x00006afe:    f7fcf903    ....    BL       SB_Uart_Driver_Init ; 0x2d08
        0x00006b02:    4620         F      MOV      r0,r4
        0x00006b04:    bdf8        ..      POP      {r3-r7,pc}
        0x00006b06:    46c0        .F      MOV      r8,r8
    $d.5
    __arm_cp.2_0
        0x00006b08:    50004000    .@.P    DCD    1342193664
    $t.6
    xMBPortSerialPutByte
        0x00006b0c:    4903        .I      LDR      r1,[pc,#12] ; [0x6b1c] = 0x40150000
        0x00006b0e:    6008        .`      STR      r0,[r1,#0]
        0x00006b10:    6988        .i      LDR      r0,[r1,#0x18]
        0x00006b12:    0240        @.      LSLS     r0,r0,#9
        0x00006b14:    d4fc        ..      BMI      0x6b10 ; xMBPortSerialPutByte + 4
        0x00006b16:    2001        .       MOVS     r0,#1
        0x00006b18:    4770        pG      BX       lr
        0x00006b1a:    46c0        .F      MOV      r8,r8
    $d.7
    __arm_cp.3_0
        0x00006b1c:    40150000    ...@    DCD    1075118080
    $t.0
    xMBPortTimersInit
        0x00006b20:    b5b0        ..      PUSH     {r4,r5,r7,lr}
        0x00006b22:    4604        .F      MOV      r4,r0
        0x00006b24:    4d13        .M      LDR      r5,[pc,#76] ; [0x6b74] = 0x5f000004
        0x00006b26:    4628        (F      MOV      r0,r5
        0x00006b28:    f7f9ff6e    ..n.    BL       CLK_EnableModuleClock ; 0xa08
        0x00006b2c:    2007        .       MOVS     r0,#7
        0x00006b2e:    0401        ..      LSLS     r1,r0,#16
        0x00006b30:    2200        ."      MOVS     r2,#0
        0x00006b32:    4628        (F      MOV      r0,r5
        0x00006b34:    f7faf900    ....    BL       CLK_SetModuleClock ; 0xd38
        0x00006b38:    480f        .H      LDR      r0,[pc,#60] ; [0x6b78] = 0x4000004
        0x00006b3a:    f7fdff75    ..u.    BL       SYS_ResetModule ; 0x4a28
        0x00006b3e:    2003        .       MOVS     r0,#3
        0x00006b40:    06c0        ..      LSLS     r0,r0,#27
        0x00006b42:    490e        .I      LDR      r1,[pc,#56] ; [0x6b7c] = 0x40110000
        0x00006b44:    680a        .h      LDR      r2,[r1,#0]
        0x00006b46:    4382        .C      BICS     r2,r2,r0
        0x00006b48:    600a        .`      STR      r2,[r1,#0]
        0x00006b4a:    2001        .       MOVS     r0,#1
        0x00006b4c:    06c2        ..      LSLS     r2,r0,#27
        0x00006b4e:    680b        .h      LDR      r3,[r1,#0]
        0x00006b50:    4313        .C      ORRS     r3,r3,r2
        0x00006b52:    600b        .`      STR      r3,[r1,#0]
        0x00006b54:    680a        .h      LDR      r2,[r1,#0]
        0x00006b56:    23ff        .#      MOVS     r3,#0xff
        0x00006b58:    439a        .C      BICS     r2,r2,r3
        0x00006b5a:    600a        .`      STR      r2,[r1,#0]
        0x00006b5c:    224b        K"      MOVS     r2,#0x4b
        0x00006b5e:    00d2        ..      LSLS     r2,r2,#3
        0x00006b60:    4362        bC      MULS     r2,r4,r2
        0x00006b62:    604a        J`      STR      r2,[r1,#4]
        0x00006b64:    0742        B.      LSLS     r2,r0,#29
        0x00006b66:    680b        .h      LDR      r3,[r1,#0]
        0x00006b68:    4313        .C      ORRS     r3,r3,r2
        0x00006b6a:    600b        .`      STR      r3,[r1,#0]
        0x00006b6c:    0281        ..      LSLS     r1,r0,#10
        0x00006b6e:    4a04        .J      LDR      r2,[pc,#16] ; [0x6b80] = 0xe000e100
        0x00006b70:    6011        .`      STR      r1,[r2,#0]
        0x00006b72:    bdb0        ..      POP      {r4,r5,r7,pc}
    $d.1
    __arm_cp.0_0
        0x00006b74:    5f000004    ..._    DCD    1593835524
    __arm_cp.0_1
        0x00006b78:    04000004    ....    DCD    67108868
    __arm_cp.0_2
        0x00006b7c:    40110000    ...@    DCD    1074855936
    __arm_cp.0_3
        0x00006b80:    e000e100    ....    DCD    3758153984
    $t.9
    xMBRTUReceiveFSM
        0x00006b84:    b5e0        ..      PUSH     {r5-r7,lr}
        0x00006b86:    a801        ..      ADD      r0,sp,#4
        0x00006b88:    f7ffff96    ....    BL       xMBPortSerialGetByte ; 0x6ab8
        0x00006b8c:    4830        0H      LDR      r0,[pc,#192] ; [0x6c50] = 0x20000344
        0x00006b8e:    7801        .x      LDRB     r1,[r0,#0]
        0x00006b90:    2903        .)      CMP      r1,#3
        0x00006b92:    d81d        ..      BHI      0x6bd0 ; xMBRTUReceiveFSM + 76
        0x00006b94:    4479        yD      ADD      r1,r1,pc
        0x00006b96:    7909        .y      LDRB     r1,[r1,#4]
        0x00006b98:    0049        I.      LSLS     r1,r1,#1
        0x00006b9a:    448f        .D      ADD      pc,pc,r1
    $d.10
        0x00006b9c:    170b0117    ....    DCD    386597143
    $t.11
        0x00006ba0:    2100        .!      MOVS     r1,#0
        0x00006ba2:    8041        A.      STRH     r1,[r0,#2]
        0x00006ba4:    8841        A.      LDRH     r1,[r0,#2]
        0x00006ba6:    1c4a        J.      ADDS     r2,r1,#1
        0x00006ba8:    8042        B.      STRH     r2,[r0,#2]
        0x00006baa:    4a0a        .J      LDR      r2,[pc,#40] ; [0x6bd4] = 0x20002da4
        0x00006bac:    9b01        ..      LDR      r3,[sp,#4]
        0x00006bae:    5453        ST      STRB     r3,[r2,r1]
        0x00006bb0:    2102        .!      MOVS     r1,#2
        0x00006bb2:    e00a        ..      B        0x6bca ; xMBRTUReceiveFSM + 70
        0x00006bb4:    8841        A.      LDRH     r1,[r0,#2]
        0x00006bb6:    29ff        .)      CMP      r1,#0xff
        0x00006bb8:    d806        ..      BHI      0x6bc8 ; xMBRTUReceiveFSM + 68
        0x00006bba:    8841        A.      LDRH     r1,[r0,#2]
        0x00006bbc:    1c4a        J.      ADDS     r2,r1,#1
        0x00006bbe:    8042        B.      STRH     r2,[r0,#2]
        0x00006bc0:    4804        .H      LDR      r0,[pc,#16] ; [0x6bd4] = 0x20002da4
        0x00006bc2:    9a01        ..      LDR      r2,[sp,#4]
        0x00006bc4:    5442        BT      STRB     r2,[r0,r1]
        0x00006bc6:    e001        ..      B        0x6bcc ; xMBRTUReceiveFSM + 72
        0x00006bc8:    2103        .!      MOVS     r1,#3
        0x00006bca:    7001        .p      STRB     r1,[r0,#0]
        0x00006bcc:    f7ffff4e    ..N.    BL       vMBPortTimersEnable ; 0x6a6c
        0x00006bd0:    2000        .       MOVS     r0,#0
        0x00006bd2:    bd8c        ..      POP      {r2,r3,r7,pc}
    $d.12
    __arm_cp.5_1
        0x00006bd4:    20002da4    .-.     DCD    536882596
    $t.15
    xMBRTUTimerT35Expired
        0x00006bd8:    b5b0        ..      PUSH     {r4,r5,r7,lr}
        0x00006bda:    4d1d        .M      LDR      r5,[pc,#116] ; [0x6c50] = 0x20000344
        0x00006bdc:    7828        (x      LDRB     r0,[r5,#0]
        0x00006bde:    2800        .(      CMP      r0,#0
        0x00006be0:    d002        ..      BEQ      0x6be8 ; xMBRTUTimerT35Expired + 16
        0x00006be2:    2802        .(      CMP      r0,#2
        0x00006be4:    d104        ..      BNE      0x6bf0 ; xMBRTUTimerT35Expired + 24
        0x00006be6:    2001        .       MOVS     r0,#1
        0x00006be8:    f7ffff5e    ..^.    BL       xMBPortEventPost ; 0x6aa8
        0x00006bec:    4604        .F      MOV      r4,r0
        0x00006bee:    e000        ..      B        0x6bf2 ; xMBRTUTimerT35Expired + 26
        0x00006bf0:    2400        .$      MOVS     r4,#0
        0x00006bf2:    f7ffff2f    ../.    BL       vMBPortTimersDisable ; 0x6a54
        0x00006bf6:    2001        .       MOVS     r0,#1
        0x00006bf8:    7028        (p      STRB     r0,[r5,#0]
        0x00006bfa:    4620         F      MOV      r0,r4
        0x00006bfc:    bdb0        ..      POP      {r4,r5,r7,pc}
        0x00006bfe:    46c0        .F      MOV      r8,r8
    xMBRTUTransmitFSM
        0x00006c00:    b570        p.      PUSH     {r4-r6,lr}
        0x00006c02:    4e13        .N      LDR      r6,[pc,#76] ; [0x6c50] = 0x20000344
        0x00006c04:    7870        px      LDRB     r0,[r6,#1]
        0x00006c06:    2400        .$      MOVS     r4,#0
        0x00006c08:    2801        .(      CMP      r0,#1
        0x00006c0a:    d007        ..      BEQ      0x6c1c ; xMBRTUTransmitFSM + 28
        0x00006c0c:    2800        .(      CMP      r0,#0
        0x00006c0e:    d11d        ..      BNE      0x6c4c ; xMBRTUTransmitFSM + 76
        0x00006c10:    2001        .       MOVS     r0,#1
        0x00006c12:    2400        .$      MOVS     r4,#0
        0x00006c14:    4621        !F      MOV      r1,r4
        0x00006c16:    f7fffeef    ....    BL       vMBPortSerialEnable ; 0x69f8
        0x00006c1a:    e017        ..      B        0x6c4c ; xMBRTUTransmitFSM + 76
        0x00006c1c:    88b0        ..      LDRH     r0,[r6,#4]
        0x00006c1e:    2800        .(      CMP      r0,#0
        0x00006c20:    d00a        ..      BEQ      0x6c38 ; xMBRTUTransmitFSM + 56
        0x00006c22:    68b0        .h      LDR      r0,[r6,#8]
        0x00006c24:    7800        .x      LDRB     r0,[r0,#0]
        0x00006c26:    f7ffff71    ..q.    BL       xMBPortSerialPutByte ; 0x6b0c
        0x00006c2a:    68b0        .h      LDR      r0,[r6,#8]
        0x00006c2c:    1c40        @.      ADDS     r0,r0,#1
        0x00006c2e:    60b0        .`      STR      r0,[r6,#8]
        0x00006c30:    88b0        ..      LDRH     r0,[r6,#4]
        0x00006c32:    1e40        @.      SUBS     r0,r0,#1
        0x00006c34:    80b0        ..      STRH     r0,[r6,#4]
        0x00006c36:    e009        ..      B        0x6c4c ; xMBRTUTransmitFSM + 76
        0x00006c38:    2003        .       MOVS     r0,#3
        0x00006c3a:    f7ffff35    ..5.    BL       xMBPortEventPost ; 0x6aa8
        0x00006c3e:    4604        .F      MOV      r4,r0
        0x00006c40:    2001        .       MOVS     r0,#1
        0x00006c42:    2500        .%      MOVS     r5,#0
        0x00006c44:    4629        )F      MOV      r1,r5
        0x00006c46:    f7fffed7    ....    BL       vMBPortSerialEnable ; 0x69f8
        0x00006c4a:    7075        up      STRB     r5,[r6,#1]
        0x00006c4c:    4620         F      MOV      r0,r4
        0x00006c4e:    bd70        p.      POP      {r4-r6,pc}
    $d.14
    __arm_cp.6_0
        0x00006c50:    20000344    D..     DCD    536871748
    $t.1
    xMBUtilGetBits
        0x00006c54:    b510        ..      PUSH     {r4,lr}
        0x00006c56:    08cb        ..      LSRS     r3,r1,#3
        0x00006c58:    5cc4        .\      LDRB     r4,[r0,r3]
        0x00006c5a:    18c0        ..      ADDS     r0,r0,r3
        0x00006c5c:    7840        @x      LDRB     r0,[r0,#1]
        0x00006c5e:    0200        ..      LSLS     r0,r0,#8
        0x00006c60:    1900        ..      ADDS     r0,r0,r4
        0x00006c62:    b280        ..      UXTH     r0,r0
        0x00006c64:    2307        .#      MOVS     r3,#7
        0x00006c66:    400b        .@      ANDS     r3,r3,r1
        0x00006c68:    40d8        .@      LSRS     r0,r0,r3
        0x00006c6a:    2100        .!      MOVS     r1,#0
        0x00006c6c:    43c9        .C      MVNS     r1,r1
        0x00006c6e:    4091        .@      LSLS     r1,r1,r2
        0x00006c70:    4388        .C      BICS     r0,r0,r1
        0x00006c72:    b2c0        ..      UXTB     r0,r0
        0x00006c74:    bd10        ..      POP      {r4,pc}
    xMBUtilSetBits
        0x00006c76:    b5f0        ..      PUSH     {r4-r7,lr}
        0x00006c78:    2407        .$      MOVS     r4,#7
        0x00006c7a:    400c        .@      ANDS     r4,r4,r1
        0x00006c7c:    2500        .%      MOVS     r5,#0
        0x00006c7e:    43ed        .C      MVNS     r5,r5
        0x00006c80:    4095        .@      LSLS     r5,r5,r2
        0x00006c82:    43ea        .C      MVNS     r2,r5
        0x00006c84:    40a2        .@      LSLS     r2,r2,r4
        0x00006c86:    08c9        ..      LSRS     r1,r1,#3
        0x00006c88:    5c45        E\      LDRB     r5,[r0,r1]
        0x00006c8a:    1846        F.      ADDS     r6,r0,r1
        0x00006c8c:    7877        wx      LDRB     r7,[r6,#1]
        0x00006c8e:    023f        ?.      LSLS     r7,r7,#8
        0x00006c90:    197d        }.      ADDS     r5,r7,r5
        0x00006c92:    4395        .C      BICS     r5,r5,r2
        0x00006c94:    40a3        .@      LSLS     r3,r3,r4
        0x00006c96:    432b        +C      ORRS     r3,r3,r5
        0x00006c98:    5443        CT      STRB     r3,[r0,r1]
        0x00006c9a:    0a18        ..      LSRS     r0,r3,#8
        0x00006c9c:    7070        pp      STRB     r0,[r6,#1]
        0x00006c9e:    bdf0        ..      POP      {r4-r7,pc}
    xtime
        0x00006ca0:    b241        A.      SXTB     r1,r0
        0x00006ca2:    09c9        ..      LSRS     r1,r1,#7
        0x00006ca4:    221b        ."      MOVS     r2,#0x1b
        0x00006ca6:    400a        .@      ANDS     r2,r2,r1
        0x00006ca8:    0040        @.      LSLS     r0,r0,#1
        0x00006caa:    4050        P@      EORS     r0,r0,r2
        0x00006cac:    b2c0        ..      UXTB     r0,r0
        0x00006cae:    4770        pG      BX       lr
    $t
    i.__0printf$8
    __0printf$8
    __1printf$8
    __2printf
        0x00006cb0:    b40f        ..      PUSH     {r0-r3}
        0x00006cb2:    b510        ..      PUSH     {r4,lr}
        0x00006cb4:    a903        ..      ADD      r1,sp,#0xc
        0x00006cb6:    4b04        .K      LDR      r3,[pc,#16] ; [0x6cc8] = 0x6901
        0x00006cb8:    4a04        .J      LDR      r2,[pc,#16] ; [0x6ccc] = 0x20000638
        0x00006cba:    9802        ..      LDR      r0,[sp,#8]
        0x00006cbc:    f000f84a    ..J.    BL       _printf_core ; 0x6d54
        0x00006cc0:    bc10        ..      POP      {r4}
        0x00006cc2:    bc08        ..      POP      {r3}
        0x00006cc4:    b004        ..      ADD      sp,sp,#0x10
        0x00006cc6:    4718        .G      BX       r3
    $d
        0x00006cc8:    00006901    .i..    DCD    26881
        0x00006ccc:    20000638    8..     DCD    536872504
    $t
    i.__ARM_clz
    __ARM_clz
        0x00006cd0:    2120         !      MOVS     r1,#0x20
        0x00006cd2:    0c02        ..      LSRS     r2,r0,#16
        0x00006cd4:    d001        ..      BEQ      0x6cda ; __ARM_clz + 10
        0x00006cd6:    2110        .!      MOVS     r1,#0x10
        0x00006cd8:    4610        .F      MOV      r0,r2
        0x00006cda:    0a02        ..      LSRS     r2,r0,#8
        0x00006cdc:    d001        ..      BEQ      0x6ce2 ; __ARM_clz + 18
        0x00006cde:    4610        .F      MOV      r0,r2
        0x00006ce0:    3908        .9      SUBS     r1,r1,#8
        0x00006ce2:    0902        ..      LSRS     r2,r0,#4
        0x00006ce4:    d001        ..      BEQ      0x6cea ; __ARM_clz + 26
        0x00006ce6:    4610        .F      MOV      r0,r2
        0x00006ce8:    1f09        ..      SUBS     r1,r1,#4
        0x00006cea:    0882        ..      LSRS     r2,r0,#2
        0x00006cec:    d001        ..      BEQ      0x6cf2 ; __ARM_clz + 34
        0x00006cee:    4610        .F      MOV      r0,r2
        0x00006cf0:    1e89        ..      SUBS     r1,r1,#2
        0x00006cf2:    0842        B.      LSRS     r2,r0,#1
        0x00006cf4:    d001        ..      BEQ      0x6cfa ; __ARM_clz + 42
        0x00006cf6:    1e88        ..      SUBS     r0,r1,#2
        0x00006cf8:    4770        pG      BX       lr
        0x00006cfa:    1a08        ..      SUBS     r0,r1,r0
        0x00006cfc:    4770        pG      BX       lr
        0x00006cfe:    0000        ..      MOVS     r0,r0
    i.__mathlib_dbl_overflow
    __mathlib_dbl_overflow
        0x00006d00:    b510        ..      PUSH     {r4,lr}
        0x00006d02:    2107        .!      MOVS     r1,#7
        0x00006d04:    4a02        .J      LDR      r2,[pc,#8] ; [0x6d10] = 0x301
        0x00006d06:    2000        .       MOVS     r0,#0
        0x00006d08:    0709        ..      LSLS     r1,r1,#28
        0x00006d0a:    f7f9fd52    ..R.    BL       __ARM_scalbn ; 0x7b2
        0x00006d0e:    bd10        ..      POP      {r4,pc}
    $d
        0x00006d10:    00000301    ....    DCD    769
    $t
    i.__mathlib_dbl_underflow
    __mathlib_dbl_underflow
        0x00006d14:    4a03        .J      LDR      r2,[pc,#12] ; [0x6d24] = 0xfffffd01
        0x00006d16:    b510        ..      PUSH     {r4,lr}
        0x00006d18:    2000        .       MOVS     r0,#0
        0x00006d1a:    0711        ..      LSLS     r1,r2,#28
        0x00006d1c:    f7f9fd49    ..I.    BL       __ARM_scalbn ; 0x7b2
        0x00006d20:    bd10        ..      POP      {r4,pc}
    $d
        0x00006d22:    0000        ..      DCW    0
        0x00006d24:    fffffd01    ....    DCD    4294966529
    $t
    i.__scatterload_copy
    __scatterload_copy
        0x00006d28:    e002        ..      B        0x6d30 ; __scatterload_copy + 8
        0x00006d2a:    c808        ..      LDM      r0!,{r3}
        0x00006d2c:    1f12        ..      SUBS     r2,r2,#4
        0x00006d2e:    c108        ..      STM      r1!,{r3}
        0x00006d30:    2a00        .*      CMP      r2,#0
        0x00006d32:    d1fa        ..      BNE      0x6d2a ; __scatterload_copy + 2
        0x00006d34:    4770        pG      BX       lr
    i.__scatterload_null
    __scatterload_null
        0x00006d36:    4770        pG      BX       lr
    i.__scatterload_zeroinit
    __scatterload_zeroinit
        0x00006d38:    2000        .       MOVS     r0,#0
        0x00006d3a:    e001        ..      B        0x6d40 ; __scatterload_zeroinit + 8
        0x00006d3c:    c101        ..      STM      r1!,{r0}
        0x00006d3e:    1f12        ..      SUBS     r2,r2,#4
        0x00006d40:    2a00        .*      CMP      r2,#0
        0x00006d42:    d1fb        ..      BNE      0x6d3c ; __scatterload_zeroinit + 4
        0x00006d44:    4770        pG      BX       lr
        0x00006d46:    0000        ..      MOVS     r0,r0
    i.__set_errno
    __set_errno
        0x00006d48:    4901        .I      LDR      r1,[pc,#4] ; [0x6d50] = 0x20000000
        0x00006d4a:    6008        .`      STR      r0,[r1,#0]
        0x00006d4c:    4770        pG      BX       lr
    $d
        0x00006d4e:    0000        ..      DCW    0
        0x00006d50:    20000000    ...     DCD    536870912
    $t
    i._printf_core
    _printf_core
        0x00006d54:    b5ff        ..      PUSH     {r0-r7,lr}
        0x00006d56:    b091        ..      SUB      sp,sp,#0x44
        0x00006d58:    460f        .F      MOV      r7,r1
        0x00006d5a:    4605        .F      MOV      r5,r0
        0x00006d5c:    2600        .&      MOVS     r6,#0
        0x00006d5e:    e006        ..      B        0x6d6e ; _printf_core + 26
        0x00006d60:    2825        %(      CMP      r0,#0x25
        0x00006d62:    d00a        ..      BEQ      0x6d7a ; _printf_core + 38
        0x00006d64:    9a14        ..      LDR      r2,[sp,#0x50]
        0x00006d66:    9913        ..      LDR      r1,[sp,#0x4c]
        0x00006d68:    4790        .G      BLX      r2
        0x00006d6a:    1c6d        m.      ADDS     r5,r5,#1
        0x00006d6c:    1c76        v.      ADDS     r6,r6,#1
        0x00006d6e:    7828        (x      LDRB     r0,[r5,#0]
        0x00006d70:    2800        .(      CMP      r0,#0
        0x00006d72:    d1f5        ..      BNE      0x6d60 ; _printf_core + 12
        0x00006d74:    4630        0F      MOV      r0,r6
        0x00006d76:    b015        ..      ADD      sp,sp,#0x54
        0x00006d78:    bdf0        ..      POP      {r4-r7,pc}
        0x00006d7a:    2400        .$      MOVS     r4,#0
        0x00006d7c:    9400        ..      STR      r4,[sp,#0]
        0x00006d7e:    2101        .!      MOVS     r1,#1
        0x00006d80:    4af3        .J      LDR      r2,[pc,#972] ; [0x7150] = 0x12809
        0x00006d82:    9402        ..      STR      r4,[sp,#8]
        0x00006d84:    e000        ..      B        0x6d88 ; _printf_core + 52
        0x00006d86:    4304        .C      ORRS     r4,r4,r0
        0x00006d88:    1c6d        m.      ADDS     r5,r5,#1
        0x00006d8a:    782b        +x      LDRB     r3,[r5,#0]
        0x00006d8c:    4608        .F      MOV      r0,r1
        0x00006d8e:    3b20         ;      SUBS     r3,r3,#0x20
        0x00006d90:    4098        .@      LSLS     r0,r0,r3
        0x00006d92:    4210        .B      TST      r0,r2
        0x00006d94:    d1f7        ..      BNE      0x6d86 ; _printf_core + 50
        0x00006d96:    7828        (x      LDRB     r0,[r5,#0]
        0x00006d98:    282a        *(      CMP      r0,#0x2a
        0x00006d9a:    d00e        ..      BEQ      0x6dba ; _printf_core + 102
        0x00006d9c:    2102        .!      MOVS     r1,#2
        0x00006d9e:    7828        (x      LDRB     r0,[r5,#0]
        0x00006da0:    4602        .F      MOV      r2,r0
        0x00006da2:    3a30        0:      SUBS     r2,r2,#0x30
        0x00006da4:    2a09        .*      CMP      r2,#9
        0x00006da6:    d815        ..      BHI      0x6dd4 ; _printf_core + 128
        0x00006da8:    9a00        ..      LDR      r2,[sp,#0]
        0x00006daa:    230a        .#      MOVS     r3,#0xa
        0x00006dac:    435a        ZC      MULS     r2,r3,r2
        0x00006dae:    3a30        0:      SUBS     r2,r2,#0x30
        0x00006db0:    1880        ..      ADDS     r0,r0,r2
        0x00006db2:    430c        .C      ORRS     r4,r4,r1
        0x00006db4:    1c6d        m.      ADDS     r5,r5,#1
        0x00006db6:    9000        ..      STR      r0,[sp,#0]
        0x00006db8:    e7f1        ..      B        0x6d9e ; _printf_core + 74
        0x00006dba:    cf01        ..      LDM      r7!,{r0}
        0x00006dbc:    9000        ..      STR      r0,[sp,#0]
        0x00006dbe:    2800        .(      CMP      r0,#0
        0x00006dc0:    da05        ..      BGE      0x6dce ; _printf_core + 122
        0x00006dc2:    2001        .       MOVS     r0,#1
        0x00006dc4:    0340        @.      LSLS     r0,r0,#13
        0x00006dc6:    4304        .C      ORRS     r4,r4,r0
        0x00006dc8:    9800        ..      LDR      r0,[sp,#0]
        0x00006dca:    4240        @B      RSBS     r0,r0,#0
        0x00006dcc:    9000        ..      STR      r0,[sp,#0]
        0x00006dce:    2002        .       MOVS     r0,#2
        0x00006dd0:    4304        .C      ORRS     r4,r4,r0
        0x00006dd2:    1c6d        m.      ADDS     r5,r5,#1
        0x00006dd4:    7828        (x      LDRB     r0,[r5,#0]
        0x00006dd6:    282e        .(      CMP      r0,#0x2e
        0x00006dd8:    d115        ..      BNE      0x6e06 ; _printf_core + 178
        0x00006dda:    2004        .       MOVS     r0,#4
        0x00006ddc:    4304        .C      ORRS     r4,r4,r0
        0x00006dde:    7868        hx      LDRB     r0,[r5,#1]
        0x00006de0:    1c6d        m.      ADDS     r5,r5,#1
        0x00006de2:    282a        *(      CMP      r0,#0x2a
        0x00006de4:    d10a        ..      BNE      0x6dfc ; _printf_core + 168
        0x00006de6:    cf01        ..      LDM      r7!,{r0}
        0x00006de8:    1c6d        m.      ADDS     r5,r5,#1
        0x00006dea:    9002        ..      STR      r0,[sp,#8]
        0x00006dec:    e00b        ..      B        0x6e06 ; _printf_core + 178
        0x00006dee:    9902        ..      LDR      r1,[sp,#8]
        0x00006df0:    220a        ."      MOVS     r2,#0xa
        0x00006df2:    4351        QC      MULS     r1,r2,r1
        0x00006df4:    3930        09      SUBS     r1,r1,#0x30
        0x00006df6:    1840        @.      ADDS     r0,r0,r1
        0x00006df8:    1c6d        m.      ADDS     r5,r5,#1
        0x00006dfa:    9002        ..      STR      r0,[sp,#8]
        0x00006dfc:    7828        (x      LDRB     r0,[r5,#0]
        0x00006dfe:    4601        .F      MOV      r1,r0
        0x00006e00:    3930        09      SUBS     r1,r1,#0x30
        0x00006e02:    2909        .)      CMP      r1,#9
        0x00006e04:    d9f3        ..      BLS      0x6dee ; _printf_core + 154
        0x00006e06:    7828        (x      LDRB     r0,[r5,#0]
        0x00006e08:    286c        l(      CMP      r0,#0x6c
        0x00006e0a:    d010        ..      BEQ      0x6e2e ; _printf_core + 218
        0x00006e0c:    dc06        ..      BGT      0x6e1c ; _printf_core + 200
        0x00006e0e:    284c        L(      CMP      r0,#0x4c
        0x00006e10:    d01a        ..      BEQ      0x6e48 ; _printf_core + 244
        0x00006e12:    2868        h(      CMP      r0,#0x68
        0x00006e14:    d00e        ..      BEQ      0x6e34 ; _printf_core + 224
        0x00006e16:    286a        j(      CMP      r0,#0x6a
        0x00006e18:    d117        ..      BNE      0x6e4a ; _printf_core + 246
        0x00006e1a:    e004        ..      B        0x6e26 ; _printf_core + 210
        0x00006e1c:    2874        t(      CMP      r0,#0x74
        0x00006e1e:    d013        ..      BEQ      0x6e48 ; _printf_core + 244
        0x00006e20:    287a        z(      CMP      r0,#0x7a
        0x00006e22:    d112        ..      BNE      0x6e4a ; _printf_core + 246
        0x00006e24:    e010        ..      B        0x6e48 ; _printf_core + 244
        0x00006e26:    2001        .       MOVS     r0,#1
        0x00006e28:    0540        @.      LSLS     r0,r0,#21
        0x00006e2a:    4304        .C      ORRS     r4,r4,r0
        0x00006e2c:    e00c        ..      B        0x6e48 ; _printf_core + 244
        0x00006e2e:    2101        .!      MOVS     r1,#1
        0x00006e30:    0509        ..      LSLS     r1,r1,#20
        0x00006e32:    e001        ..      B        0x6e38 ; _printf_core + 228
        0x00006e34:    2103        .!      MOVS     r1,#3
        0x00006e36:    0509        ..      LSLS     r1,r1,#20
        0x00006e38:    430c        .C      ORRS     r4,r4,r1
        0x00006e3a:    7869        ix      LDRB     r1,[r5,#1]
        0x00006e3c:    4281        .B      CMP      r1,r0
        0x00006e3e:    d103        ..      BNE      0x6e48 ; _printf_core + 244
        0x00006e40:    2001        .       MOVS     r0,#1
        0x00006e42:    0500        ..      LSLS     r0,r0,#20
        0x00006e44:    1824        $.      ADDS     r4,r4,r0
        0x00006e46:    1c6d        m.      ADDS     r5,r5,#1
        0x00006e48:    1c6d        m.      ADDS     r5,r5,#1
        0x00006e4a:    7828        (x      LDRB     r0,[r5,#0]
        0x00006e4c:    9003        ..      STR      r0,[sp,#0xc]
        0x00006e4e:    286e        n(      CMP      r0,#0x6e
        0x00006e50:    d01e        ..      BEQ      0x6e90 ; _printf_core + 316
        0x00006e52:    dc0c        ..      BGT      0x6e6e ; _printf_core + 282
        0x00006e54:    2863        c(      CMP      r0,#0x63
        0x00006e56:    d031        1.      BEQ      0x6ebc ; _printf_core + 360
        0x00006e58:    dc04        ..      BGT      0x6e64 ; _printf_core + 272
        0x00006e5a:    2800        .(      CMP      r0,#0
        0x00006e5c:    d08a        ..      BEQ      0x6d74 ; _printf_core + 32
        0x00006e5e:    2858        X(      CMP      r0,#0x58
        0x00006e60:    d111        ..      BNE      0x6e86 ; _printf_core + 306
        0x00006e62:    e0b2        ..      B        0x6fca ; _printf_core + 630
        0x00006e64:    2864        d(      CMP      r0,#0x64
        0x00006e66:    d07b        {.      BEQ      0x6f60 ; _printf_core + 524
        0x00006e68:    2869        i(      CMP      r0,#0x69
        0x00006e6a:    d10c        ..      BNE      0x6e86 ; _printf_core + 306
        0x00006e6c:    e078        x.      B        0x6f60 ; _printf_core + 524
        0x00006e6e:    2873        s(      CMP      r0,#0x73
        0x00006e70:    d02d        -.      BEQ      0x6ece ; _printf_core + 378
        0x00006e72:    dc04        ..      BGT      0x6e7e ; _printf_core + 298
        0x00006e74:    286f        o(      CMP      r0,#0x6f
        0x00006e76:    d070        p.      BEQ      0x6f5a ; _printf_core + 518
        0x00006e78:    2870        p(      CMP      r0,#0x70
        0x00006e7a:    d104        ..      BNE      0x6e86 ; _printf_core + 306
        0x00006e7c:    e0a7        ..      B        0x6fce ; _printf_core + 634
        0x00006e7e:    2875        u(      CMP      r0,#0x75
        0x00006e80:    d06c        l.      BEQ      0x6f5c ; _printf_core + 520
        0x00006e82:    2878        x(      CMP      r0,#0x78
        0x00006e84:    d06b        k.      BEQ      0x6f5e ; _printf_core + 522
        0x00006e86:    9a14        ..      LDR      r2,[sp,#0x50]
        0x00006e88:    9913        ..      LDR      r1,[sp,#0x4c]
        0x00006e8a:    4790        .G      BLX      r2
        0x00006e8c:    1c76        v.      ADDS     r6,r6,#1
        0x00006e8e:    e062        b.      B        0x6f56 ; _printf_core + 514
        0x00006e90:    0260        `.      LSLS     r0,r4,#9
        0x00006e92:    0f40        @.      LSRS     r0,r0,#29
        0x00006e94:    2802        .(      CMP      r0,#2
        0x00006e96:    d007        ..      BEQ      0x6ea8 ; _printf_core + 340
        0x00006e98:    2803        .(      CMP      r0,#3
        0x00006e9a:    d00a        ..      BEQ      0x6eb2 ; _printf_core + 350
        0x00006e9c:    2804        .(      CMP      r0,#4
        0x00006e9e:    6838        8h      LDR      r0,[r7,#0]
        0x00006ea0:    d00a        ..      BEQ      0x6eb8 ; _printf_core + 356
        0x00006ea2:    6006        .`      STR      r6,[r0,#0]
        0x00006ea4:    1d3f        ?.      ADDS     r7,r7,#4
        0x00006ea6:    e056        V.      B        0x6f56 ; _printf_core + 514
        0x00006ea8:    6838        8h      LDR      r0,[r7,#0]
        0x00006eaa:    17f1        ..      ASRS     r1,r6,#31
        0x00006eac:    6006        .`      STR      r6,[r0,#0]
        0x00006eae:    6041        A`      STR      r1,[r0,#4]
        0x00006eb0:    e7f8        ..      B        0x6ea4 ; _printf_core + 336
        0x00006eb2:    6838        8h      LDR      r0,[r7,#0]
        0x00006eb4:    8006        ..      STRH     r6,[r0,#0]
        0x00006eb6:    e7f5        ..      B        0x6ea4 ; _printf_core + 336
        0x00006eb8:    7006        .p      STRB     r6,[r0,#0]
        0x00006eba:    e7f3        ..      B        0x6ea4 ; _printf_core + 336
        0x00006ebc:    7838        8x      LDRB     r0,[r7,#0]
        0x00006ebe:    4669        iF      MOV      r1,sp
        0x00006ec0:    7408        .t      STRB     r0,[r1,#0x10]
        0x00006ec2:    2000        .       MOVS     r0,#0
        0x00006ec4:    7448        Ht      STRB     r0,[r1,#0x11]
        0x00006ec6:    a804        ..      ADD      r0,sp,#0x10
        0x00006ec8:    9003        ..      STR      r0,[sp,#0xc]
        0x00006eca:    2001        .       MOVS     r0,#1
        0x00006ecc:    e003        ..      B        0x6ed6 ; _printf_core + 386
        0x00006ece:    6838        8h      LDR      r0,[r7,#0]
        0x00006ed0:    9003        ..      STR      r0,[sp,#0xc]
        0x00006ed2:    2000        .       MOVS     r0,#0
        0x00006ed4:    43c0        .C      MVNS     r0,r0
        0x00006ed6:    1d3f        ?.      ADDS     r7,r7,#4
        0x00006ed8:    0761        a.      LSLS     r1,r4,#29
        0x00006eda:    d50f        ..      BPL      0x6efc ; _printf_core + 424
        0x00006edc:    2100        .!      MOVS     r1,#0
        0x00006ede:    e001        ..      B        0x6ee4 ; _printf_core + 400
        0x00006ee0:    9901        ..      LDR      r1,[sp,#4]
        0x00006ee2:    1c49        I.      ADDS     r1,r1,#1
        0x00006ee4:    9a02        ..      LDR      r2,[sp,#8]
        0x00006ee6:    9101        ..      STR      r1,[sp,#4]
        0x00006ee8:    4291        .B      CMP      r1,r2
        0x00006eea:    da13        ..      BGE      0x6f14 ; _printf_core + 448
        0x00006eec:    4281        .B      CMP      r1,r0
        0x00006eee:    dbf7        ..      BLT      0x6ee0 ; _printf_core + 396
        0x00006ef0:    9a01        ..      LDR      r2,[sp,#4]
        0x00006ef2:    9903        ..      LDR      r1,[sp,#0xc]
        0x00006ef4:    5c89        .\      LDRB     r1,[r1,r2]
        0x00006ef6:    2900        .)      CMP      r1,#0
        0x00006ef8:    d1f2        ..      BNE      0x6ee0 ; _printf_core + 396
        0x00006efa:    e00b        ..      B        0x6f14 ; _printf_core + 448
        0x00006efc:    2100        .!      MOVS     r1,#0
        0x00006efe:    e001        ..      B        0x6f04 ; _printf_core + 432
        0x00006f00:    9901        ..      LDR      r1,[sp,#4]
        0x00006f02:    1c49        I.      ADDS     r1,r1,#1
        0x00006f04:    9101        ..      STR      r1,[sp,#4]
        0x00006f06:    4281        .B      CMP      r1,r0
        0x00006f08:    dbfa        ..      BLT      0x6f00 ; _printf_core + 428
        0x00006f0a:    9a01        ..      LDR      r2,[sp,#4]
        0x00006f0c:    9903        ..      LDR      r1,[sp,#0xc]
        0x00006f0e:    5c89        .\      LDRB     r1,[r1,r2]
        0x00006f10:    2900        .)      CMP      r1,#0
        0x00006f12:    d1f5        ..      BNE      0x6f00 ; _printf_core + 428
        0x00006f14:    9901        ..      LDR      r1,[sp,#4]
        0x00006f16:    9800        ..      LDR      r0,[sp,#0]
        0x00006f18:    9a13        ..      LDR      r2,[sp,#0x4c]
        0x00006f1a:    1a40        @.      SUBS     r0,r0,r1
        0x00006f1c:    9000        ..      STR      r0,[sp,#0]
        0x00006f1e:    4621        !F      MOV      r1,r4
        0x00006f20:    9b14        ..      LDR      r3,[sp,#0x50]
        0x00006f22:    f000f93b    ..;.    BL       _printf_pre_padding ; 0x719c
        0x00006f26:    9901        ..      LDR      r1,[sp,#4]
        0x00006f28:    1980        ..      ADDS     r0,r0,r6
        0x00006f2a:    1846        F.      ADDS     r6,r0,r1
        0x00006f2c:    e007        ..      B        0x6f3e ; _printf_core + 490
        0x00006f2e:    9803        ..      LDR      r0,[sp,#0xc]
        0x00006f30:    9903        ..      LDR      r1,[sp,#0xc]
        0x00006f32:    7800        .x      LDRB     r0,[r0,#0]
        0x00006f34:    1c49        I.      ADDS     r1,r1,#1
        0x00006f36:    9103        ..      STR      r1,[sp,#0xc]
        0x00006f38:    9a14        ..      LDR      r2,[sp,#0x50]
        0x00006f3a:    9913        ..      LDR      r1,[sp,#0x4c]
        0x00006f3c:    4790        .G      BLX      r2
        0x00006f3e:    9801        ..      LDR      r0,[sp,#4]
        0x00006f40:    1e40        @.      SUBS     r0,r0,#1
        0x00006f42:    9001        ..      STR      r0,[sp,#4]
        0x00006f44:    1c40        @.      ADDS     r0,r0,#1
        0x00006f46:    d1f2        ..      BNE      0x6f2e ; _printf_core + 474
        0x00006f48:    4621        !F      MOV      r1,r4
        0x00006f4a:    9b14        ..      LDR      r3,[sp,#0x50]
        0x00006f4c:    9a13        ..      LDR      r2,[sp,#0x4c]
        0x00006f4e:    9800        ..      LDR      r0,[sp,#0]
        0x00006f50:    f000f914    ....    BL       _printf_post_padding ; 0x717c
        0x00006f54:    1986        ..      ADDS     r6,r0,r6
        0x00006f56:    1c6d        m.      ADDS     r5,r5,#1
        0x00006f58:    e709        ..      B        0x6d6e ; _printf_core + 26
        0x00006f5a:    e041        A.      B        0x6fe0 ; _printf_core + 652
        0x00006f5c:    e033        3.      B        0x6fc6 ; _printf_core + 626
        0x00006f5e:    e034        4.      B        0x6fca ; _printf_core + 630
        0x00006f60:    200a        .       MOVS     r0,#0xa
        0x00006f62:    2100        .!      MOVS     r1,#0
        0x00006f64:    9004        ..      STR      r0,[sp,#0x10]
        0x00006f66:    9105        ..      STR      r1,[sp,#0x14]
        0x00006f68:    0260        `.      LSLS     r0,r4,#9
        0x00006f6a:    0f41        A.      LSRS     r1,r0,#29
        0x00006f6c:    2902        .)      CMP      r1,#2
        0x00006f6e:    d005        ..      BEQ      0x6f7c ; _printf_core + 552
        0x00006f70:    cf01        ..      LDM      r7!,{r0}
        0x00006f72:    17c2        ..      ASRS     r2,r0,#31
        0x00006f74:    4694        .F      MOV      r12,r2
        0x00006f76:    2903        .)      CMP      r1,#3
        0x00006f78:    d005        ..      BEQ      0x6f86 ; _printf_core + 562
        0x00006f7a:    e007        ..      B        0x6f8c ; _printf_core + 568
        0x00006f7c:    1dff        ..      ADDS     r7,r7,#7
        0x00006f7e:    08ff        ..      LSRS     r7,r7,#3
        0x00006f80:    00ff        ..      LSLS     r7,r7,#3
        0x00006f82:    cf03        ..      LDM      r7!,{r0,r1}
        0x00006f84:    e006        ..      B        0x6f94 ; _printf_core + 576
        0x00006f86:    b200        ..      SXTH     r0,r0
        0x00006f88:    17c2        ..      ASRS     r2,r0,#31
        0x00006f8a:    4694        .F      MOV      r12,r2
        0x00006f8c:    2904        .)      CMP      r1,#4
        0x00006f8e:    d102        ..      BNE      0x6f96 ; _printf_core + 578
        0x00006f90:    b240        @.      SXTB     r0,r0
        0x00006f92:    17c1        ..      ASRS     r1,r0,#31
        0x00006f94:    468c        .F      MOV      r12,r1
        0x00006f96:    2200        ."      MOVS     r2,#0
        0x00006f98:    4661        aF      MOV      r1,r12
        0x00006f9a:    4594        .E      CMP      r12,r2
        0x00006f9c:    da06        ..      BGE      0x6fac ; _printf_core + 600
        0x00006f9e:    460a        .F      MOV      r2,r1
        0x00006fa0:    2100        .!      MOVS     r1,#0
        0x00006fa2:    4240        @B      RSBS     r0,r0,#0
        0x00006fa4:    4191        .A      SBCS     r1,r1,r2
        0x00006fa6:    468c        .F      MOV      r12,r1
        0x00006fa8:    212d        -!      MOVS     r1,#0x2d
        0x00006faa:    e002        ..      B        0x6fb2 ; _printf_core + 606
        0x00006fac:    0521        !.      LSLS     r1,r4,#20
        0x00006fae:    d504        ..      BPL      0x6fba ; _printf_core + 614
        0x00006fb0:    212b        +!      MOVS     r1,#0x2b
        0x00006fb2:    466a        jF      MOV      r2,sp
        0x00006fb4:    7611        .v      STRB     r1,[r2,#0x18]
        0x00006fb6:    2101        .!      MOVS     r1,#1
        0x00006fb8:    e003        ..      B        0x6fc2 ; _printf_core + 622
        0x00006fba:    07e1        ..      LSLS     r1,r4,#31
        0x00006fbc:    d001        ..      BEQ      0x6fc2 ; _printf_core + 622
        0x00006fbe:    2120         !      MOVS     r1,#0x20
        0x00006fc0:    e7f7        ..      B        0x6fb2 ; _printf_core + 606
        0x00006fc2:    9101        ..      STR      r1,[sp,#4]
        0x00006fc4:    e054        T.      B        0x7070 ; _printf_core + 796
        0x00006fc6:    200a        .       MOVS     r0,#0xa
        0x00006fc8:    e00b        ..      B        0x6fe2 ; _printf_core + 654
        0x00006fca:    2010        .       MOVS     r0,#0x10
        0x00006fcc:    e009        ..      B        0x6fe2 ; _printf_core + 654
        0x00006fce:    2010        .       MOVS     r0,#0x10
        0x00006fd0:    9004        ..      STR      r0,[sp,#0x10]
        0x00006fd2:    2100        .!      MOVS     r1,#0
        0x00006fd4:    2004        .       MOVS     r0,#4
        0x00006fd6:    4304        .C      ORRS     r4,r4,r0
        0x00006fd8:    2008        .       MOVS     r0,#8
        0x00006fda:    9105        ..      STR      r1,[sp,#0x14]
        0x00006fdc:    9002        ..      STR      r0,[sp,#8]
        0x00006fde:    e003        ..      B        0x6fe8 ; _printf_core + 660
        0x00006fe0:    2008        .       MOVS     r0,#8
        0x00006fe2:    2100        .!      MOVS     r1,#0
        0x00006fe4:    9105        ..      STR      r1,[sp,#0x14]
        0x00006fe6:    9004        ..      STR      r0,[sp,#0x10]
        0x00006fe8:    0260        `.      LSLS     r0,r4,#9
        0x00006fea:    0f41        A.      LSRS     r1,r0,#29
        0x00006fec:    2902        .)      CMP      r1,#2
        0x00006fee:    d005        ..      BEQ      0x6ffc ; _printf_core + 680
        0x00006ff0:    cf01        ..      LDM      r7!,{r0}
        0x00006ff2:    2200        ."      MOVS     r2,#0
        0x00006ff4:    4694        .F      MOV      r12,r2
        0x00006ff6:    2903        .)      CMP      r1,#3
        0x00006ff8:    d006        ..      BEQ      0x7008 ; _printf_core + 692
        0x00006ffa:    e006        ..      B        0x700a ; _printf_core + 694
        0x00006ffc:    1dff        ..      ADDS     r7,r7,#7
        0x00006ffe:    08ff        ..      LSRS     r7,r7,#3
        0x00007000:    00ff        ..      LSLS     r7,r7,#3
        0x00007002:    cf03        ..      LDM      r7!,{r0,r1}
        0x00007004:    468c        .F      MOV      r12,r1
        0x00007006:    e003        ..      B        0x7010 ; _printf_core + 700
        0x00007008:    b280        ..      UXTH     r0,r0
        0x0000700a:    2904        .)      CMP      r1,#4
        0x0000700c:    d100        ..      BNE      0x7010 ; _printf_core + 700
        0x0000700e:    b2c0        ..      UXTB     r0,r0
        0x00007010:    2100        .!      MOVS     r1,#0
        0x00007012:    9101        ..      STR      r1,[sp,#4]
        0x00007014:    0721        !.      LSLS     r1,r4,#28
        0x00007016:    d52b        +.      BPL      0x7070 ; _printf_core + 796
        0x00007018:    9903        ..      LDR      r1,[sp,#0xc]
        0x0000701a:    2970        p)      CMP      r1,#0x70
        0x0000701c:    d006        ..      BEQ      0x702c ; _printf_core + 728
        0x0000701e:    9a04        ..      LDR      r2,[sp,#0x10]
        0x00007020:    2110        .!      MOVS     r1,#0x10
        0x00007022:    9b05        ..      LDR      r3,[sp,#0x14]
        0x00007024:    404a        J@      EORS     r2,r2,r1
        0x00007026:    431a        .C      ORRS     r2,r2,r3
        0x00007028:    d005        ..      BEQ      0x7036 ; _printf_core + 738
        0x0000702a:    e00e        ..      B        0x704a ; _printf_core + 758
        0x0000702c:    2140        @!      MOVS     r1,#0x40
        0x0000702e:    466a        jF      MOV      r2,sp
        0x00007030:    7611        .v      STRB     r1,[r2,#0x18]
        0x00007032:    2101        .!      MOVS     r1,#1
        0x00007034:    e008        ..      B        0x7048 ; _printf_core + 756
        0x00007036:    4661        aF      MOV      r1,r12
        0x00007038:    4301        .C      ORRS     r1,r1,r0
        0x0000703a:    d006        ..      BEQ      0x704a ; _printf_core + 758
        0x0000703c:    2130        0!      MOVS     r1,#0x30
        0x0000703e:    466a        jF      MOV      r2,sp
        0x00007040:    7611        .v      STRB     r1,[r2,#0x18]
        0x00007042:    9903        ..      LDR      r1,[sp,#0xc]
        0x00007044:    7651        Qv      STRB     r1,[r2,#0x19]
        0x00007046:    2102        .!      MOVS     r1,#2
        0x00007048:    9101        ..      STR      r1,[sp,#4]
        0x0000704a:    9a04        ..      LDR      r2,[sp,#0x10]
        0x0000704c:    2108        .!      MOVS     r1,#8
        0x0000704e:    9b05        ..      LDR      r3,[sp,#0x14]
        0x00007050:    404a        J@      EORS     r2,r2,r1
        0x00007052:    431a        .C      ORRS     r2,r2,r3
        0x00007054:    d10c        ..      BNE      0x7070 ; _printf_core + 796
        0x00007056:    4661        aF      MOV      r1,r12
        0x00007058:    4301        .C      ORRS     r1,r1,r0
        0x0000705a:    d101        ..      BNE      0x7060 ; _printf_core + 780
        0x0000705c:    0761        a.      LSLS     r1,r4,#29
        0x0000705e:    d507        ..      BPL      0x7070 ; _printf_core + 796
        0x00007060:    2130        0!      MOVS     r1,#0x30
        0x00007062:    466a        jF      MOV      r2,sp
        0x00007064:    7611        .v      STRB     r1,[r2,#0x18]
        0x00007066:    2101        .!      MOVS     r1,#1
        0x00007068:    9101        ..      STR      r1,[sp,#4]
        0x0000706a:    9902        ..      LDR      r1,[sp,#8]
        0x0000706c:    1e49        I.      SUBS     r1,r1,#1
        0x0000706e:    9102        ..      STR      r1,[sp,#8]
        0x00007070:    9903        ..      LDR      r1,[sp,#0xc]
        0x00007072:    2958        X)      CMP      r1,#0x58
        0x00007074:    d004        ..      BEQ      0x7080 ; _printf_core + 812
        0x00007076:    a137        7.      ADR      r1,{pc}+0xde ; 0x7154
        0x00007078:    9103        ..      STR      r1,[sp,#0xc]
        0x0000707a:    a90f        ..      ADD      r1,sp,#0x3c
        0x0000707c:    910f        ..      STR      r1,[sp,#0x3c]
        0x0000707e:    e00d        ..      B        0x709c ; _printf_core + 840
        0x00007080:    a139        9.      ADR      r1,{pc}+0xe8 ; 0x7168
        0x00007082:    e7f9        ..      B        0x7078 ; _printf_core + 804
        0x00007084:    4661        aF      MOV      r1,r12
        0x00007086:    9b05        ..      LDR      r3,[sp,#0x14]
        0x00007088:    9a04        ..      LDR      r2,[sp,#0x10]
        0x0000708a:    f7f9facf    ....    BL       __aeabi_uldivmod ; 0x62c
        0x0000708e:    9b03        ..      LDR      r3,[sp,#0xc]
        0x00007090:    468c        .F      MOV      r12,r1
        0x00007092:    5c9b        .\      LDRB     r3,[r3,r2]
        0x00007094:    9a0f        ..      LDR      r2,[sp,#0x3c]
        0x00007096:    1e52        R.      SUBS     r2,r2,#1
        0x00007098:    920f        ..      STR      r2,[sp,#0x3c]
        0x0000709a:    7013        .p      STRB     r3,[r2,#0]
        0x0000709c:    4661        aF      MOV      r1,r12
        0x0000709e:    4301        .C      ORRS     r1,r1,r0
        0x000070a0:    d1f0        ..      BNE      0x7084 ; _printf_core + 816
        0x000070a2:    980f        ..      LDR      r0,[sp,#0x3c]
        0x000070a4:    a907        ..      ADD      r1,sp,#0x1c
        0x000070a6:    1a08        ..      SUBS     r0,r1,r0
        0x000070a8:    3020         0      ADDS     r0,r0,#0x20
        0x000070aa:    9003        ..      STR      r0,[sp,#0xc]
        0x000070ac:    0760        `.      LSLS     r0,r4,#29
        0x000070ae:    d504        ..      BPL      0x70ba ; _printf_core + 870
        0x000070b0:    2001        .       MOVS     r0,#1
        0x000070b2:    0400        ..      LSLS     r0,r0,#16
        0x000070b4:    4384        .C      BICS     r4,r4,r0
        0x000070b6:    9802        ..      LDR      r0,[sp,#8]
        0x000070b8:    e001        ..      B        0x70be ; _printf_core + 874
        0x000070ba:    2001        .       MOVS     r0,#1
        0x000070bc:    9002        ..      STR      r0,[sp,#8]
        0x000070be:    9903        ..      LDR      r1,[sp,#0xc]
        0x000070c0:    4288        .B      CMP      r0,r1
        0x000070c2:    dd01        ..      BLE      0x70c8 ; _printf_core + 884
        0x000070c4:    1a40        @.      SUBS     r0,r0,r1
        0x000070c6:    e000        ..      B        0x70ca ; _printf_core + 886
        0x000070c8:    2000        .       MOVS     r0,#0
        0x000070ca:    1841        A.      ADDS     r1,r0,r1
        0x000070cc:    9002        ..      STR      r0,[sp,#8]
        0x000070ce:    9801        ..      LDR      r0,[sp,#4]
        0x000070d0:    1809        ..      ADDS     r1,r1,r0
        0x000070d2:    9800        ..      LDR      r0,[sp,#0]
        0x000070d4:    1a40        @.      SUBS     r0,r0,r1
        0x000070d6:    9000        ..      STR      r0,[sp,#0]
        0x000070d8:    03e0        ..      LSLS     r0,r4,#15
        0x000070da:    d406        ..      BMI      0x70ea ; _printf_core + 918
        0x000070dc:    4621        !F      MOV      r1,r4
        0x000070de:    9b14        ..      LDR      r3,[sp,#0x50]
        0x000070e0:    9a13        ..      LDR      r2,[sp,#0x4c]
        0x000070e2:    9800        ..      LDR      r0,[sp,#0]
        0x000070e4:    f000f85a    ..Z.    BL       _printf_pre_padding ; 0x719c
        0x000070e8:    1986        ..      ADDS     r6,r0,r6
        0x000070ea:    2000        .       MOVS     r0,#0
        0x000070ec:    9004        ..      STR      r0,[sp,#0x10]
        0x000070ee:    e008        ..      B        0x7102 ; _printf_core + 942
        0x000070f0:    a906        ..      ADD      r1,sp,#0x18
        0x000070f2:    5c08        .\      LDRB     r0,[r1,r0]
        0x000070f4:    9a14        ..      LDR      r2,[sp,#0x50]
        0x000070f6:    9913        ..      LDR      r1,[sp,#0x4c]
        0x000070f8:    4790        .G      BLX      r2
        0x000070fa:    9804        ..      LDR      r0,[sp,#0x10]
        0x000070fc:    1c40        @.      ADDS     r0,r0,#1
        0x000070fe:    1c76        v.      ADDS     r6,r6,#1
        0x00007100:    9004        ..      STR      r0,[sp,#0x10]
        0x00007102:    9901        ..      LDR      r1,[sp,#4]
        0x00007104:    4288        .B      CMP      r0,r1
        0x00007106:    dbf3        ..      BLT      0x70f0 ; _printf_core + 924
        0x00007108:    03e0        ..      LSLS     r0,r4,#15
        0x0000710a:    d50c        ..      BPL      0x7126 ; _printf_core + 978
        0x0000710c:    4621        !F      MOV      r1,r4
        0x0000710e:    9b14        ..      LDR      r3,[sp,#0x50]
        0x00007110:    9a13        ..      LDR      r2,[sp,#0x4c]
        0x00007112:    9800        ..      LDR      r0,[sp,#0]
        0x00007114:    f000f842    ..B.    BL       _printf_pre_padding ; 0x719c
        0x00007118:    1986        ..      ADDS     r6,r0,r6
        0x0000711a:    e004        ..      B        0x7126 ; _printf_core + 978
        0x0000711c:    9a14        ..      LDR      r2,[sp,#0x50]
        0x0000711e:    2030        0       MOVS     r0,#0x30
        0x00007120:    9913        ..      LDR      r1,[sp,#0x4c]
        0x00007122:    4790        .G      BLX      r2
        0x00007124:    1c76        v.      ADDS     r6,r6,#1
        0x00007126:    9902        ..      LDR      r1,[sp,#8]
        0x00007128:    1e48        H.      SUBS     r0,r1,#1
        0x0000712a:    9002        ..      STR      r0,[sp,#8]
        0x0000712c:    2900        .)      CMP      r1,#0
        0x0000712e:    dcf5        ..      BGT      0x711c ; _printf_core + 968
        0x00007130:    e008        ..      B        0x7144 ; _printf_core + 1008
        0x00007132:    980f        ..      LDR      r0,[sp,#0x3c]
        0x00007134:    990f        ..      LDR      r1,[sp,#0x3c]
        0x00007136:    7800        .x      LDRB     r0,[r0,#0]
        0x00007138:    1c49        I.      ADDS     r1,r1,#1
        0x0000713a:    910f        ..      STR      r1,[sp,#0x3c]
        0x0000713c:    9a14        ..      LDR      r2,[sp,#0x50]
        0x0000713e:    9913        ..      LDR      r1,[sp,#0x4c]
        0x00007140:    4790        .G      BLX      r2
        0x00007142:    1c76        v.      ADDS     r6,r6,#1
        0x00007144:    9903        ..      LDR      r1,[sp,#0xc]
        0x00007146:    1e48        H.      SUBS     r0,r1,#1
        0x00007148:    9003        ..      STR      r0,[sp,#0xc]
        0x0000714a:    2900        .)      CMP      r1,#0
        0x0000714c:    dcf1        ..      BGT      0x7132 ; _printf_core + 990
        0x0000714e:    e6fb        ..      B        0x6f48 ; _printf_core + 500
    $d
        0x00007150:    00012809    .(..    DCD    75785
        0x00007154:    33323130    0123    DCD    858927408
        0x00007158:    37363534    4567    DCD    926299444
        0x0000715c:    62613938    89ab    DCD    1650538808
        0x00007160:    66656463    cdef    DCD    1717920867
        0x00007164:    00000000    ....    DCD    0
        0x00007168:    33323130    0123    DCD    858927408
        0x0000716c:    37363534    4567    DCD    926299444
        0x00007170:    42413938    89AB    DCD    1111570744
        0x00007174:    46454443    CDEF    DCD    1178944579
        0x00007178:    00000000    ....    DCD    0
    $t
    i._printf_post_padding
    _printf_post_padding
        0x0000717c:    b5f8        ..      PUSH     {r3-r7,lr}
        0x0000717e:    4604        .F      MOV      r4,r0
        0x00007180:    2500        .%      MOVS     r5,#0
        0x00007182:    461e        .F      MOV      r6,r3
        0x00007184:    4617        .F      MOV      r7,r2
        0x00007186:    0488        ..      LSLS     r0,r1,#18
        0x00007188:    d404        ..      BMI      0x7194 ; _printf_post_padding + 24
        0x0000718a:    e005        ..      B        0x7198 ; _printf_post_padding + 28
        0x0000718c:    4639        9F      MOV      r1,r7
        0x0000718e:    2020                MOVS     r0,#0x20
        0x00007190:    47b0        .G      BLX      r6
        0x00007192:    1c6d        m.      ADDS     r5,r5,#1
        0x00007194:    1e64        d.      SUBS     r4,r4,#1
        0x00007196:    d5f9        ..      BPL      0x718c ; _printf_post_padding + 16
        0x00007198:    4628        (F      MOV      r0,r5
        0x0000719a:    bdf8        ..      POP      {r3-r7,pc}
    i._printf_pre_padding
    _printf_pre_padding
        0x0000719c:    b5ff        ..      PUSH     {r0-r7,lr}
        0x0000719e:    4604        .F      MOV      r4,r0
        0x000071a0:    2500        .%      MOVS     r5,#0
        0x000071a2:    b081        ..      SUB      sp,sp,#4
        0x000071a4:    461e        .F      MOV      r6,r3
        0x000071a6:    03c8        ..      LSLS     r0,r1,#15
        0x000071a8:    d501        ..      BPL      0x71ae ; _printf_pre_padding + 18
        0x000071aa:    2730        0'      MOVS     r7,#0x30
        0x000071ac:    e000        ..      B        0x71b0 ; _printf_pre_padding + 20
        0x000071ae:    2720         '      MOVS     r7,#0x20
        0x000071b0:    0488        ..      LSLS     r0,r1,#18
        0x000071b2:    d504        ..      BPL      0x71be ; _printf_pre_padding + 34
        0x000071b4:    e005        ..      B        0x71c2 ; _printf_pre_padding + 38
        0x000071b6:    4638        8F      MOV      r0,r7
        0x000071b8:    9903        ..      LDR      r1,[sp,#0xc]
        0x000071ba:    47b0        .G      BLX      r6
        0x000071bc:    1c6d        m.      ADDS     r5,r5,#1
        0x000071be:    1e64        d.      SUBS     r4,r4,#1
        0x000071c0:    d5f9        ..      BPL      0x71b6 ; _printf_pre_padding + 26
        0x000071c2:    4628        (F      MOV      r0,r5
        0x000071c4:    b005        ..      ADD      sp,sp,#0x14
        0x000071c6:    bdf0        ..      POP      {r4-r7,pc}
    i.ldexp
    ldexp
        0x000071c8:    b570        p.      PUSH     {r4-r6,lr}
        0x000071ca:    4605        .F      MOV      r5,r0
        0x000071cc:    0d08        ..      LSRS     r0,r1,#20
        0x000071ce:    43c0        .C      MVNS     r0,r0
        0x000071d0:    4616        .F      MOV      r6,r2
        0x000071d2:    460c        .F      MOV      r4,r1
        0x000071d4:    0540        @.      LSLS     r0,r0,#21
        0x000071d6:    d02c        ,.      BEQ      0x7232 ; ldexp + 106
        0x000071d8:    2200        ."      MOVS     r2,#0
        0x000071da:    4613        .F      MOV      r3,r2
        0x000071dc:    4628        (F      MOV      r0,r5
        0x000071de:    f7f9fb3d    ..=.    BL       __aeabi_cdcmpeq ; 0x85c
        0x000071e2:    d026        &.      BEQ      0x7232 ; ldexp + 106
        0x000071e4:    4632        2F      MOV      r2,r6
        0x000071e6:    4628        (F      MOV      r0,r5
        0x000071e8:    4621        !F      MOV      r1,r4
        0x000071ea:    f7f9fae2    ....    BL       __ARM_scalbn ; 0x7b2
        0x000071ee:    4605        .F      MOV      r5,r0
        0x000071f0:    0d08        ..      LSRS     r0,r1,#20
        0x000071f2:    43c0        .C      MVNS     r0,r0
        0x000071f4:    460c        .F      MOV      r4,r1
        0x000071f6:    0540        @.      LSLS     r0,r0,#21
        0x000071f8:    d010        ..      BEQ      0x721c ; ldexp + 84
        0x000071fa:    2200        ."      MOVS     r2,#0
        0x000071fc:    4613        .F      MOV      r3,r2
        0x000071fe:    4628        (F      MOV      r0,r5
        0x00007200:    f7f9fb2c    ..,.    BL       __aeabi_cdcmpeq ; 0x85c
        0x00007204:    d115        ..      BNE      0x7232 ; ldexp + 106
        0x00007206:    2002        .       MOVS     r0,#2
        0x00007208:    f7fffd9e    ....    BL       __set_errno ; 0x6d48
        0x0000720c:    f7fffd82    ....    BL       __mathlib_dbl_underflow ; 0x6d14
        0x00007210:    0049        I.      LSLS     r1,r1,#1
        0x00007212:    0849        I.      LSRS     r1,r1,#1
        0x00007214:    0fe2        ..      LSRS     r2,r4,#31
        0x00007216:    07d2        ..      LSLS     r2,r2,#31
        0x00007218:    4311        .C      ORRS     r1,r1,r2
        0x0000721a:    bd70        p.      POP      {r4-r6,pc}
        0x0000721c:    2002        .       MOVS     r0,#2
        0x0000721e:    f7fffd93    ....    BL       __set_errno ; 0x6d48
        0x00007222:    f7fffd6d    ..m.    BL       __mathlib_dbl_overflow ; 0x6d00
        0x00007226:    0049        I.      LSLS     r1,r1,#1
        0x00007228:    0849        I.      LSRS     r1,r1,#1
        0x0000722a:    0fe2        ..      LSRS     r2,r4,#31
        0x0000722c:    07d2        ..      LSLS     r2,r2,#31
        0x0000722e:    4311        .C      ORRS     r1,r1,r2
        0x00007230:    bd70        p.      POP      {r4-r6,pc}
        0x00007232:    4628        (F      MOV      r0,r5
        0x00007234:    4621        !F      MOV      r1,r4
        0x00007236:    bd70        p.      POP      {r4-r6,pc}
    i.puts
    puts
        0x00007238:    b510        ..      PUSH     {r4,lr}
        0x0000723a:    4604        .F      MOV      r4,r0
        0x0000723c:    e001        ..      B        0x7242 ; puts + 10
        0x0000723e:    f7fffb5f    .._.    BL       fputc ; 0x6900
        0x00007242:    7820         x      LDRB     r0,[r4,#0]
        0x00007244:    1c64        d.      ADDS     r4,r4,#1
        0x00007246:    4903        .I      LDR      r1,[pc,#12] ; [0x7254] = 0x20000638
        0x00007248:    2800        .(      CMP      r0,#0
        0x0000724a:    d1f8        ..      BNE      0x723e ; puts + 6
        0x0000724c:    200a        .       MOVS     r0,#0xa
        0x0000724e:    f7fffb57    ..W.    BL       fputc ; 0x6900
        0x00007252:    bd10        ..      POP      {r4,pc}
    $d
        0x00007254:    20000638    8..     DCD    536872504
    $t
    i.round
    round
        0x00007258:    b5f0        ..      PUSH     {r4-r7,lr}
        0x0000725a:    b413        ..      PUSH     {r0,r1,r4}
        0x0000725c:    4606        .F      MOV      r6,r0
        0x0000725e:    9901        ..      LDR      r1,[sp,#4]
        0x00007260:    f7f9fabe    ....    BL       _drnd ; 0x7e0
        0x00007264:    4604        .F      MOV      r4,r0
        0x00007266:    460d        .F      MOV      r5,r1
        0x00007268:    4602        .F      MOV      r2,r0
        0x0000726a:    460b        .F      MOV      r3,r1
        0x0000726c:    4630        0F      MOV      r0,r6
        0x0000726e:    9901        ..      LDR      r1,[sp,#4]
        0x00007270:    f7f9f82c    ..,.    BL       __aeabi_dsub ; 0x2cc
        0x00007274:    4606        .F      MOV      r6,r0
        0x00007276:    9801        ..      LDR      r0,[sp,#4]
        0x00007278:    4b1b        .K      LDR      r3,[pc,#108] ; [0x72e8] = 0xbfe00000
        0x0000727a:    460f        .F      MOV      r7,r1
        0x0000727c:    2800        .(      CMP      r0,#0
        0x0000727e:    da0c        ..      BGE      0x729a ; round + 66
        0x00007280:    2200        ."      MOVS     r2,#0
        0x00007282:    4630        0F      MOV      r0,r6
        0x00007284:    f7f9faea    ....    BL       __aeabi_cdcmpeq ; 0x85c
        0x00007288:    d90c        ..      BLS      0x72a4 ; round + 76
        0x0000728a:    2200        ."      MOVS     r2,#0
        0x0000728c:    4b17        .K      LDR      r3,[pc,#92] ; [0x72ec] = 0x3fe00000
        0x0000728e:    4630        0F      MOV      r0,r6
        0x00007290:    4639        9F      MOV      r1,r7
        0x00007292:    f7f9faf7    ....    BL       __aeabi_cdrcmple ; 0x884
        0x00007296:    d21d        ..      BCS      0x72d4 ; round + 124
        0x00007298:    e014        ..      B        0x72c4 ; round + 108
        0x0000729a:    2200        ."      MOVS     r2,#0
        0x0000729c:    4630        0F      MOV      r0,r6
        0x0000729e:    f7f9fadd    ....    BL       __aeabi_cdcmpeq ; 0x85c
        0x000072a2:    d208        ..      BCS      0x72b6 ; round + 94
        0x000072a4:    2200        ."      MOVS     r2,#0
        0x000072a6:    4b12        .K      LDR      r3,[pc,#72] ; [0x72f0] = 0x3ff00000
        0x000072a8:    4620         F      MOV      r0,r4
        0x000072aa:    4629        )F      MOV      r1,r5
        0x000072ac:    f7f9f80e    ....    BL       __aeabi_dsub ; 0x2cc
        0x000072b0:    4604        .F      MOV      r4,r0
        0x000072b2:    460d        .F      MOV      r5,r1
        0x000072b4:    e00e        ..      B        0x72d4 ; round + 124
        0x000072b6:    2200        ."      MOVS     r2,#0
        0x000072b8:    4b0c        .K      LDR      r3,[pc,#48] ; [0x72ec] = 0x3fe00000
        0x000072ba:    4630        0F      MOV      r0,r6
        0x000072bc:    4639        9F      MOV      r1,r7
        0x000072be:    f7f9fae1    ....    BL       __aeabi_cdrcmple ; 0x884
        0x000072c2:    d807        ..      BHI      0x72d4 ; round + 124
        0x000072c4:    2200        ."      MOVS     r2,#0
        0x000072c6:    4b0a        .K      LDR      r3,[pc,#40] ; [0x72f0] = 0x3ff00000
        0x000072c8:    4620         F      MOV      r0,r4
        0x000072ca:    4629        )F      MOV      r1,r5
        0x000072cc:    f7f8ff5a    ..Z.    BL       __aeabi_dadd ; 0x184
        0x000072d0:    4604        .F      MOV      r4,r0
        0x000072d2:    460d        .F      MOV      r5,r1
        0x000072d4:    9a01        ..      LDR      r2,[sp,#4]
        0x000072d6:    0069        i.      LSLS     r1,r5,#1
        0x000072d8:    0849        I.      LSRS     r1,r1,#1
        0x000072da:    0fd2        ..      LSRS     r2,r2,#31
        0x000072dc:    07d2        ..      LSLS     r2,r2,#31
        0x000072de:    4620         F      MOV      r0,r4
        0x000072e0:    4311        .C      ORRS     r1,r1,r2
        0x000072e2:    b003        ..      ADD      sp,sp,#0xc
        0x000072e4:    bdf0        ..      POP      {r4-r7,pc}
    $d
        0x000072e6:    0000        ..      DCW    0
        0x000072e8:    bfe00000    ....    DCD    3219128320
        0x000072ec:    3fe00000    ...?    DCD    1071644672
        0x000072f0:    3ff00000    ...?    DCD    1072693248
    $d.realdata
    HoppingFrequencies
        0x000072f4:    36a0ae20     ..6    DCD    916500000
        0x000072f8:    370b7de0    .}.7    DCD    923500000
        0x000072fc:    360817a0    ...6    DCD    906500000
        0x00007300:    36aff060    `..6    DCD    917500000
        0x00007304:    36aff060    `..6    DCD    917500000
        0x00007308:    362e3d40    @=.6    DCD    909000000
        0x0000730c:    35d2afc0    ...5    DCD    903000000
        0x00007310:    36990d00    ...6    DCD    916000000
        0x00007314:    3663a520     .c6    DCD    912500000
        0x00007318:    3731a380    ..17    DCD    926000000
        0x0000731c:    37226140    @a"7    DCD    925000000
        0x00007320:    3635de60    `.56    DCD    909500000
        0x00007324:    366b4640    @Fk6    DCD    913000000
        0x00007328:    36bf32a0    .2.6    DCD    918500000
        0x0000732c:    36bf32a0    .2.6    DCD    918500000
        0x00007330:    35cb0ea0    ...5    DCD    902500000
        0x00007334:    365462e0    .bT6    DCD    911500000
        0x00007338:    373944a0    .D97    DCD    926500000
        0x0000733c:    35cb0ea0    ...5    DCD    902500000
        0x00007340:    36f49a80    ...6    DCD    922000000
        0x00007344:    37131f00    ...7    DCD    924000000
        0x00007348:    35da50e0    .P.5    DCD    903500000
        0x0000734c:    366b4640    @Fk6    DCD    913000000
        0x00007350:    36f49a80    ...6    DCD    922000000
        0x00007354:    3731a380    ..17    DCD    926000000
        0x00007358:    363d7f80    ..=6    DCD    910000000
        0x0000735c:    36d61600    ...6    DCD    920000000
        0x00007360:    36fc3ba0    .;.6    DCD    922500000
        0x00007364:    364cc1c0    ..L6    DCD    911000000
        0x00007368:    36f49a80    ...6    DCD    922000000
        0x0000736c:    3635de60    `.56    DCD    909500000
        0x00007370:    3731a380    ..17    DCD    926000000
        0x00007374:    36f49a80    ...6    DCD    922000000
        0x00007378:    36b79180    ...6    DCD    918000000
        0x0000737c:    372a0260    `.*7    DCD    925500000
        0x00007380:    361efb00    ...6    DCD    908000000
        0x00007384:    36aff060    `..6    DCD    917500000
        0x00007388:    373944a0    .D97    DCD    926500000
        0x0000738c:    36269c20     .&6    DCD    908500000
        0x00007390:    36990d00    ...6    DCD    916000000
        0x00007394:    35f8d560    `..5    DCD    905500000
        0x00007398:    36990d00    ...6    DCD    916000000
        0x0000739c:    35d2afc0    ...5    DCD    903000000
        0x000073a0:    35f13440    @4.5    DCD    905000000
        0x000073a4:    3689cac0    ...6    DCD    915000000
        0x000073a8:    366b4640    @Fk6    DCD    913000000
        0x000073ac:    360fb8c0    ...6    DCD    907000000
        0x000073b0:    363d7f80    ..=6    DCD    910000000
        0x000073b4:    373944a0    .D97    DCD    926500000
        0x000073b8:    372a0260    `.*7    DCD    925500000
        0x000073bc:    364cc1c0    ..L6    DCD    911000000
    K
        0x000073c0:    428a2f98    ./.B    DCD    1116352408
        0x000073c4:    71374491    .D7q    DCD    1899447441
        0x000073c8:    b5c0fbcf    ....    DCD    3049323471
        0x000073cc:    e9b5dba5    ....    DCD    3921009573
        0x000073d0:    3956c25b    [.V9    DCD    961987163
        0x000073d4:    59f111f1    ...Y    DCD    1508970993
        0x000073d8:    923f82a4    ..?.    DCD    2453635748
        0x000073dc:    ab1c5ed5    .^..    DCD    2870763221
        0x000073e0:    d807aa98    ....    DCD    3624381080
        0x000073e4:    12835b01    .[..    DCD    310598401
        0x000073e8:    243185be    ..1$    DCD    607225278
        0x000073ec:    550c7dc3    .}.U    DCD    1426881987
        0x000073f0:    72be5d74    t].r    DCD    1925078388
        0x000073f4:    80deb1fe    ....    DCD    2162078206
        0x000073f8:    9bdc06a7    ....    DCD    2614888103
        0x000073fc:    c19bf174    t...    DCD    3248222580
        0x00007400:    e49b69c1    .i..    DCD    3835390401
        0x00007404:    efbe4786    .G..    DCD    4022224774
        0x00007408:    0fc19dc6    ....    DCD    264347078
        0x0000740c:    240ca1cc    ...$    DCD    604807628
        0x00007410:    2de92c6f    o,.-    DCD    770255983
        0x00007414:    4a7484aa    ..tJ    DCD    1249150122
        0x00007418:    5cb0a9dc    ...\    DCD    1555081692
        0x0000741c:    76f988da    ...v    DCD    1996064986
        0x00007420:    983e5152    RQ>.    DCD    2554220882
        0x00007424:    a831c66d    m.1.    DCD    2821834349
        0x00007428:    b00327c8    .'..    DCD    2952996808
        0x0000742c:    bf597fc7    ..Y.    DCD    3210313671
        0x00007430:    c6e00bf3    ....    DCD    3336571891
        0x00007434:    d5a79147    G...    DCD    3584528711
        0x00007438:    06ca6351    Qc..    DCD    113926993
        0x0000743c:    14292967    g)).    DCD    338241895
        0x00007440:    27b70a85    ...'    DCD    666307205
        0x00007444:    2e1b2138    8!..    DCD    773529912
        0x00007448:    4d2c6dfc    .m,M    DCD    1294757372
        0x0000744c:    53380d13    ..8S    DCD    1396182291
        0x00007450:    650a7354    Ts.e    DCD    1695183700
        0x00007454:    766a0abb    ..jv    DCD    1986661051
        0x00007458:    81c2c92e    ....    DCD    2177026350
        0x0000745c:    92722c85    .,r.    DCD    2456956037
        0x00007460:    a2bfe8a1    ....    DCD    2730485921
        0x00007464:    a81a664b    Kf..    DCD    2820302411
        0x00007468:    c24b8b70    p.K.    DCD    3259730800
        0x0000746c:    c76c51a3    .Ql.    DCD    3345764771
        0x00007470:    d192e819    ....    DCD    3516065817
        0x00007474:    d6990624    $...    DCD    3600352804
        0x00007478:    f40e3585    .5..    DCD    4094571909
        0x0000747c:    106aa070    p.j.    DCD    275423344
        0x00007480:    19a4c116    ....    DCD    430227734
        0x00007484:    1e376c08    .l7.    DCD    506948616
        0x00007488:    2748774c    LwH'    DCD    659060556
        0x0000748c:    34b0bcb5    ...4    DCD    883997877
        0x00007490:    391c0cb3    ...9    DCD    958139571
        0x00007494:    4ed8aa4a    J..N    DCD    1322822218
        0x00007498:    5b9cca4f    O..[    DCD    1537002063
        0x0000749c:    682e6ff3    .o.h    DCD    1747873779
        0x000074a0:    748f82ee    ...t    DCD    1955562222
        0x000074a4:    78a5636f    oc.x    DCD    2024104815
        0x000074a8:    84c87814    .x..    DCD    2227730452
        0x000074ac:    8cc70208    ....    DCD    2361852424
        0x000074b0:    90befffa    ....    DCD    2428436474
        0x000074b4:    a4506ceb    .lP.    DCD    2756734187
        0x000074b8:    bef9a3f7    ....    DCD    3204031479
        0x000074bc:    c67178f2    .xq.    DCD    3329325298
    aucCRCHi
        0x000074c0:    4081c100    ...@    DCD    1082245376
        0x000074c4:    4180c001    ...A    DCD    1098956801
        0x000074c8:    4180c001    ...A    DCD    1098956801
        0x000074cc:    4081c100    ...@    DCD    1082245376
        0x000074d0:    4180c001    ...A    DCD    1098956801
        0x000074d4:    4081c100    ...@    DCD    1082245376
        0x000074d8:    4081c100    ...@    DCD    1082245376
        0x000074dc:    4180c001    ...A    DCD    1098956801
        0x000074e0:    4180c001    ...A    DCD    1098956801
        0x000074e4:    4081c100    ...@    DCD    1082245376
        0x000074e8:    4081c100    ...@    DCD    1082245376
        0x000074ec:    4180c001    ...A    DCD    1098956801
        0x000074f0:    4081c100    ...@    DCD    1082245376
        0x000074f4:    4180c001    ...A    DCD    1098956801
        0x000074f8:    4180c001    ...A    DCD    1098956801
        0x000074fc:    4081c100    ...@    DCD    1082245376
        0x00007500:    4180c001    ...A    DCD    1098956801
        0x00007504:    4081c100    ...@    DCD    1082245376
        0x00007508:    4081c100    ...@    DCD    1082245376
        0x0000750c:    4180c001    ...A    DCD    1098956801
        0x00007510:    4081c100    ...@    DCD    1082245376
        0x00007514:    4180c001    ...A    DCD    1098956801
        0x00007518:    4180c001    ...A    DCD    1098956801
        0x0000751c:    4081c100    ...@    DCD    1082245376
        0x00007520:    4081c100    ...@    DCD    1082245376
        0x00007524:    4180c001    ...A    DCD    1098956801
        0x00007528:    4180c001    ...A    DCD    1098956801
        0x0000752c:    4081c100    ...@    DCD    1082245376
        0x00007530:    4180c001    ...A    DCD    1098956801
        0x00007534:    4081c100    ...@    DCD    1082245376
        0x00007538:    4081c100    ...@    DCD    1082245376
        0x0000753c:    4180c001    ...A    DCD    1098956801
        0x00007540:    4180c001    ...A    DCD    1098956801
        0x00007544:    4081c100    ...@    DCD    1082245376
        0x00007548:    4081c100    ...@    DCD    1082245376
        0x0000754c:    4180c001    ...A    DCD    1098956801
        0x00007550:    4081c100    ...@    DCD    1082245376
        0x00007554:    4180c001    ...A    DCD    1098956801
        0x00007558:    4180c001    ...A    DCD    1098956801
        0x0000755c:    4081c100    ...@    DCD    1082245376
        0x00007560:    4081c100    ...@    DCD    1082245376
        0x00007564:    4180c001    ...A    DCD    1098956801
        0x00007568:    4180c001    ...A    DCD    1098956801
        0x0000756c:    4081c100    ...@    DCD    1082245376
        0x00007570:    4180c001    ...A    DCD    1098956801
        0x00007574:    4081c100    ...@    DCD    1082245376
        0x00007578:    4081c100    ...@    DCD    1082245376
        0x0000757c:    4180c001    ...A    DCD    1098956801
        0x00007580:    4081c100    ...@    DCD    1082245376
        0x00007584:    4180c001    ...A    DCD    1098956801
        0x00007588:    4180c001    ...A    DCD    1098956801
        0x0000758c:    4081c100    ...@    DCD    1082245376
        0x00007590:    4180c001    ...A    DCD    1098956801
        0x00007594:    4081c100    ...@    DCD    1082245376
        0x00007598:    4081c100    ...@    DCD    1082245376
        0x0000759c:    4180c001    ...A    DCD    1098956801
        0x000075a0:    4180c001    ...A    DCD    1098956801
        0x000075a4:    4081c100    ...@    DCD    1082245376
        0x000075a8:    4081c100    ...@    DCD    1082245376
        0x000075ac:    4180c001    ...A    DCD    1098956801
        0x000075b0:    4081c100    ...@    DCD    1082245376
        0x000075b4:    4180c001    ...A    DCD    1098956801
        0x000075b8:    4180c001    ...A    DCD    1098956801
        0x000075bc:    4081c100    ...@    DCD    1082245376
    aucCRCLo
        0x000075c0:    01c1c000    ....    DCD    29474816
        0x000075c4:    c20203c3    ....    DCD    3254911939
        0x000075c8:    c70706c6    ....    DCD    3339126470
        0x000075cc:    04c4c505    ....    DCD    80004357
        0x000075d0:    cd0d0ccc    ....    DCD    3440184524
        0x000075d4:    0ececf0f    ....    DCD    248434447
        0x000075d8:    0bcbca0a    ....    DCD    197904906
        0x000075dc:    c80809c9    ....    DCD    3355969993
        0x000075e0:    d91918d8    ....    DCD    3642300632
        0x000075e4:    1adadb1b    ....    DCD    450550555
        0x000075e8:    1fdfde1e    ....    DCD    534765086
        0x000075ec:    dc1c1ddd    ....    DCD    3692830173
        0x000075f0:    15d5d414    ....    DCD    366334996
        0x000075f4:    d61617d7    ....    DCD    3591772119
        0x000075f8:    d31312d2    ....    DCD    3541242578
        0x000075fc:    10d0d111    ....    DCD    282120465
        0x00007600:    f13130f0    .01.    DCD    4046532848
        0x00007604:    32f2f333    3..2    DCD    854782771
        0x00007608:    37f7f636    6..7    DCD    938997302
        0x0000760c:    f43435f5    .54.    DCD    4097062389
        0x00007610:    3dfdfc3c    <..=    DCD    1040055356
        0x00007614:    fe3e3fff    .?>.    DCD    4265492479
        0x00007618:    fb3b3afa    .:;.    DCD    4214962938
        0x0000761c:    38f8f939    9..8    DCD    955840825
        0x00007620:    29e9e828    (..)    DCD    703195176
        0x00007624:    ea2a2beb    .+*.    DCD    3928632299
        0x00007628:    ef2f2eee    ../.    DCD    4012846830
        0x0000762c:    2ceced2d    -..,    DCD    753724717
        0x00007630:    e52524e4    .$%.    DCD    3844416740
        0x00007634:    26e6e727    '..&    DCD    652666663
        0x00007638:    23e3e222    "..#    DCD    602137122
        0x0000763c:    e02021e1    .! .    DCD    3760202209
        0x00007640:    a16160a0    .`a.    DCD    2707513504
        0x00007644:    62a2a363    c..b    DCD    1654825827
        0x00007648:    67a7a666    f..g    DCD    1739040358
        0x0000764c:    a46465a5    .ed.    DCD    2758043045
        0x00007650:    6dadac6c    l..m    DCD    1840098412
        0x00007654:    ae6e6faf    .on.    DCD    2926473135
        0x00007658:    ab6b6aaa    .jk.    DCD    2875943594
        0x0000765c:    68a8a969    i..h    DCD    1755883881
        0x00007660:    79b9b878    x..y    DCD    2042214520
        0x00007664:    ba7a7bbb    .{z.    DCD    3128589243
        0x00007668:    bf7f7ebe    .~..    DCD    3212803774
        0x0000766c:    7cbcbd7d    }..|    DCD    2092744061
        0x00007670:    b57574b4    .tu.    DCD    3044373684
        0x00007674:    76b6b777    w..v    DCD    1991686007
        0x00007678:    73b3b272    r..s    DCD    1941156466
        0x0000767c:    b07071b1    .qp.    DCD    2960159153
        0x00007680:    51919050    P..Q    DCD    1368494160
        0x00007684:    92525393    .SR.    DCD    2454868883
        0x00007688:    97575696    .VW.    DCD    2539083414
        0x0000768c:    54949555    U..T    DCD    1419023701
        0x00007690:    9d5d5c9c    .\].    DCD    2640141468
        0x00007694:    5e9e9f5f    _..^    DCD    1587453791
        0x00007698:    5b9b9a5a    Z..[    DCD    1536924250
        0x0000769c:    98585999    .YX.    DCD    2555926937
        0x000076a0:    89494888    .HI.    DCD    2303281288
        0x000076a4:    4a8a8b4b    K..J    DCD    1250593611
        0x000076a8:    4f8f8e4e    N..O    DCD    1334808142
        0x000076ac:    8c4c4d8d    .ML.    DCD    2353810829
        0x000076b0:    45858444    D..E    DCD    1166378052
        0x000076b4:    86464787    .GF.    DCD    2252752775
        0x000076b8:    83434282    .BC.    DCD    2202223234
        0x000076bc:    40808141    A..@    DCD    1082163521
        0x000076c0:    16157e2b    +~..    DCD    370507307
        0x000076c4:    a6d2ae28    (...    DCD    2798825000
        0x000076c8:    40cff7ab    ...@    DCD    1087371179
        0x000076cc:    6e69ae3d    =.in    DCD    1852419645
        0x000076d0:    03020100    ....    DCD    50462976
        0x000076d4:    07060504    ....    DCD    117835012
        0x000076d8:    0b0a0908    ....    DCD    185207048
        0x000076dc:    0f0e0d0c    ....    DCD    252579084
        0x000076e0:    00000000    ....    DCD    0
        0x000076e4:    00000004    ....    DCD    4
        0x000076e8:    0000002c    ,...    DCD    44
        0x000076ec:    00000000    ....    DCD    0
    gsInfo
        0x000076f0:    200000d5    ...     DCD    536871125
        0x000076f4:    200000ac    ...     DCD    536871084
        0x000076f8:    2000009c    ...     DCD    536871068
        0x000076fc:    20000078    x..     DCD    536871032
    gu8StringSerial
        0x00007700:    0041031a    ..A.    DCD    4260634
        0x00007704:    00320030    0.2.    DCD    3276848
        0x00007708:    00310030    0.1.    DCD    3211312
        0x0000770c:    00300034    4.0.    DCD    3145780
        0x00007710:    00300039    9.0.    DCD    3145785
        0x00007714:    00300033    3.0.    DCD    3145779
        0x00007718:    0034        4.      DCW    52
    rsbox
        0x0000771a:    0952        R.      DCW    2386
        0x0000771c:    3630d56a    j.06    DCD    909170026
        0x00007720:    40bf38a5    .8.@    DCD    1086273701
        0x00007724:    f3819ea3    ....    DCD    4085358243
        0x00007728:    e37cfbd7    ..|.    DCD    3816618967
        0x0000772c:    2f9b8239    9../    DCD    798720569
        0x00007730:    8e3487ff    ..4.    DCD    2385807359
        0x00007734:    dec44443    CD..    DCD    3737404483
        0x00007738:    7b54cbe9    ..T{    DCD    2069154793
        0x0000773c:    c2a63294    .2..    DCD    3265671828
        0x00007740:    4cee3d23    #=.L    DCD    1290681635
        0x00007744:    fa420b95    ..B.    DCD    4198632341
        0x00007748:    2e084ec3    .N..    DCD    772296387
        0x0000774c:    d92866a1    .f(.    DCD    3643303585
        0x00007750:    5b76b224    $.v[    DCD    1534505508
        0x00007754:    8b6d49a2    .Im.    DCD    2339195298
        0x00007758:    f87225d1    .%r.    DCD    4168230353
        0x0000775c:    688664f6    .d.h    DCD    1753638134
        0x00007760:    a4d41698    ....    DCD    2765362840
        0x00007764:    655dcc5c    \.]e    DCD    1700645980
        0x00007768:    706c92b6    ..lp    DCD    1886163638
        0x0000776c:    edfd5048    HP..    DCD    3992801352
        0x00007770:    155edab9    ..^.    DCD    358537913
        0x00007774:    8da75746    FW..    DCD    2376554310
        0x00007778:    d890849d    ....    DCD    3633349789
        0x0000777c:    bc8c00ab    ....    DCD    3163291819
        0x00007780:    e4f70ad3    ....    DCD    3841395411
        0x00007784:    b3b80558    X...    DCD    3015181656
        0x00007788:    2cd00645    E..,    DCD    751830597
        0x0000778c:    3fca8f1e    ...?    DCD    1070239518
        0x00007790:    afc1020f    ....    DCD    2948661775
        0x00007794:    130103bd    ....    DCD    318833597
        0x00007798:    913a6b8a    .k:.    DCD    2436524938
        0x0000779c:    674f4111    .AOg    DCD    1733247249
        0x000077a0:    f297eadc    ....    DCD    4070042332
        0x000077a4:    b4f0cecf    ....    DCD    3035680463
        0x000077a8:    ac9673e6    .s..    DCD    2895541222
        0x000077ac:    ade72274    t"..    DCD    2917606004
        0x000077b0:    f9e28535    5...    DCD    4192372021
        0x000077b4:    751ce837    7..u    DCD    1964828727
        0x000077b8:    f1476edf    .nG.    DCD    4047990495
        0x000077bc:    291d711a    .q.)    DCD    689795354
        0x000077c0:    b76f89c5    ..o.    DCD    3077540293
        0x000077c4:    18aa0e62    b...    DCD    413797986
        0x000077c8:    56fc1bbe    ...V    DCD    1459362750
        0x000077cc:    d2c64b3e    >K..    DCD    3536210750
        0x000077d0:    db9a2079    y ..    DCD    3684311161
        0x000077d4:    cd78fec0    ..x.    DCD    3447258816
        0x000077d8:    dd1ff45a    Z...    DCD    3709858906
        0x000077dc:    078833a8    .3..    DCD    126366632
        0x000077e0:    12b131c7    .1..    DCD    313602503
        0x000077e4:    80275910    .Y'.    DCD    2150062352
        0x000077e8:    51605fec    ._`Q    DCD    1365270508
        0x000077ec:    b519a97f    ....    DCD    3038357887
        0x000077f0:    e52d0d4a    J.-.    DCD    3844934986
        0x000077f4:    c9939f7a    z...    DCD    3381895034
        0x000077f8:    e0a0ef9c    ....    DCD    3768643484
        0x000077fc:    2aae4d3b    ;M.*    DCD    716066107
        0x00007800:    ebc8b0f5    ....    DCD    3955798261
        0x00007804:    53833cbb    .<.S    DCD    1401109691
        0x00007808:    2b176199    .a.+    DCD    722952601
        0x0000780c:    77ba7e04    .~.w    DCD    2008710660
        0x00007810:    69e126d6    .&.i    DCD    1776363222
        0x00007814:    21556314    .cU!    DCD    559244052
        0x00007818:    7d0c        .}      DCW    32012
    sbox
        0x0000781a:    7c63        c|      DCW    31843
        0x0000781c:    6bf27b77    w{.k    DCD    1811053431
        0x00007820:    0130c56f    o.0.    DCD    19973487
        0x00007824:    d7fe2b67    g+..    DCD    3623758695
        0x00007828:    82ca76ab    .v..    DCD    2194306731
        0x0000782c:    59fa7dc9    .}.Y    DCD    1509588425
        0x00007830:    d4adf047    G...    DCD    3568169031
        0x00007834:    a49cafa2    ....    DCD    2761732002
        0x00007838:    fdb7c072    r...    DCD    4256678002
        0x0000783c:    3f362693    .&6?    DCD    1060513427
        0x00007840:    a534ccf7    ..4.    DCD    2771700983
        0x00007844:    d871f1e5    ..q.    DCD    3631346149
        0x00007848:    c7041531    1...    DCD    3338933553
        0x0000784c:    9618c323    #...    DCD    2518205219
        0x00007850:    12079a05    ....    DCD    302488069
        0x00007854:    27ebe280    ...'    DCD    669770368
        0x00007858:    830975b2    .u..    DCD    2198435250
        0x0000785c:    6e1b1a2c    ,..n    DCD    1847269932
        0x00007860:    3b52a05a    Z.R;    DCD    995270746
        0x00007864:    e329b3d6    ..).    DCD    3811161046
        0x00007868:    d153842f    /.S.    DCD    3511911471
        0x0000786c:    fc20ed00    .. .    DCD    4230016256
        0x00007870:    cb6a5bb1    .[j.    DCD    3412745137
        0x00007874:    4c4a39be    .9JL    DCD    1279932862
        0x00007878:    efd0cf58    X...    DCD    4023439192
        0x0000787c:    4d43fbaa    ..CM    DCD    1296300970
        0x00007880:    f9458533    3.E.    DCD    4182082867
        0x00007884:    3c507f02    ..P<    DCD    1011908354
        0x00007888:    a351a89f    ..Q.    DCD    2740037791
        0x0000788c:    9d928f40    @...    DCD    2643627840
        0x00007890:    b6bcf538    8...    DCD    3065836856
        0x00007894:    ff1021da    .!..    DCD    4279247322
        0x00007898:    0ccdd2f3    ....    DCD    214815475
        0x0000789c:    975fec13    .._.    DCD    2539645971
        0x000078a0:    a7c41744    D...    DCD    2814646084
        0x000078a4:    5d643d7e    ~=d]    DCD    1566850430
        0x000078a8:    81607319    .s`.    DCD    2170581785
        0x000078ac:    2a22dc4f    O."*    DCD    706927695
        0x000078b0:    ee468890    ..F.    DCD    3997599888
        0x000078b4:    5ede14b8    ...^    DCD    1591612600
        0x000078b8:    32e0db0b    ...2    DCD    853596939
        0x000078bc:    06490a3a    :.I.    DCD    105450042
        0x000078c0:    d3c25c24    $\..    DCD    3552730148
        0x000078c4:    959162ac    .b..    DCD    2509333164
        0x000078c8:    c8e779e4    .y..    DCD    3370613220
        0x000078cc:    d58d6d37    7m..    DCD    3582815543
        0x000078d0:    566ca94e    N.lV    DCD    1449961806
        0x000078d4:    7a65eaf4    ..ez    DCD    2053499636
        0x000078d8:    78ba08ae    ...x    DCD    2025457838
        0x000078dc:    a61c2e25    %...    DCD    2786864677
        0x000078e0:    dde8c6b4    ....    DCD    3723019956
        0x000078e4:    bd4b1f74    t.K.    DCD    3175817076
        0x000078e8:    3e708a8b    ..p>    DCD    1047562891
        0x000078ec:    034866b5    .fH.    DCD    55076533
        0x000078f0:    35610ef6    ..a5    DCD    895553270
        0x000078f4:    c186b957    W...    DCD    3246831959
        0x000078f8:    f8e19e1d    ....    DCD    4175535645
        0x000078fc:    d9691198    ..i.    DCD    3647541656
        0x00007900:    1e9b948e    ....    DCD    513512590
        0x00007904:    55cee987    ...U    DCD    1439623559
        0x00007908:    a18cdf28    (...    DCD    2710363944
        0x0000790c:    e6bf0d89    ....    DCD    3871280521
        0x00007910:    99416842    BhA.    DCD    2571200578
        0x00007914:    54b00f2d    -..T    DCD    1420824365
        0x00007918:    16bb        ..      DCW    5819
    ucSlaveID
        0x0000791a:    bbaa        ..      DCW    48042
        0x0000791c:    000000cc    ....    DCD    204
    Region$$Table$$Base
        0x00007920:    00007940    @y..    DCD    31040
        0x00007924:    20000000    ...     DCD    536870912
        0x00007928:    000001a4    ....    DCD    420
        0x0000792c:    000008dc    ....    DCD    2268
        0x00007930:    00007a68    hz..    DCD    31336
        0x00007934:    200001a8    ...     DCD    536871336
        0x00007938:    00003108    .1..    DCD    12552
        0x0000793c:    00006d38    8m..    DCD    27960
    Region$$Table$$Limit

** Section #2 'ER_RW' (SHT_PROGBITS) [SHF_ALLOC + SHF_WRITE]
    Size   : 296 bytes (alignment 4)
    Address: 0x20000000


** Section #3 'ER_ZI' (SHT_NOBITS) [SHF_ALLOC + SHF_WRITE]
    Size   : 12552 bytes (alignment 8)
    Address: 0x200001a8


** Section #4 '.debug_abbrev' (SHT_PROGBITS)
    Size   : 17606 bytes


** Section #5 '.debug_frame' (SHT_PROGBITS)
    Size   : 13216 bytes


** Section #6 '.debug_info' (SHT_PROGBITS)
    Size   : 66927 bytes


** Section #7 '.debug_line' (SHT_PROGBITS)
    Size   : 55124 bytes


** Section #8 '.debug_loc' (SHT_PROGBITS)
    Size   : 44141 bytes


** Section #9 '.debug_ranges' (SHT_PROGBITS)
    Size   : 4552 bytes


** Section #10 '.debug_str' (SHT_PROGBITS)
    Size   : 54017 bytes


** Section #11 '.symtab' (SHT_SYMTAB)
    Size   : 24480 bytes (alignment 4)
    String table #12 '.strtab'
    Last local symbol no. 1004


** Section #12 '.strtab' (SHT_STRTAB)
    Size   : 14164 bytes


** Section #13 '.note' (SHT_NOTE)
    Size   : 28 bytes (alignment 4)


** Section #14 '.comment' (SHT_PROGBITS)
    Size   : 2228 bytes


** Section #15 '.shstrtab' (SHT_STRTAB)
    Size   : 148 bytes


